SF:/fast/lenny/workspace/programming/gungraun/gungraun/benchmark-tests/src/assert.rs
FN:78,_RNCNvMNtCsb039c427Ago_15benchmark_tests6assertNtB4_6Assert7summary0B6_
FN:78,_RNCNvMNtCs8nIoALFZEAc_15benchmark_tests6assertNtB4_6Assert7summary0B6_
FN:99,_RNvMNtCs8nIoALFZEAc_15benchmark_tests6assertNtB2_6Assert13callgrind_map
FN:28,_RNvMNtCs8nIoALFZEAc_15benchmark_tests6assertNtB2_6Assert3new
FN:74,_RNvMNtCs8nIoALFZEAc_15benchmark_tests6assertNtB2_6Assert7summary
FNDA:0,_RNCNvMNtCsb039c427Ago_15benchmark_tests6assertNtB4_6Assert7summary0B6_
FNDA:0,_RNCNvMNtCs8nIoALFZEAc_15benchmark_tests6assertNtB4_6Assert7summary0B6_
FNDA:0,_RNvMNtCs8nIoALFZEAc_15benchmark_tests6assertNtB2_6Assert13callgrind_map
FNDA:0,_RNvMNtCs8nIoALFZEAc_15benchmark_tests6assertNtB2_6Assert3new
FNDA:0,_RNvMNtCs8nIoALFZEAc_15benchmark_tests6assertNtB2_6Assert7summary
FNF:4
FNH:0
DA:28,0
DA:29,0
DA:30,0
DA:32,0
DA:33,0
DA:34,0
DA:35,0
DA:36,0
DA:37,0
DA:39,0
DA:41,0
DA:43,0
DA:44,0
DA:46,0
DA:48,0
DA:50,0
DA:52,0
DA:53,0
DA:54,0
DA:55,0
DA:56,0
DA:57,0
DA:58,0
DA:59,0
DA:60,0
DA:61,0
DA:62,0
DA:63,0
DA:74,0
DA:75,0
DA:76,0
DA:77,0
DA:78,0
DA:79,0
DA:81,0
DA:83,0
DA:84,0
DA:99,0
DA:100,0
DA:101,0
DA:102,0
DA:103,0
DA:105,0
DA:106,0
DA:107,0
DA:108,0
DA:109,0
DA:110,0
DA:111,0
DA:112,0
DA:113,0
DA:114,0
DA:115,0
DA:116,0
DA:118,0
DA:120,0
DA:121,0
DA:122,0
DA:123,0
DA:125,0
DA:127,0
DA:128,0
BRF:0
BRH:0
LF:63
LH:0
end_of_record
SF:/fast/lenny/workspace/programming/gungraun/gungraun/benchmark-tests/src/bench.rs
FN:1611,_RNvCshXH78HvVAKk_5bench16get_rust_version
FN:1583,_RNvCshXH78HvVAKk_5bench21build_gungraun_runner
FN:1615,_RNvCshXH78HvVAKk_5bench4main
FN:642,_RNvMCshXH78HvVAKk_5benchNtB2_9Benchmark12run_template
FN:809,_RNvMCshXH78HvVAKk_5benchNtB2_9Benchmark14reset_template
FN:487,_RNvMCshXH78HvVAKk_5benchNtB2_9Benchmark15clean_benchmark
FN:464,_RNvMCshXH78HvVAKk_5benchNtB2_9Benchmark3new
FN:672,_RNvMCshXH78HvVAKk_5benchNtB2_9Benchmark3run
FN:501,_RNvMCshXH78HvVAKk_5benchNtB2_9Benchmark6backup
FN:511,_RNvMCshXH78HvVAKk_5benchNtB2_9Benchmark7restore
FN:528,_RNvMCshXH78HvVAKk_5benchNtB2_9Benchmark9run_bench
FN:1230,_RNvMs0_CshXH78HvVAKk_5benchNtB5_15BenchmarkRunner3new
FN:1241,_RNvMs0_CshXH78HvVAKk_5benchNtB5_15BenchmarkRunner3run
FN:1290,_RNvMs1_CshXH78HvVAKk_5benchNtB5_11ExpectedRun6assert
FN:1473,_RNvMs2_CshXH78HvVAKk_5benchNtB5_8Metadata12get_template
FN:1477,_RNvMs2_CshXH78HvVAKk_5benchNtB5_8Metadata20compare_rust_version
FN:1394,_RNvMs2_CshXH78HvVAKk_5benchNtB5_8Metadata3new
FN:1500,_RNvMs3_CshXH78HvVAKk_5benchNtB5_9RunConfig6assert
FN:1203,_RNvMs_CshXH78HvVAKk_5benchNtB4_15BenchmarkOutput11assert_exit
FN:939,_RNvMs_CshXH78HvVAKk_5benchNtB4_15BenchmarkOutput13filter_stderr
FN:982,_RNvMs_CshXH78HvVAKk_5benchNtB4_15BenchmarkOutput13filter_stdout
FN:919,_RNvMs_CshXH78HvVAKk_5benchNtB4_15BenchmarkOutput25normalize_coverage_stdout
FN:816,_RNvMs_CshXH78HvVAKk_5benchNtB4_15BenchmarkOutput6assert
FN:1604,_RINvCshXH78HvVAKk_5bench10print_infoNtNtCslNYArtu3iFV_5alloc6string6StringEB2_
FN:1604,_RINvCshXH78HvVAKk_5bench10print_infoReEB2_
FN:1592,_RINvCshXH78HvVAKk_5bench11print_errorNtNtCslNYArtu3iFV_5alloc6string6StringEB2_
FN:701,_RNCNCNvMCshXH78HvVAKk_5benchNtB6_9Benchmark3runs0_00B6_
FN:710,_RNCNCNvMCshXH78HvVAKk_5benchNtB6_9Benchmark3runs0_0s_0B6_
FN:103,_RNCNvCshXH78HvVAKk_5bench10COMMAND_RE0B3_
FN:110,_RNCNvCshXH78HvVAKk_5bench10DETAILS_RE0B3_
FN:45,_RNCNvCshXH78HvVAKk_5bench10NUMBERS_RE0B3_
FN:60,_RNCNvCshXH78HvVAKk_5bench10RUNNING_RE0B3_
FN:112,_RNCNvCshXH78HvVAKk_5bench14NOT_DETAILS_RE0B3_
FN:58,_RNCNvCshXH78HvVAKk_5bench15NUMBERS_DIFF_RE0B3_
FN:121,_RNCNvCshXH78HvVAKk_5bench15SUMMARY_LINE_RE0B3_
FN:124,_RNCNvCshXH78HvVAKk_5bench15THREAD_PANICKED0B3_
FN:118,_RNCNvCshXH78HvVAKk_5bench16ABSOLUTE_PATH_RE0B3_
FN:114,_RNCNvCshXH78HvVAKk_5bench18FRAGMENT_HEADER_RE0B3_
FN:78,_RNCNvCshXH78HvVAKk_5bench18REGRESSION_HARD_RE0B3_
FN:67,_RNCNvCshXH78HvVAKk_5bench18REGRESSION_SOFT_RE0B3_
FN:95,_RNCNvCshXH78HvVAKk_5bench26SUMMARY_REGRESSION_HARD_RE0B3_
FN:87,_RNCNvCshXH78HvVAKk_5bench26SUMMARY_REGRESSION_SOFT_RE0B3_
FN:132,_RNCNvCshXH78HvVAKk_5bench27ABSOLUTE_PATH_APOSTROPHE_RE0B3_
FN:61,_RNCNvCshXH78HvVAKk_5bench36PROCESS_DID_NOT_EXIT_SUCCESSFULLY_RE0B3_
FN:108,_RNCNvCshXH78HvVAKk_5bench6PID_RE0B3_
FN:466,_RNCNvMCshXH78HvVAKk_5benchNtB4_9Benchmark3new0B4_
FN:680,_RNCNvMCshXH78HvVAKk_5benchNtB4_9Benchmark3run0B4_
FN:700,_RNCNvMCshXH78HvVAKk_5benchNtB4_9Benchmark3runs0_0B4_
FN:726,_RNCNvMCshXH78HvVAKk_5benchNtB4_9Benchmark3runs1_0B4_
FN:742,_RNCNvMCshXH78HvVAKk_5benchNtB4_9Benchmark3runs2_0B4_
FN:772,_RNCNvMCshXH78HvVAKk_5benchNtB4_9Benchmark3runs3_0B4_
FN:689,_RNCNvMCshXH78HvVAKk_5benchNtB4_9Benchmark3runs_0B4_
FN:595,_RNCNvMCshXH78HvVAKk_5benchNtB4_9Benchmark9run_bench0B4_
FN:1318,_RNCNvMs1_CshXH78HvVAKk_5benchNtB7_11ExpectedRun6assert0B7_
FN:1478,_RNCNvMs2_CshXH78HvVAKk_5benchNtB7_8Metadata20compare_rust_version0B7_
FN:1413,_RNCNvMs2_CshXH78HvVAKk_5benchNtB7_8Metadata3new0B7_
FN:1427,_RNCNvMs2_CshXH78HvVAKk_5benchNtB7_8Metadata3news0_0B7_
FN:1433,_RNCNvMs2_CshXH78HvVAKk_5benchNtB7_8Metadata3news1_0B7_
FN:1448,_RNCNvMs2_CshXH78HvVAKk_5benchNtB7_8Metadata3news2_0B7_
FN:1449,_RNCNvMs2_CshXH78HvVAKk_5benchNtB7_8Metadata3news3_0B7_
FN:1459,_RNCNvMs2_CshXH78HvVAKk_5benchNtB7_8Metadata3news4_0B7_
FN:1469,_RNCNvMs2_CshXH78HvVAKk_5benchNtB7_8Metadata3news5_0B7_
FN:1424,_RNCNvMs2_CshXH78HvVAKk_5benchNtB7_8Metadata3news_0B7_
FN:1523,_RNCNvMs3_CshXH78HvVAKk_5benchNtB7_9RunConfig6assert0B7_
FN:1566,_RNCNvMs3_CshXH78HvVAKk_5benchNtB7_9RunConfig6asserts0_0B7_
FN:1543,_RNCNvMs3_CshXH78HvVAKk_5benchNtB7_9RunConfig6asserts_0B7_
FN:1170,_RNCNvMs_CshXH78HvVAKk_5benchNtB6_15BenchmarkOutput13filter_stdout0B6_
FN:1175,_RNCNvMs_CshXH78HvVAKk_5benchNtB6_15BenchmarkOutput13filter_stdouts_0B6_
FN:841,_RNCNvMs_CshXH78HvVAKk_5benchNtB6_15BenchmarkOutput6assert0B6_
FN:886,_RNCNvMs_CshXH78HvVAKk_5benchNtB6_15BenchmarkOutput6asserts_0B6_
FN:1604,_RINvCsgJtVAOCh7CL_5bench10print_infopEB2_
FN:1592,_RINvCsgJtVAOCh7CL_5bench11print_errorpEB2_
FN:701,_RNCNCNvMCsgJtVAOCh7CL_5benchNtB6_9Benchmark3runs0_00B6_
FN:710,_RNCNCNvMCsgJtVAOCh7CL_5benchNtB6_9Benchmark3runs0_0s_0B6_
FN:466,_RNCNvMCsgJtVAOCh7CL_5benchNtB4_9Benchmark3new0B4_
FN:680,_RNCNvMCsgJtVAOCh7CL_5benchNtB4_9Benchmark3run0B4_
FN:700,_RNCNvMCsgJtVAOCh7CL_5benchNtB4_9Benchmark3runs0_0B4_
FN:726,_RNCNvMCsgJtVAOCh7CL_5benchNtB4_9Benchmark3runs1_0B4_
FN:742,_RNCNvMCsgJtVAOCh7CL_5benchNtB4_9Benchmark3runs2_0B4_
FN:772,_RNCNvMCsgJtVAOCh7CL_5benchNtB4_9Benchmark3runs3_0B4_
FN:689,_RNCNvMCsgJtVAOCh7CL_5benchNtB4_9Benchmark3runs_0B4_
FN:595,_RNCNvMCsgJtVAOCh7CL_5benchNtB4_9Benchmark9run_bench0B4_
FN:1318,_RNCNvMs1_CsgJtVAOCh7CL_5benchNtB7_11ExpectedRun6assert0B7_
FN:1478,_RNCNvMs2_CsgJtVAOCh7CL_5benchNtB7_8Metadata20compare_rust_version0B7_
FN:1413,_RNCNvMs2_CsgJtVAOCh7CL_5benchNtB7_8Metadata3new0B7_
FN:1427,_RNCNvMs2_CsgJtVAOCh7CL_5benchNtB7_8Metadata3news0_0B7_
FN:1433,_RNCNvMs2_CsgJtVAOCh7CL_5benchNtB7_8Metadata3news1_0B7_
FN:1448,_RNCNvMs2_CsgJtVAOCh7CL_5benchNtB7_8Metadata3news2_0B7_
FN:1449,_RNCNvMs2_CsgJtVAOCh7CL_5benchNtB7_8Metadata3news3_0B7_
FN:1459,_RNCNvMs2_CsgJtVAOCh7CL_5benchNtB7_8Metadata3news4_0B7_
FN:1469,_RNCNvMs2_CsgJtVAOCh7CL_5benchNtB7_8Metadata3news5_0B7_
FN:1424,_RNCNvMs2_CsgJtVAOCh7CL_5benchNtB7_8Metadata3news_0B7_
FN:1523,_RNCNvMs3_CsgJtVAOCh7CL_5benchNtB7_9RunConfig6assert0B7_
FN:1566,_RNCNvMs3_CsgJtVAOCh7CL_5benchNtB7_9RunConfig6asserts0_0B7_
FN:1543,_RNCNvMs3_CsgJtVAOCh7CL_5benchNtB7_9RunConfig6asserts_0B7_
FN:1170,_RNCNvMs_CsgJtVAOCh7CL_5benchNtB6_15BenchmarkOutput13filter_stdout0B6_
FN:1175,_RNCNvMs_CsgJtVAOCh7CL_5benchNtB6_15BenchmarkOutput13filter_stdouts_0B6_
FN:841,_RNCNvMs_CsgJtVAOCh7CL_5benchNtB6_15BenchmarkOutput6assert0B6_
FN:886,_RNCNvMs_CsgJtVAOCh7CL_5benchNtB6_15BenchmarkOutput6asserts_0B6_
FN:1611,_RNvCsgJtVAOCh7CL_5bench16get_rust_version
FN:1583,_RNvCsgJtVAOCh7CL_5bench21build_gungraun_runner
FN:1615,_RNvCsgJtVAOCh7CL_5bench4main
FN:642,_RNvMCsgJtVAOCh7CL_5benchNtB2_9Benchmark12run_template
FN:809,_RNvMCsgJtVAOCh7CL_5benchNtB2_9Benchmark14reset_template
FN:487,_RNvMCsgJtVAOCh7CL_5benchNtB2_9Benchmark15clean_benchmark
FN:464,_RNvMCsgJtVAOCh7CL_5benchNtB2_9Benchmark3new
FN:672,_RNvMCsgJtVAOCh7CL_5benchNtB2_9Benchmark3run
FN:501,_RNvMCsgJtVAOCh7CL_5benchNtB2_9Benchmark6backup
FN:511,_RNvMCsgJtVAOCh7CL_5benchNtB2_9Benchmark7restore
FN:528,_RNvMCsgJtVAOCh7CL_5benchNtB2_9Benchmark9run_bench
FN:1230,_RNvMs0_CsgJtVAOCh7CL_5benchNtB5_15BenchmarkRunner3new
FN:1241,_RNvMs0_CsgJtVAOCh7CL_5benchNtB5_15BenchmarkRunner3run
FN:1290,_RNvMs1_CsgJtVAOCh7CL_5benchNtB5_11ExpectedRun6assert
FN:1473,_RNvMs2_CsgJtVAOCh7CL_5benchNtB5_8Metadata12get_template
FN:1477,_RNvMs2_CsgJtVAOCh7CL_5benchNtB5_8Metadata20compare_rust_version
FN:1394,_RNvMs2_CsgJtVAOCh7CL_5benchNtB5_8Metadata3new
FN:1500,_RNvMs3_CsgJtVAOCh7CL_5benchNtB5_9RunConfig6assert
FN:1203,_RNvMs_CsgJtVAOCh7CL_5benchNtB4_15BenchmarkOutput11assert_exit
FN:939,_RNvMs_CsgJtVAOCh7CL_5benchNtB4_15BenchmarkOutput13filter_stderr
FN:982,_RNvMs_CsgJtVAOCh7CL_5benchNtB4_15BenchmarkOutput13filter_stdout
FN:919,_RNvMs_CsgJtVAOCh7CL_5benchNtB4_15BenchmarkOutput25normalize_coverage_stdout
FN:816,_RNvMs_CsgJtVAOCh7CL_5benchNtB4_15BenchmarkOutput6assert
FN:103,_RNCNvCsgJtVAOCh7CL_5bench10COMMAND_RE0B3_
FN:110,_RNCNvCsgJtVAOCh7CL_5bench10DETAILS_RE0B3_
FN:45,_RNCNvCsgJtVAOCh7CL_5bench10NUMBERS_RE0B3_
FN:60,_RNCNvCsgJtVAOCh7CL_5bench10RUNNING_RE0B3_
FN:112,_RNCNvCsgJtVAOCh7CL_5bench14NOT_DETAILS_RE0B3_
FN:58,_RNCNvCsgJtVAOCh7CL_5bench15NUMBERS_DIFF_RE0B3_
FN:121,_RNCNvCsgJtVAOCh7CL_5bench15SUMMARY_LINE_RE0B3_
FN:124,_RNCNvCsgJtVAOCh7CL_5bench15THREAD_PANICKED0B3_
FN:118,_RNCNvCsgJtVAOCh7CL_5bench16ABSOLUTE_PATH_RE0B3_
FN:114,_RNCNvCsgJtVAOCh7CL_5bench18FRAGMENT_HEADER_RE0B3_
FN:78,_RNCNvCsgJtVAOCh7CL_5bench18REGRESSION_HARD_RE0B3_
FN:67,_RNCNvCsgJtVAOCh7CL_5bench18REGRESSION_SOFT_RE0B3_
FN:95,_RNCNvCsgJtVAOCh7CL_5bench26SUMMARY_REGRESSION_HARD_RE0B3_
FN:87,_RNCNvCsgJtVAOCh7CL_5bench26SUMMARY_REGRESSION_SOFT_RE0B3_
FN:132,_RNCNvCsgJtVAOCh7CL_5bench27ABSOLUTE_PATH_APOSTROPHE_RE0B3_
FN:61,_RNCNvCsgJtVAOCh7CL_5bench36PROCESS_DID_NOT_EXIT_SUCCESSFULLY_RE0B3_
FN:108,_RNCNvCsgJtVAOCh7CL_5bench6PID_RE0B3_
FNDA:0,_RNvCshXH78HvVAKk_5bench16get_rust_version
FNDA:0,_RNvCshXH78HvVAKk_5bench21build_gungraun_runner
FNDA:0,_RNvCshXH78HvVAKk_5bench4main
FNDA:0,_RNvMCshXH78HvVAKk_5benchNtB2_9Benchmark12run_template
FNDA:0,_RNvMCshXH78HvVAKk_5benchNtB2_9Benchmark14reset_template
FNDA:0,_RNvMCshXH78HvVAKk_5benchNtB2_9Benchmark15clean_benchmark
FNDA:0,_RNvMCshXH78HvVAKk_5benchNtB2_9Benchmark3new
FNDA:0,_RNvMCshXH78HvVAKk_5benchNtB2_9Benchmark3run
FNDA:0,_RNvMCshXH78HvVAKk_5benchNtB2_9Benchmark6backup
FNDA:0,_RNvMCshXH78HvVAKk_5benchNtB2_9Benchmark7restore
FNDA:0,_RNvMCshXH78HvVAKk_5benchNtB2_9Benchmark9run_bench
FNDA:0,_RNvMs0_CshXH78HvVAKk_5benchNtB5_15BenchmarkRunner3new
FNDA:0,_RNvMs0_CshXH78HvVAKk_5benchNtB5_15BenchmarkRunner3run
FNDA:0,_RNvMs1_CshXH78HvVAKk_5benchNtB5_11ExpectedRun6assert
FNDA:0,_RNvMs2_CshXH78HvVAKk_5benchNtB5_8Metadata12get_template
FNDA:0,_RNvMs2_CshXH78HvVAKk_5benchNtB5_8Metadata20compare_rust_version
FNDA:0,_RNvMs2_CshXH78HvVAKk_5benchNtB5_8Metadata3new
FNDA:0,_RNvMs3_CshXH78HvVAKk_5benchNtB5_9RunConfig6assert
FNDA:0,_RNvMs_CshXH78HvVAKk_5benchNtB4_15BenchmarkOutput11assert_exit
FNDA:0,_RNvMs_CshXH78HvVAKk_5benchNtB4_15BenchmarkOutput13filter_stderr
FNDA:0,_RNvMs_CshXH78HvVAKk_5benchNtB4_15BenchmarkOutput13filter_stdout
FNDA:0,_RNvMs_CshXH78HvVAKk_5benchNtB4_15BenchmarkOutput25normalize_coverage_stdout
FNDA:0,_RNvMs_CshXH78HvVAKk_5benchNtB4_15BenchmarkOutput6assert
FNDA:0,_RINvCshXH78HvVAKk_5bench10print_infoNtNtCslNYArtu3iFV_5alloc6string6StringEB2_
FNDA:0,_RINvCshXH78HvVAKk_5bench10print_infoReEB2_
FNDA:0,_RINvCshXH78HvVAKk_5bench11print_errorNtNtCslNYArtu3iFV_5alloc6string6StringEB2_
FNDA:0,_RNCNCNvMCshXH78HvVAKk_5benchNtB6_9Benchmark3runs0_00B6_
FNDA:0,_RNCNCNvMCshXH78HvVAKk_5benchNtB6_9Benchmark3runs0_0s_0B6_
FNDA:0,_RNCNvCshXH78HvVAKk_5bench10COMMAND_RE0B3_
FNDA:0,_RNCNvCshXH78HvVAKk_5bench10DETAILS_RE0B3_
FNDA:0,_RNCNvCshXH78HvVAKk_5bench10NUMBERS_RE0B3_
FNDA:0,_RNCNvCshXH78HvVAKk_5bench10RUNNING_RE0B3_
FNDA:0,_RNCNvCshXH78HvVAKk_5bench14NOT_DETAILS_RE0B3_
FNDA:0,_RNCNvCshXH78HvVAKk_5bench15NUMBERS_DIFF_RE0B3_
FNDA:0,_RNCNvCshXH78HvVAKk_5bench15SUMMARY_LINE_RE0B3_
FNDA:0,_RNCNvCshXH78HvVAKk_5bench15THREAD_PANICKED0B3_
FNDA:0,_RNCNvCshXH78HvVAKk_5bench16ABSOLUTE_PATH_RE0B3_
FNDA:0,_RNCNvCshXH78HvVAKk_5bench18FRAGMENT_HEADER_RE0B3_
FNDA:0,_RNCNvCshXH78HvVAKk_5bench18REGRESSION_HARD_RE0B3_
FNDA:0,_RNCNvCshXH78HvVAKk_5bench18REGRESSION_SOFT_RE0B3_
FNDA:0,_RNCNvCshXH78HvVAKk_5bench26SUMMARY_REGRESSION_HARD_RE0B3_
FNDA:0,_RNCNvCshXH78HvVAKk_5bench26SUMMARY_REGRESSION_SOFT_RE0B3_
FNDA:0,_RNCNvCshXH78HvVAKk_5bench27ABSOLUTE_PATH_APOSTROPHE_RE0B3_
FNDA:0,_RNCNvCshXH78HvVAKk_5bench36PROCESS_DID_NOT_EXIT_SUCCESSFULLY_RE0B3_
FNDA:0,_RNCNvCshXH78HvVAKk_5bench6PID_RE0B3_
FNDA:0,_RNCNvMCshXH78HvVAKk_5benchNtB4_9Benchmark3new0B4_
FNDA:0,_RNCNvMCshXH78HvVAKk_5benchNtB4_9Benchmark3run0B4_
FNDA:0,_RNCNvMCshXH78HvVAKk_5benchNtB4_9Benchmark3runs0_0B4_
FNDA:0,_RNCNvMCshXH78HvVAKk_5benchNtB4_9Benchmark3runs1_0B4_
FNDA:0,_RNCNvMCshXH78HvVAKk_5benchNtB4_9Benchmark3runs2_0B4_
FNDA:0,_RNCNvMCshXH78HvVAKk_5benchNtB4_9Benchmark3runs3_0B4_
FNDA:0,_RNCNvMCshXH78HvVAKk_5benchNtB4_9Benchmark3runs_0B4_
FNDA:0,_RNCNvMCshXH78HvVAKk_5benchNtB4_9Benchmark9run_bench0B4_
FNDA:0,_RNCNvMs1_CshXH78HvVAKk_5benchNtB7_11ExpectedRun6assert0B7_
FNDA:0,_RNCNvMs2_CshXH78HvVAKk_5benchNtB7_8Metadata20compare_rust_version0B7_
FNDA:0,_RNCNvMs2_CshXH78HvVAKk_5benchNtB7_8Metadata3new0B7_
FNDA:0,_RNCNvMs2_CshXH78HvVAKk_5benchNtB7_8Metadata3news0_0B7_
FNDA:0,_RNCNvMs2_CshXH78HvVAKk_5benchNtB7_8Metadata3news1_0B7_
FNDA:0,_RNCNvMs2_CshXH78HvVAKk_5benchNtB7_8Metadata3news2_0B7_
FNDA:0,_RNCNvMs2_CshXH78HvVAKk_5benchNtB7_8Metadata3news3_0B7_
FNDA:0,_RNCNvMs2_CshXH78HvVAKk_5benchNtB7_8Metadata3news4_0B7_
FNDA:0,_RNCNvMs2_CshXH78HvVAKk_5benchNtB7_8Metadata3news5_0B7_
FNDA:0,_RNCNvMs2_CshXH78HvVAKk_5benchNtB7_8Metadata3news_0B7_
FNDA:0,_RNCNvMs3_CshXH78HvVAKk_5benchNtB7_9RunConfig6assert0B7_
FNDA:0,_RNCNvMs3_CshXH78HvVAKk_5benchNtB7_9RunConfig6asserts0_0B7_
FNDA:0,_RNCNvMs3_CshXH78HvVAKk_5benchNtB7_9RunConfig6asserts_0B7_
FNDA:0,_RNCNvMs_CshXH78HvVAKk_5benchNtB6_15BenchmarkOutput13filter_stdout0B6_
FNDA:0,_RNCNvMs_CshXH78HvVAKk_5benchNtB6_15BenchmarkOutput13filter_stdouts_0B6_
FNDA:0,_RNCNvMs_CshXH78HvVAKk_5benchNtB6_15BenchmarkOutput6assert0B6_
FNDA:0,_RNCNvMs_CshXH78HvVAKk_5benchNtB6_15BenchmarkOutput6asserts_0B6_
FNDA:0,_RINvCsgJtVAOCh7CL_5bench10print_infopEB2_
FNDA:0,_RINvCsgJtVAOCh7CL_5bench11print_errorpEB2_
FNDA:0,_RNCNCNvMCsgJtVAOCh7CL_5benchNtB6_9Benchmark3runs0_00B6_
FNDA:0,_RNCNCNvMCsgJtVAOCh7CL_5benchNtB6_9Benchmark3runs0_0s_0B6_
FNDA:0,_RNCNvMCsgJtVAOCh7CL_5benchNtB4_9Benchmark3new0B4_
FNDA:0,_RNCNvMCsgJtVAOCh7CL_5benchNtB4_9Benchmark3run0B4_
FNDA:0,_RNCNvMCsgJtVAOCh7CL_5benchNtB4_9Benchmark3runs0_0B4_
FNDA:0,_RNCNvMCsgJtVAOCh7CL_5benchNtB4_9Benchmark3runs1_0B4_
FNDA:0,_RNCNvMCsgJtVAOCh7CL_5benchNtB4_9Benchmark3runs2_0B4_
FNDA:0,_RNCNvMCsgJtVAOCh7CL_5benchNtB4_9Benchmark3runs3_0B4_
FNDA:0,_RNCNvMCsgJtVAOCh7CL_5benchNtB4_9Benchmark3runs_0B4_
FNDA:0,_RNCNvMCsgJtVAOCh7CL_5benchNtB4_9Benchmark9run_bench0B4_
FNDA:0,_RNCNvMs1_CsgJtVAOCh7CL_5benchNtB7_11ExpectedRun6assert0B7_
FNDA:0,_RNCNvMs2_CsgJtVAOCh7CL_5benchNtB7_8Metadata20compare_rust_version0B7_
FNDA:0,_RNCNvMs2_CsgJtVAOCh7CL_5benchNtB7_8Metadata3new0B7_
FNDA:0,_RNCNvMs2_CsgJtVAOCh7CL_5benchNtB7_8Metadata3news0_0B7_
FNDA:0,_RNCNvMs2_CsgJtVAOCh7CL_5benchNtB7_8Metadata3news1_0B7_
FNDA:0,_RNCNvMs2_CsgJtVAOCh7CL_5benchNtB7_8Metadata3news2_0B7_
FNDA:0,_RNCNvMs2_CsgJtVAOCh7CL_5benchNtB7_8Metadata3news3_0B7_
FNDA:0,_RNCNvMs2_CsgJtVAOCh7CL_5benchNtB7_8Metadata3news4_0B7_
FNDA:0,_RNCNvMs2_CsgJtVAOCh7CL_5benchNtB7_8Metadata3news5_0B7_
FNDA:0,_RNCNvMs2_CsgJtVAOCh7CL_5benchNtB7_8Metadata3news_0B7_
FNDA:0,_RNCNvMs3_CsgJtVAOCh7CL_5benchNtB7_9RunConfig6assert0B7_
FNDA:0,_RNCNvMs3_CsgJtVAOCh7CL_5benchNtB7_9RunConfig6asserts0_0B7_
FNDA:0,_RNCNvMs3_CsgJtVAOCh7CL_5benchNtB7_9RunConfig6asserts_0B7_
FNDA:0,_RNCNvMs_CsgJtVAOCh7CL_5benchNtB6_15BenchmarkOutput13filter_stdout0B6_
FNDA:0,_RNCNvMs_CsgJtVAOCh7CL_5benchNtB6_15BenchmarkOutput13filter_stdouts_0B6_
FNDA:0,_RNCNvMs_CsgJtVAOCh7CL_5benchNtB6_15BenchmarkOutput6assert0B6_
FNDA:0,_RNCNvMs_CsgJtVAOCh7CL_5benchNtB6_15BenchmarkOutput6asserts_0B6_
FNDA:0,_RNvCsgJtVAOCh7CL_5bench16get_rust_version
FNDA:0,_RNvCsgJtVAOCh7CL_5bench21build_gungraun_runner
FNDA:0,_RNvCsgJtVAOCh7CL_5bench4main
FNDA:0,_RNvMCsgJtVAOCh7CL_5benchNtB2_9Benchmark12run_template
FNDA:0,_RNvMCsgJtVAOCh7CL_5benchNtB2_9Benchmark14reset_template
FNDA:0,_RNvMCsgJtVAOCh7CL_5benchNtB2_9Benchmark15clean_benchmark
FNDA:0,_RNvMCsgJtVAOCh7CL_5benchNtB2_9Benchmark3new
FNDA:0,_RNvMCsgJtVAOCh7CL_5benchNtB2_9Benchmark3run
FNDA:0,_RNvMCsgJtVAOCh7CL_5benchNtB2_9Benchmark6backup
FNDA:0,_RNvMCsgJtVAOCh7CL_5benchNtB2_9Benchmark7restore
FNDA:0,_RNvMCsgJtVAOCh7CL_5benchNtB2_9Benchmark9run_bench
FNDA:0,_RNvMs0_CsgJtVAOCh7CL_5benchNtB5_15BenchmarkRunner3new
FNDA:0,_RNvMs0_CsgJtVAOCh7CL_5benchNtB5_15BenchmarkRunner3run
FNDA:0,_RNvMs1_CsgJtVAOCh7CL_5benchNtB5_11ExpectedRun6assert
FNDA:0,_RNvMs2_CsgJtVAOCh7CL_5benchNtB5_8Metadata12get_template
FNDA:0,_RNvMs2_CsgJtVAOCh7CL_5benchNtB5_8Metadata20compare_rust_version
FNDA:0,_RNvMs2_CsgJtVAOCh7CL_5benchNtB5_8Metadata3new
FNDA:0,_RNvMs3_CsgJtVAOCh7CL_5benchNtB5_9RunConfig6assert
FNDA:0,_RNvMs_CsgJtVAOCh7CL_5benchNtB4_15BenchmarkOutput11assert_exit
FNDA:0,_RNvMs_CsgJtVAOCh7CL_5benchNtB4_15BenchmarkOutput13filter_stderr
FNDA:0,_RNvMs_CsgJtVAOCh7CL_5benchNtB4_15BenchmarkOutput13filter_stdout
FNDA:0,_RNvMs_CsgJtVAOCh7CL_5benchNtB4_15BenchmarkOutput25normalize_coverage_stdout
FNDA:0,_RNvMs_CsgJtVAOCh7CL_5benchNtB4_15BenchmarkOutput6assert
FNDA:2,_RNCNvCsgJtVAOCh7CL_5bench10COMMAND_RE0B3_
FNDA:0,_RNCNvCsgJtVAOCh7CL_5bench10DETAILS_RE0B3_
FNDA:0,_RNCNvCsgJtVAOCh7CL_5bench10NUMBERS_RE0B3_
FNDA:0,_RNCNvCsgJtVAOCh7CL_5bench10RUNNING_RE0B3_
FNDA:0,_RNCNvCsgJtVAOCh7CL_5bench14NOT_DETAILS_RE0B3_
FNDA:0,_RNCNvCsgJtVAOCh7CL_5bench15NUMBERS_DIFF_RE0B3_
FNDA:0,_RNCNvCsgJtVAOCh7CL_5bench15SUMMARY_LINE_RE0B3_
FNDA:0,_RNCNvCsgJtVAOCh7CL_5bench15THREAD_PANICKED0B3_
FNDA:6,_RNCNvCsgJtVAOCh7CL_5bench16ABSOLUTE_PATH_RE0B3_
FNDA:0,_RNCNvCsgJtVAOCh7CL_5bench18FRAGMENT_HEADER_RE0B3_
FNDA:0,_RNCNvCsgJtVAOCh7CL_5bench18REGRESSION_HARD_RE0B3_
FNDA:1,_RNCNvCsgJtVAOCh7CL_5bench18REGRESSION_SOFT_RE0B3_
FNDA:0,_RNCNvCsgJtVAOCh7CL_5bench26SUMMARY_REGRESSION_HARD_RE0B3_
FNDA:0,_RNCNvCsgJtVAOCh7CL_5bench26SUMMARY_REGRESSION_SOFT_RE0B3_
FNDA:4,_RNCNvCsgJtVAOCh7CL_5bench27ABSOLUTE_PATH_APOSTROPHE_RE0B3_
FNDA:0,_RNCNvCsgJtVAOCh7CL_5bench36PROCESS_DID_NOT_EXIT_SUCCESSFULLY_RE0B3_
FNDA:0,_RNCNvCsgJtVAOCh7CL_5bench6PID_RE0B3_
FNF:69
FNH:4
DA:45,0
DA:46,0
DA:47,0
DA:48,0
DA:49,0
DA:50,0
DA:51,0
DA:52,0
DA:54,0
DA:55,0
DA:58,0
DA:60,0
DA:61,0
DA:62,0
DA:63,0
DA:64,0
DA:67,1
DA:68,1
DA:69,1
DA:70,1
DA:71,1
DA:72,1
DA:73,1
DA:74,1
DA:76,1
DA:77,1
DA:78,0
DA:79,0
DA:83,0
DA:84,0
DA:87,0
DA:88,0
DA:92,0
DA:93,0
DA:95,0
DA:96,0
DA:100,0
DA:101,0
DA:103,2
DA:104,2
DA:105,2
DA:106,2
DA:108,0
DA:110,0
DA:112,0
DA:114,0
DA:115,0
DA:116,0
DA:118,6
DA:121,0
DA:122,0
DA:123,0
DA:124,0
DA:125,0
DA:129,0
DA:130,0
DA:132,4
DA:464,0
DA:465,0
DA:466,0
DA:467,0
DA:469,0
DA:470,0
DA:471,0
DA:472,0
DA:474,0
DA:477,0
DA:478,0
DA:479,0
DA:480,0
DA:481,0
DA:482,0
DA:483,0
DA:484,0
DA:485,0
DA:487,0
DA:488,0
DA:489,0
DA:490,0
DA:491,0
DA:492,0
DA:493,0
DA:494,0
DA:495,0
DA:496,0
DA:497,0
DA:498,0
DA:499,0
DA:501,0
DA:502,0
DA:503,0
DA:504,0
DA:505,0
DA:507,0
DA:509,0
DA:511,0
DA:512,0
DA:514,0
DA:515,0
DA:516,0
DA:517,0
DA:518,0
DA:519,0
DA:520,0
DA:521,0
DA:522,0
DA:523,0
DA:524,0
DA:525,0
DA:528,0
DA:529,0
DA:530,0
DA:531,0
DA:532,0
DA:533,0
DA:534,0
DA:535,0
DA:536,0
DA:537,0
DA:538,0
DA:539,0
DA:540,0
DA:541,0
DA:542,0
DA:543,0
DA:544,0
DA:545,0
DA:546,0
DA:548,0
DA:549,0
DA:550,0
DA:553,0
DA:554,0
DA:555,0
DA:556,0
DA:557,0
DA:558,0
DA:559,0
DA:560,0
DA:561,0
DA:562,0
DA:563,0
DA:564,0
DA:567,0
DA:568,0
DA:569,0
DA:570,0
DA:572,0
DA:573,0
DA:574,0
DA:575,0
DA:577,0
DA:578,0
DA:579,0
DA:587,0
DA:588,0
DA:589,0
DA:590,0
DA:592,0
DA:593,0
DA:594,0
DA:595,0
DA:596,0
DA:597,0
DA:598,0
DA:599,0
DA:600,0
DA:601,0
DA:602,0
DA:603,0
DA:604,0
DA:605,0
DA:606,0
DA:607,0
DA:608,0
DA:609,0
DA:610,0
DA:612,0
DA:613,0
DA:614,0
DA:615,0
DA:616,0
DA:618,0
DA:619,0
DA:620,0
DA:621,0
DA:623,0
DA:624,0
DA:625,0
DA:626,0
DA:627,0
DA:628,0
DA:630,0
DA:631,0
DA:632,0
DA:633,0
DA:635,0
DA:636,0
DA:637,0
DA:638,0
DA:639,0
DA:642,0
DA:643,0
DA:644,0
DA:645,0
DA:646,0
DA:647,0
DA:648,0
DA:649,0
DA:650,0
DA:651,0
DA:652,0
DA:653,0
DA:654,0
DA:655,0
DA:656,0
DA:657,0
DA:658,0
DA:659,0
DA:661,0
DA:662,0
DA:663,0
DA:664,0
DA:666,0
DA:667,0
DA:669,0
DA:670,0
DA:672,0
DA:673,0
DA:674,0
DA:675,0
DA:676,0
DA:677,0
DA:678,0
DA:679,0
DA:680,0
DA:681,0
DA:682,0
DA:684,0
DA:686,0
DA:687,0
DA:688,0
DA:689,0
DA:691,0
DA:692,0
DA:694,0
DA:696,0
DA:697,0
DA:698,0
DA:699,0
DA:700,0
DA:701,0
DA:702,0
DA:703,0
DA:705,0
DA:707,0
DA:708,0
DA:709,0
DA:710,0
DA:711,0
DA:712,0
DA:714,0
DA:715,0
DA:717,0
DA:718,0
DA:720,0
DA:721,0
DA:722,0
DA:726,0
DA:727,0
DA:728,0
DA:729,0
DA:731,0
DA:732,0
DA:733,0
DA:735,0
DA:736,0
DA:737,0
DA:739,0
DA:740,0
DA:741,0
DA:742,0
DA:744,0
DA:745,0
DA:746,0
DA:747,0
DA:748,0
DA:749,0
DA:750,0
DA:751,0
DA:752,0
DA:753,0
DA:754,0
DA:755,0
DA:757,0
DA:758,0
DA:760,0
DA:761,0
DA:762,0
DA:763,0
DA:764,0
DA:765,0
DA:766,0
DA:767,0
DA:771,0
DA:772,0
DA:773,0
DA:774,0
DA:775,0
DA:776,0
DA:777,0
DA:778,0
DA:779,0
DA:781,0
DA:782,0
DA:784,0
DA:785,0
DA:786,0
DA:787,0
DA:788,0
DA:789,0
DA:790,0
DA:791,0
DA:792,0
DA:794,0
DA:795,0
DA:796,0
DA:797,0
DA:798,0
DA:799,0
DA:800,0
DA:805,0
DA:807,0
DA:809,0
DA:810,0
DA:811,0
DA:812,0
DA:816,0
DA:817,0
DA:819,0
DA:820,0
DA:821,0
DA:822,0
DA:824,0
DA:825,0
DA:826,0
DA:827,0
DA:828,0
DA:829,0
DA:831,0
DA:832,0
DA:833,0
DA:834,0
DA:835,0
DA:836,0
DA:838,0
DA:839,0
DA:841,0
DA:842,0
DA:843,0
DA:844,0
DA:845,0
DA:846,0
DA:847,0
DA:848,0
DA:849,0
DA:850,0
DA:851,0
DA:852,0
DA:853,0
DA:854,0
DA:855,0
DA:856,0
DA:858,0
DA:859,0
DA:861,0
DA:863,0
DA:865,0
DA:867,0
DA:869,0
DA:870,0
DA:871,0
DA:872,0
DA:873,0
DA:874,0
DA:876,0
DA:877,0
DA:878,0
DA:879,0
DA:880,0
DA:881,0
DA:883,0
DA:884,0
DA:886,0
DA:887,0
DA:888,0
DA:889,0
DA:890,0
DA:891,0
DA:892,0
DA:893,0
DA:894,0
DA:895,0
DA:896,0
DA:897,0
DA:898,0
DA:899,0
DA:900,0
DA:901,0
DA:903,0
DA:904,0
DA:905,0
DA:906,0
DA:908,0
DA:909,0
DA:911,0
DA:913,0
DA:914,0
DA:916,0
DA:917,0
DA:919,0
DA:920,0
DA:921,0
DA:922,0
DA:923,0
DA:925,0
DA:928,0
DA:929,0
DA:931,0
DA:934,0
DA:936,0
DA:937,0
DA:939,0
DA:940,0
DA:941,0
DA:942,0
DA:943,0
DA:944,0
DA:945,0
DA:946,0
DA:947,0
DA:948,0
DA:949,0
DA:950,0
DA:951,0
DA:952,0
DA:953,0
DA:954,0
DA:955,0
DA:956,0
DA:958,0
DA:959,0
DA:960,0
DA:961,0
DA:962,0
DA:963,0
DA:965,0
DA:967,0
DA:969,0
DA:972,0
DA:973,0
DA:974,0
DA:975,0
DA:976,0
DA:977,0
DA:979,0
DA:980,0
DA:982,0
DA:983,0
DA:984,0
DA:985,0
DA:986,0
DA:987,0
DA:989,0
DA:992,0
DA:993,0
DA:994,0
DA:995,0
DA:996,0
DA:997,0
DA:999,0
DA:1001,0
DA:1003,0
DA:1006,0
DA:1037,0
DA:1038,0
DA:1039,0
DA:1040,0
DA:1041,0
DA:1043,0
DA:1044,0
DA:1045,0
DA:1046,0
DA:1047,0
DA:1049,0
DA:1050,0
DA:1051,0
DA:1052,0
DA:1053,0
DA:1054,0
DA:1055,0
DA:1057,0
DA:1060,0
DA:1061,0
DA:1062,0
DA:1063,0
DA:1065,0
DA:1068,0
DA:1090,0
DA:1091,0
DA:1092,0
DA:1093,0
DA:1094,0
DA:1095,0
DA:1097,0
DA:1098,0
DA:1100,0
DA:1101,0
DA:1103,0
DA:1104,0
DA:1105,0
DA:1106,0
DA:1107,0
DA:1108,0
DA:1109,0
DA:1110,0
DA:1111,0
DA:1113,0
DA:1114,0
DA:1115,0
DA:1116,0
DA:1117,0
DA:1119,0
DA:1120,0
DA:1121,0
DA:1122,0
DA:1123,0
DA:1124,0
DA:1125,0
DA:1126,0
DA:1127,0
DA:1128,0
DA:1129,0
DA:1130,0
DA:1131,0
DA:1132,0
DA:1133,0
DA:1134,0
DA:1136,0
DA:1137,0
DA:1138,0
DA:1139,0
DA:1140,0
DA:1141,0
DA:1142,0
DA:1143,0
DA:1144,0
DA:1145,0
DA:1146,0
DA:1147,0
DA:1148,0
DA:1149,0
DA:1150,0
DA:1151,0
DA:1152,0
DA:1153,0
DA:1154,0
DA:1156,0
DA:1158,0
DA:1160,0
DA:1163,0
DA:1166,0
DA:1170,0
DA:1171,0
DA:1172,0
DA:1175,0
DA:1176,0
DA:1177,0
DA:1178,0
DA:1179,0
DA:1181,0
DA:1184,0
DA:1186,0
DA:1187,0
DA:1188,0
DA:1189,0
DA:1190,0
DA:1192,0
DA:1193,0
DA:1195,0
DA:1196,0
DA:1200,0
DA:1201,0
DA:1203,0
DA:1204,0
DA:1205,0
DA:1206,0
DA:1207,0
DA:1212,0
DA:1216,0
DA:1218,0
DA:1221,0
DA:1222,0
DA:1226,0
DA:1230,0
DA:1231,0
DA:1232,0
DA:1233,0
DA:1234,0
DA:1235,0
DA:1236,0
DA:1237,0
DA:1238,0
DA:1239,0
DA:1241,0
DA:1245,0
DA:1248,0
DA:1250,0
DA:1251,0
DA:1252,0
DA:1256,0
DA:1257,0
DA:1258,0
DA:1259,0
DA:1260,0
DA:1261,0
DA:1263,0
DA:1265,0
DA:1266,0
DA:1267,0
DA:1269,0
DA:1271,0
DA:1272,0
DA:1273,0
DA:1274,0
DA:1275,0
DA:1278,0
DA:1279,0
DA:1280,0
DA:1281,0
DA:1282,0
DA:1283,0
DA:1285,0
DA:1286,0
DA:1290,0
DA:1291,0
DA:1292,0
DA:1293,0
DA:1294,0
DA:1296,0
DA:1297,0
DA:1299,0
DA:1301,0
DA:1303,0
DA:1306,0
DA:1307,0
DA:1309,0
DA:1312,0
DA:1313,0
DA:1314,0
DA:1315,0
DA:1317,0
DA:1318,0
DA:1319,0
DA:1320,0
DA:1321,0
DA:1322,0
DA:1323,0
DA:1325,0
DA:1326,0
DA:1328,0
DA:1330,0
DA:1331,0
DA:1334,0
DA:1338,0
DA:1339,0
DA:1340,0
DA:1341,0
DA:1342,0
DA:1343,0
DA:1345,0
DA:1346,0
DA:1350,0
DA:1353,0
DA:1354,0
DA:1355,0
DA:1356,0
DA:1357,0
DA:1358,0
DA:1359,0
DA:1363,0
DA:1364,0
DA:1365,0
DA:1366,0
DA:1367,0
DA:1368,0
DA:1369,0
DA:1370,0
DA:1372,0
DA:1373,0
DA:1374,0
DA:1375,0
DA:1376,0
DA:1377,0
DA:1378,0
DA:1382,0
DA:1384,0
DA:1385,0
DA:1387,0
DA:1390,0
DA:1394,0
DA:1395,0
DA:1396,0
DA:1397,0
DA:1398,0
DA:1399,0
DA:1400,0
DA:1401,0
DA:1402,0
DA:1403,0
DA:1405,0
DA:1406,0
DA:1407,0
DA:1408,0
DA:1410,0
DA:1411,0
DA:1412,0
DA:1413,0
DA:1414,0
DA:1415,0
DA:1416,0
DA:1417,0
DA:1418,0
DA:1419,0
DA:1421,0
DA:1423,0
DA:1424,0
DA:1425,0
DA:1427,0
DA:1428,0
DA:1429,0
DA:1430,0
DA:1431,0
DA:1432,0
DA:1433,0
DA:1434,0
DA:1435,0
DA:1439,0
DA:1440,0
DA:1441,0
DA:1442,0
DA:1443,0
DA:1444,0
DA:1446,0
DA:1447,0
DA:1448,0
DA:1449,0
DA:1450,0
DA:1453,0
DA:1454,0
DA:1456,0
DA:1457,0
DA:1458,0
DA:1459,0
DA:1461,0
DA:1464,0
DA:1465,0
DA:1466,0
DA:1467,0
DA:1468,0
DA:1469,0
DA:1471,0
DA:1473,0
DA:1474,0
DA:1475,0
DA:1477,0
DA:1478,0
DA:1479,0
DA:1481,0
DA:1482,0
DA:1483,0
DA:1484,0
DA:1485,0
DA:1486,0
DA:1488,0
DA:1489,0
DA:1490,0
DA:1491,0
DA:1496,0
DA:1500,0
DA:1501,0
DA:1502,0
DA:1503,0
DA:1504,0
DA:1505,0
DA:1506,0
DA:1507,0
DA:1508,0
DA:1509,0
DA:1510,0
DA:1511,0
DA:1512,0
DA:1513,0
DA:1514,0
DA:1515,0
DA:1516,0
DA:1517,0
DA:1519,0
DA:1520,0
DA:1521,0
DA:1523,0
DA:1524,0
DA:1526,0
DA:1527,0
DA:1529,0
DA:1532,0
DA:1533,0
DA:1534,0
DA:1535,0
DA:1536,0
DA:1537,0
DA:1539,0
DA:1540,0
DA:1541,0
DA:1542,0
DA:1543,0
DA:1544,0
DA:1545,0
DA:1546,0
DA:1547,0
DA:1548,0
DA:1550,0
DA:1552,0
DA:1553,0
DA:1554,0
DA:1555,0
DA:1556,0
DA:1557,0
DA:1558,0
DA:1559,0
DA:1560,0
DA:1561,0
DA:1563,0
DA:1564,0
DA:1565,0
DA:1566,0
DA:1568,0
DA:1571,0
DA:1572,0
DA:1573,0
DA:1574,0
DA:1575,0
DA:1576,0
DA:1577,0
DA:1578,0
DA:1579,0
DA:1580,0
DA:1583,0
DA:1584,0
DA:1585,0
DA:1586,0
DA:1587,0
DA:1588,0
DA:1589,0
DA:1590,0
DA:1592,0
DA:1593,0
DA:1594,0
DA:1596,0
DA:1598,0
DA:1599,0
DA:1600,0
DA:1602,0
DA:1604,0
DA:1605,0
DA:1606,0
DA:1608,0
DA:1609,0
DA:1611,0
DA:1612,0
DA:1613,0
DA:1615,0
DA:1616,0
DA:1617,0
DA:1618,0
DA:1619,0
DA:1620,0
DA:1621,0
DA:1622,0
DA:1623,0
DA:1624,0
DA:1625,0
DA:1626,0
DA:1627,0
DA:1628,0
DA:1629,0
DA:1630,0
DA:1631,0
DA:1632,0
DA:1635,0
DA:1636,0
DA:1639,0
DA:1641,0
DA:1644,0
DA:1645,0
DA:1646,0
DA:1650,0
DA:1652,0
DA:1653,0
DA:1654,0
DA:1655,0
DA:1656,0
DA:1657,0
DA:1658,0
DA:1659,0
DA:1660,0
DA:1661,0
DA:1665,0
DA:1667,0
DA:1668,0
DA:1669,0
DA:1670,0
BRF:0
BRH:0
LF:951
LH:16
end_of_record
SF:/fast/lenny/workspace/programming/gungraun/gungraun/benchmark-tests/src/common.rs
FN:29,_RNvMNtCsb039c427Ago_15benchmark_tests6commonNtB2_7Summary25assert_costs_not_all_zero
FN:13,_RNvMNtCsb039c427Ago_15benchmark_tests6commonNtB2_7Summary3new
FN:20,_RNvMNtCsb039c427Ago_15benchmark_tests6commonNtB2_7Summary8get_name
FN:50,_RNCNvMNtCsb039c427Ago_15benchmark_tests6commonNtB4_7Summary25assert_costs_not_all_zeros0_0B6_
FN:57,_RNCNvMNtCsb039c427Ago_15benchmark_tests6commonNtB4_7Summary25assert_costs_not_all_zeros1_0B6_
FN:62,_RNCNvMNtCsb039c427Ago_15benchmark_tests6commonNtB4_7Summary25assert_costs_not_all_zeros2_0B6_
FN:73,_RNCNvMNtCsb039c427Ago_15benchmark_tests6commonNtB4_7Summary25assert_costs_not_all_zeros3_0B6_
FN:80,_RNCNvMNtCsb039c427Ago_15benchmark_tests6commonNtB4_7Summary25assert_costs_not_all_zeros4_0B6_
FN:87,_RNCNvMNtCsb039c427Ago_15benchmark_tests6commonNtB4_7Summary25assert_costs_not_all_zeros5_0B6_
FN:92,_RNCNvMNtCsb039c427Ago_15benchmark_tests6commonNtB4_7Summary25assert_costs_not_all_zeros6_0B6_
FN:103,_RNCNvMNtCsb039c427Ago_15benchmark_tests6commonNtB4_7Summary25assert_costs_not_all_zeros7_0B6_
FN:110,_RNCNvMNtCsb039c427Ago_15benchmark_tests6commonNtB4_7Summary25assert_costs_not_all_zeros8_0B6_
FN:117,_RNCNvMNtCsb039c427Ago_15benchmark_tests6commonNtB4_7Summary25assert_costs_not_all_zeros9_0B6_
FN:43,_RNCNvMNtCsb039c427Ago_15benchmark_tests6commonNtB4_7Summary25assert_costs_not_all_zeros_0B6_
FN:122,_RNCNvMNtCsb039c427Ago_15benchmark_tests6commonNtB4_7Summary25assert_costs_not_all_zerosa_0B6_
FN:17,_RNCNvMNtCsb039c427Ago_15benchmark_tests6commonNtB4_7Summary3new0B6_
FN:50,_RNCNvMNtCs8nIoALFZEAc_15benchmark_tests6commonNtB4_7Summary25assert_costs_not_all_zeros0_0B6_
FN:57,_RNCNvMNtCs8nIoALFZEAc_15benchmark_tests6commonNtB4_7Summary25assert_costs_not_all_zeros1_0B6_
FN:62,_RNCNvMNtCs8nIoALFZEAc_15benchmark_tests6commonNtB4_7Summary25assert_costs_not_all_zeros2_0B6_
FN:73,_RNCNvMNtCs8nIoALFZEAc_15benchmark_tests6commonNtB4_7Summary25assert_costs_not_all_zeros3_0B6_
FN:80,_RNCNvMNtCs8nIoALFZEAc_15benchmark_tests6commonNtB4_7Summary25assert_costs_not_all_zeros4_0B6_
FN:87,_RNCNvMNtCs8nIoALFZEAc_15benchmark_tests6commonNtB4_7Summary25assert_costs_not_all_zeros5_0B6_
FN:92,_RNCNvMNtCs8nIoALFZEAc_15benchmark_tests6commonNtB4_7Summary25assert_costs_not_all_zeros6_0B6_
FN:103,_RNCNvMNtCs8nIoALFZEAc_15benchmark_tests6commonNtB4_7Summary25assert_costs_not_all_zeros7_0B6_
FN:110,_RNCNvMNtCs8nIoALFZEAc_15benchmark_tests6commonNtB4_7Summary25assert_costs_not_all_zeros8_0B6_
FN:117,_RNCNvMNtCs8nIoALFZEAc_15benchmark_tests6commonNtB4_7Summary25assert_costs_not_all_zeros9_0B6_
FN:43,_RNCNvMNtCs8nIoALFZEAc_15benchmark_tests6commonNtB4_7Summary25assert_costs_not_all_zeros_0B6_
FN:122,_RNCNvMNtCs8nIoALFZEAc_15benchmark_tests6commonNtB4_7Summary25assert_costs_not_all_zerosa_0B6_
FN:17,_RNCNvMNtCs8nIoALFZEAc_15benchmark_tests6commonNtB4_7Summary3new0B6_
FN:29,_RNvMNtCs8nIoALFZEAc_15benchmark_tests6commonNtB2_7Summary25assert_costs_not_all_zero
FN:13,_RNvMNtCs8nIoALFZEAc_15benchmark_tests6commonNtB2_7Summary3new
FN:20,_RNvMNtCs8nIoALFZEAc_15benchmark_tests6commonNtB2_7Summary8get_name
FNDA:0,_RNvMNtCsb039c427Ago_15benchmark_tests6commonNtB2_7Summary25assert_costs_not_all_zero
FNDA:0,_RNvMNtCsb039c427Ago_15benchmark_tests6commonNtB2_7Summary3new
FNDA:0,_RNvMNtCsb039c427Ago_15benchmark_tests6commonNtB2_7Summary8get_name
FNDA:0,_RNCNvMNtCsb039c427Ago_15benchmark_tests6commonNtB4_7Summary25assert_costs_not_all_zeros0_0B6_
FNDA:0,_RNCNvMNtCsb039c427Ago_15benchmark_tests6commonNtB4_7Summary25assert_costs_not_all_zeros1_0B6_
FNDA:0,_RNCNvMNtCsb039c427Ago_15benchmark_tests6commonNtB4_7Summary25assert_costs_not_all_zeros2_0B6_
FNDA:0,_RNCNvMNtCsb039c427Ago_15benchmark_tests6commonNtB4_7Summary25assert_costs_not_all_zeros3_0B6_
FNDA:0,_RNCNvMNtCsb039c427Ago_15benchmark_tests6commonNtB4_7Summary25assert_costs_not_all_zeros4_0B6_
FNDA:0,_RNCNvMNtCsb039c427Ago_15benchmark_tests6commonNtB4_7Summary25assert_costs_not_all_zeros5_0B6_
FNDA:0,_RNCNvMNtCsb039c427Ago_15benchmark_tests6commonNtB4_7Summary25assert_costs_not_all_zeros6_0B6_
FNDA:0,_RNCNvMNtCsb039c427Ago_15benchmark_tests6commonNtB4_7Summary25assert_costs_not_all_zeros7_0B6_
FNDA:0,_RNCNvMNtCsb039c427Ago_15benchmark_tests6commonNtB4_7Summary25assert_costs_not_all_zeros8_0B6_
FNDA:0,_RNCNvMNtCsb039c427Ago_15benchmark_tests6commonNtB4_7Summary25assert_costs_not_all_zeros9_0B6_
FNDA:0,_RNCNvMNtCsb039c427Ago_15benchmark_tests6commonNtB4_7Summary25assert_costs_not_all_zeros_0B6_
FNDA:0,_RNCNvMNtCsb039c427Ago_15benchmark_tests6commonNtB4_7Summary25assert_costs_not_all_zerosa_0B6_
FNDA:0,_RNCNvMNtCsb039c427Ago_15benchmark_tests6commonNtB4_7Summary3new0B6_
FNDA:0,_RNCNvMNtCs8nIoALFZEAc_15benchmark_tests6commonNtB4_7Summary25assert_costs_not_all_zeros0_0B6_
FNDA:0,_RNCNvMNtCs8nIoALFZEAc_15benchmark_tests6commonNtB4_7Summary25assert_costs_not_all_zeros1_0B6_
FNDA:0,_RNCNvMNtCs8nIoALFZEAc_15benchmark_tests6commonNtB4_7Summary25assert_costs_not_all_zeros2_0B6_
FNDA:0,_RNCNvMNtCs8nIoALFZEAc_15benchmark_tests6commonNtB4_7Summary25assert_costs_not_all_zeros3_0B6_
FNDA:0,_RNCNvMNtCs8nIoALFZEAc_15benchmark_tests6commonNtB4_7Summary25assert_costs_not_all_zeros4_0B6_
FNDA:0,_RNCNvMNtCs8nIoALFZEAc_15benchmark_tests6commonNtB4_7Summary25assert_costs_not_all_zeros5_0B6_
FNDA:0,_RNCNvMNtCs8nIoALFZEAc_15benchmark_tests6commonNtB4_7Summary25assert_costs_not_all_zeros6_0B6_
FNDA:0,_RNCNvMNtCs8nIoALFZEAc_15benchmark_tests6commonNtB4_7Summary25assert_costs_not_all_zeros7_0B6_
FNDA:0,_RNCNvMNtCs8nIoALFZEAc_15benchmark_tests6commonNtB4_7Summary25assert_costs_not_all_zeros8_0B6_
FNDA:0,_RNCNvMNtCs8nIoALFZEAc_15benchmark_tests6commonNtB4_7Summary25assert_costs_not_all_zeros9_0B6_
FNDA:0,_RNCNvMNtCs8nIoALFZEAc_15benchmark_tests6commonNtB4_7Summary25assert_costs_not_all_zeros_0B6_
FNDA:0,_RNCNvMNtCs8nIoALFZEAc_15benchmark_tests6commonNtB4_7Summary25assert_costs_not_all_zerosa_0B6_
FNDA:0,_RNCNvMNtCs8nIoALFZEAc_15benchmark_tests6commonNtB4_7Summary3new0B6_
FNDA:0,_RNvMNtCs8nIoALFZEAc_15benchmark_tests6commonNtB2_7Summary25assert_costs_not_all_zero
FNDA:0,_RNvMNtCs8nIoALFZEAc_15benchmark_tests6commonNtB2_7Summary3new
FNDA:0,_RNvMNtCs8nIoALFZEAc_15benchmark_tests6commonNtB2_7Summary8get_name
FNF:16
FNH:0
DA:13,0
DA:14,0
DA:15,0
DA:16,0
DA:17,0
DA:18,0
DA:20,0
DA:21,0
DA:22,0
DA:24,0
DA:26,0
DA:29,0
DA:30,0
DA:31,0
DA:32,0
DA:33,0
DA:34,0
DA:35,0
DA:36,0
DA:38,0
DA:39,0
DA:40,0
DA:41,0
DA:42,0
DA:43,0
DA:45,0
DA:48,0
DA:49,0
DA:50,0
DA:52,0
DA:55,0
DA:56,0
DA:57,0
DA:59,0
DA:61,0
DA:62,0
DA:64,0
DA:69,0
DA:70,0
DA:71,0
DA:72,0
DA:73,0
DA:75,0
DA:78,0
DA:79,0
DA:80,0
DA:82,0
DA:85,0
DA:86,0
DA:87,0
DA:89,0
DA:91,0
DA:92,0
DA:94,0
DA:99,0
DA:100,0
DA:101,0
DA:102,0
DA:103,0
DA:105,0
DA:108,0
DA:109,0
DA:110,0
DA:112,0
DA:115,0
DA:116,0
DA:117,0
DA:119,0
DA:121,0
DA:122,0
DA:124,0
DA:129,0
DA:133,0
BRF:0
BRH:0
LF:86
LH:0
end_of_record
SF:/fast/lenny/workspace/programming/gungraun/gungraun/benchmark-tests/src/helper/bench-bin-fake.rs
FN:10,_RNvCshLsAYxde7mw_14bench_bin_fake4main
FN:10,_RNvCsgJ11cIGt0j2_14bench_bin_fake4main
FNDA:2,_RNvCshLsAYxde7mw_14bench_bin_fake4main
FNDA:0,_RNvCsgJ11cIGt0j2_14bench_bin_fake4main
FNF:1
FNH:1
DA:10,2
DA:11,6
DA:12,6
DA:13,6
DA:14,2
BRF:0
BRH:0
LF:5
LH:5
end_of_record
SF:/fast/lenny/workspace/programming/gungraun/gungraun/benchmark-tests/src/helper/bubble-sort.rs
FN:12,_RNvCsdXFBXm2vsNx_11bubble_sort4main
FN:12,_RNvCscdb64VF9KXv_11bubble_sort4main
FNDA:0,_RNvCsdXFBXm2vsNx_11bubble_sort4main
FNDA:0,_RNvCscdb64VF9KXv_11bubble_sort4main
FNF:1
FNH:0
DA:12,0
DA:13,0
DA:14,0
DA:15,0
DA:16,0
DA:17,0
BRF:0
BRH:0
LF:6
LH:0
end_of_record
SF:/fast/lenny/workspace/programming/gungraun/gungraun/benchmark-tests/src/helper/cat.rs
FN:13,_RNvCs5PkjP3rGoYI_3cat4main
FN:13,_RNvCsiq4R0uKpPvT_3cat4main
FNDA:0,_RNvCs5PkjP3rGoYI_3cat4main
FNDA:0,_RNvCsiq4R0uKpPvT_3cat4main
FNF:1
FNH:0
DA:13,0
DA:14,0
DA:15,0
DA:17,0
DA:18,0
DA:20,0
DA:21,0
DA:23,0
DA:24,0
BRF:0
BRH:0
LF:9
LH:0
end_of_record
SF:/fast/lenny/workspace/programming/gungraun/gungraun/benchmark-tests/src/helper/client-requests.rs
FN:5,_RNvCscnCe79BAz7Z_15client_requests4main
FN:5,_RNvCs9r1TK2g12GZ_15client_requests4main
FNDA:0,_RNvCscnCe79BAz7Z_15client_requests4main
FNDA:0,_RNvCs9r1TK2g12GZ_15client_requests4main
FNF:1
FNH:0
DA:5,0
DA:6,0
DA:7,0
DA:8,0
DA:9,0
BRF:0
BRH:0
LF:5
LH:0
end_of_record
SF:/fast/lenny/workspace/programming/gungraun/gungraun/benchmark-tests/src/helper/delay.rs
FN:16,_RNvCs5s0eg657p38_5delay4main
FN:16,_RNvCsh5cvdKaD49a_5delay4main
FNDA:0,_RNvCs5s0eg657p38_5delay4main
FNDA:0,_RNvCsh5cvdKaD49a_5delay4main
FNF:1
FNH:0
DA:16,0
DA:17,0
DA:18,0
DA:19,0
DA:20,0
DA:21,0
DA:22,0
DA:23,0
DA:24,0
DA:25,0
DA:26,0
DA:28,0
DA:29,0
DA:30,0
DA:31,0
DA:32,0
DA:34,0
DA:35,0
DA:36,0
DA:37,0
BRF:0
BRH:0
LF:20
LH:0
end_of_record
SF:/fast/lenny/workspace/programming/gungraun/gungraun/benchmark-tests/src/helper/echo.rs
FN:9,_RNvCs7hg39huQvEq_4echo4main
FN:12,_RNCNvCs7hg39huQvEq_4echo4main0B3_
FN:12,_RNCNvCsjBY2RS2xP89_4echo4main0B3_
FN:9,_RNvCsjBY2RS2xP89_4echo4main
FNDA:2,_RNvCs7hg39huQvEq_4echo4main
FNDA:0,_RNCNvCs7hg39huQvEq_4echo4main0B3_
FNDA:0,_RNCNvCsjBY2RS2xP89_4echo4main0B3_
FNDA:0,_RNvCsjBY2RS2xP89_4echo4main
FNF:2
FNH:1
DA:9,2
DA:10,2
DA:11,2
DA:12,2
DA:13,0
DA:14,0
DA:15,0
DA:16,0
DA:18,0
DA:20,2
DA:22,2
DA:23,2
DA:24,2
DA:25,2
DA:27,2
DA:28,2
BRF:0
BRH:0
LF:17
LH:11
end_of_record
SF:/fast/lenny/workspace/programming/gungraun/gungraun/benchmark-tests/src/helper/env.rs
FN:22,_RNCNvCsb02pVzAyvrm_3env4main0B3_
FN:25,_RNCNvCsb02pVzAyvrm_3env4mains_0B3_
FN:12,_RNvCsb02pVzAyvrm_3env4main
FN:22,_RNCNvCsglG10bdpzV8_3env4main0B3_
FN:25,_RNCNvCsglG10bdpzV8_3env4mains_0B3_
FN:12,_RNvCsglG10bdpzV8_3env4main
FNDA:0,_RNCNvCsb02pVzAyvrm_3env4main0B3_
FNDA:0,_RNCNvCsb02pVzAyvrm_3env4mains_0B3_
FNDA:0,_RNvCsb02pVzAyvrm_3env4main
FNDA:0,_RNCNvCsglG10bdpzV8_3env4main0B3_
FNDA:0,_RNCNvCsglG10bdpzV8_3env4mains_0B3_
FNDA:0,_RNvCsglG10bdpzV8_3env4main
FNF:3
FNH:0
DA:12,0
DA:13,0
DA:14,0
DA:15,0
DA:16,0
DA:17,0
DA:18,0
DA:19,0
DA:21,0
DA:22,0
DA:23,0
DA:24,0
DA:25,0
DA:26,0
DA:28,0
DA:30,0
BRF:0
BRH:0
LF:18
LH:0
end_of_record
SF:/fast/lenny/workspace/programming/gungraun/gungraun/benchmark-tests/src/helper/exit-with.rs
FN:9,_RNvCsjdCQQQelgtN_9exit_with4main
FN:9,_RNvCs3nUgRB9aZFp_9exit_with4main
FNDA:10,_RNvCsjdCQQQelgtN_9exit_with4main
FNDA:0,_RNvCs3nUgRB9aZFp_9exit_with4main
FNF:1
FNH:1
DA:9,10
DA:10,10
DA:11,10
DA:12,10
DA:14,10
DA:15,0
DA:16,10
DA:17,10
DA:19,0
BRF:0
BRH:0
LF:9
LH:7
end_of_record
SF:/fast/lenny/workspace/programming/gungraun/gungraun/benchmark-tests/src/helper/file-exists.rs
FN:12,_RNvCsdmZS5gVBDr_11file_exists4main
FN:12,_RNvCs6BEcga2328L_11file_exists4main
FNDA:0,_RNvCsdmZS5gVBDr_11file_exists4main
FNDA:2,_RNvCs6BEcga2328L_11file_exists4main
FNF:1
FNH:1
DA:12,2
DA:13,2
DA:14,2
DA:15,2
DA:17,2
DA:18,2
DA:19,0
DA:20,0
DA:23,2
DA:24,2
DA:25,2
DA:26,2
DA:28,0
DA:31,0
DA:33,0
DA:34,0
DA:35,0
DA:37,2
BRF:0
BRH:0
LF:18
LH:11
end_of_record
SF:/fast/lenny/workspace/programming/gungraun/gungraun/benchmark-tests/src/helper/leak-memory.rs
FN:12,_RNvCs8eSlbnkQbhY_11leak_memory4main
FN:12,_RNvCs9ZjnzaAsoKd_11leak_memory4main
FNDA:0,_RNvCs8eSlbnkQbhY_11leak_memory4main
FNDA:0,_RNvCs9ZjnzaAsoKd_11leak_memory4main
FNF:1
FNH:0
DA:12,0
DA:13,0
DA:14,0
DA:16,0
DA:17,0
BRF:0
BRH:0
LF:5
LH:0
end_of_record
SF:/fast/lenny/workspace/programming/gungraun/gungraun/benchmark-tests/src/helper/pipe.rs
FN:7,_RNvCsbSMyQt6QisX_4pipe4main
FN:7,_RNvCs58mLnJDHaVP_4pipe4main
FNDA:0,_RNvCsbSMyQt6QisX_4pipe4main
FNDA:0,_RNvCs58mLnJDHaVP_4pipe4main
FNF:1
FNH:0
DA:7,0
DA:8,0
DA:10,0
DA:11,0
DA:13,0
DA:14,0
DA:15,0
BRF:0
BRH:0
LF:7
LH:0
end_of_record
SF:/fast/lenny/workspace/programming/gungraun/gungraun/benchmark-tests/src/helper/read-file.rs
FN:13,_RNvCs8qNRfyJYEii_9read_file4main
FN:13,_RNvCs73NzNR4hs9G_9read_file4main
FNDA:0,_RNvCs8qNRfyJYEii_9read_file4main
FNDA:0,_RNvCs73NzNR4hs9G_9read_file4main
FNF:1
FNH:0
DA:13,0
DA:14,0
DA:15,0
DA:16,0
DA:18,0
DA:19,0
DA:20,0
DA:22,0
DA:23,0
BRF:0
BRH:0
LF:9
LH:0
end_of_record
SF:/fast/lenny/workspace/programming/gungraun/gungraun/benchmark-tests/src/helper/sort.rs
FN:12,_RNvCsaq55xcO7ECr_4sort4main
FN:12,_RNvCsj38dTCQteFL_4sort4main
FNDA:0,_RNvCsaq55xcO7ECr_4sort4main
FNDA:0,_RNvCsj38dTCQteFL_4sort4main
FNF:1
FNH:0
DA:12,0
DA:13,0
DA:14,0
DA:15,0
DA:17,0
DA:18,0
DA:19,0
BRF:0
BRH:0
LF:7
LH:0
end_of_record
SF:/fast/lenny/workspace/programming/gungraun/gungraun/benchmark-tests/src/helper/subprocess.rs
FN:12,_RNvCsacU5MHvjqFJ_10subprocess4main
FN:12,_RNvCsghV8Pg0DeZn_10subprocess4main
FNDA:0,_RNvCsacU5MHvjqFJ_10subprocess4main
FNDA:0,_RNvCsghV8Pg0DeZn_10subprocess4main
FNF:1
FNH:0
DA:12,0
DA:13,0
DA:14,0
DA:16,0
DA:17,0
DA:18,0
DA:19,0
DA:20,0
BRF:0
BRH:0
LF:8
LH:0
end_of_record
SF:/fast/lenny/workspace/programming/gungraun/gungraun/benchmark-tests/src/helper/thread.rs
FN:13,_RNvCsb7j68Vmyafj_6thread4main
FN:13,_RNvCslRJUS9on1NG_6thread4main
FNDA:0,_RNvCsb7j68Vmyafj_6thread4main
FNDA:0,_RNvCslRJUS9on1NG_6thread4main
FNF:1
FNH:0
DA:13,0
DA:14,0
DA:15,0
DA:16,0
DA:17,0
DA:18,0
DA:19,0
DA:20,0
DA:22,0
DA:23,0
DA:24,0
DA:26,0
DA:28,0
BRF:0
BRH:0
LF:13
LH:0
end_of_record
SF:/fast/lenny/workspace/programming/gungraun/gungraun/benchmark-tests/src/helper/timeout.rs
FN:19,_RNCNvCsf0diDAorGEk_7timeout4main0B3_
FN:14,_RNvCsf0diDAorGEk_7timeout4main
FN:19,_RNCNvCs1gq8pBFEldR_7timeout4main0B3_
FN:14,_RNvCs1gq8pBFEldR_7timeout4main
FNDA:3,_RNCNvCsf0diDAorGEk_7timeout4main0B3_
FNDA:3,_RNvCsf0diDAorGEk_7timeout4main
FNDA:0,_RNCNvCs1gq8pBFEldR_7timeout4main0B3_
FNDA:0,_RNvCs1gq8pBFEldR_7timeout4main
FNF:2
FNH:2
DA:14,3
DA:15,3
DA:17,3
DA:18,3
DA:19,3
DA:20,3
DA:22,3
DA:24,3
DA:25,3
DA:26,3
BRF:0
BRH:0
LF:11
LH:11
end_of_record
SF:/fast/lenny/workspace/programming/gungraun/gungraun/benchmark-tests/src/lib.rs
FN:98,_RNCNCNvCsb039c427Ago_15benchmark_tests37thread_in_thread_with_instrumentation00B5_
FN:33,_RNCNvCsb039c427Ago_15benchmark_tests11find_primes0B3_
FN:38,_RNCNvCsb039c427Ago_15benchmark_tests24find_primes_multi_thread0B3_
FN:42,_RNCNvCsb039c427Ago_15benchmark_tests24find_primes_multi_threads_0B3_
FN:95,_RNCNvCsb039c427Ago_15benchmark_tests37thread_in_thread_with_instrumentation0B3_
FN:63,_RNCNvCsb039c427Ago_15benchmark_tests45find_primes_multi_thread_with_instrumentation0B3_
FN:67,_RNCNvCsb039c427Ago_15benchmark_tests45find_primes_multi_thread_with_instrumentations_0B3_
FN:133,_RNvCsb039c427Ago_15benchmark_tests11bubble_sort
FN:32,_RNvCsb039c427Ago_15benchmark_tests11find_primes
FN:195,_RNvCsb039c427Ago_15benchmark_tests11leak_memory
FN:144,_RNvCsb039c427Ago_15benchmark_tests20bubble_sort_allocate
FN:125,_RNvCsb039c427Ago_15benchmark_tests21setup_best_case_array
FN:115,_RNvCsb039c427Ago_15benchmark_tests22setup_worst_case_array
FN:36,_RNvCsb039c427Ago_15benchmark_tests24find_primes_multi_thread
FN:92,_RNvCsb039c427Ago_15benchmark_tests37thread_in_thread_with_instrumentation
FN:61,_RNvCsb039c427Ago_15benchmark_tests45find_primes_multi_thread_with_instrumentation
FN:17,_RNvCsb039c427Ago_15benchmark_tests8is_prime
FN:157,_RNvCsb039c427Ago_15benchmark_tests9check_env
FN:150,_RNvCsb039c427Ago_15benchmark_tests9fibonacci
FN:167,_RNvCsb039c427Ago_15benchmark_tests9print_env
FN:186,_RINvCs8nIoALFZEAc_15benchmark_tests10subprocesspppEB2_
FN:98,_RNCNCNvCs8nIoALFZEAc_15benchmark_tests37thread_in_thread_with_instrumentation00B5_
FN:33,_RNCNvCs8nIoALFZEAc_15benchmark_tests11find_primes0B3_
FN:38,_RNCNvCs8nIoALFZEAc_15benchmark_tests24find_primes_multi_thread0B3_
FN:42,_RNCNvCs8nIoALFZEAc_15benchmark_tests24find_primes_multi_threads_0B3_
FN:95,_RNCNvCs8nIoALFZEAc_15benchmark_tests37thread_in_thread_with_instrumentation0B3_
FN:63,_RNCNvCs8nIoALFZEAc_15benchmark_tests45find_primes_multi_thread_with_instrumentation0B3_
FN:67,_RNCNvCs8nIoALFZEAc_15benchmark_tests45find_primes_multi_thread_with_instrumentations_0B3_
FN:133,_RNvCs8nIoALFZEAc_15benchmark_tests11bubble_sort
FN:32,_RNvCs8nIoALFZEAc_15benchmark_tests11find_primes
FN:195,_RNvCs8nIoALFZEAc_15benchmark_tests11leak_memory
FN:144,_RNvCs8nIoALFZEAc_15benchmark_tests20bubble_sort_allocate
FN:125,_RNvCs8nIoALFZEAc_15benchmark_tests21setup_best_case_array
FN:115,_RNvCs8nIoALFZEAc_15benchmark_tests22setup_worst_case_array
FN:36,_RNvCs8nIoALFZEAc_15benchmark_tests24find_primes_multi_thread
FN:92,_RNvCs8nIoALFZEAc_15benchmark_tests37thread_in_thread_with_instrumentation
FN:61,_RNvCs8nIoALFZEAc_15benchmark_tests45find_primes_multi_thread_with_instrumentation
FN:17,_RNvCs8nIoALFZEAc_15benchmark_tests8is_prime
FN:157,_RNvCs8nIoALFZEAc_15benchmark_tests9check_env
FN:150,_RNvCs8nIoALFZEAc_15benchmark_tests9fibonacci
FN:167,_RNvCs8nIoALFZEAc_15benchmark_tests9print_env
FNDA:0,_RNCNCNvCsb039c427Ago_15benchmark_tests37thread_in_thread_with_instrumentation00B5_
FNDA:0,_RNCNvCsb039c427Ago_15benchmark_tests11find_primes0B3_
FNDA:0,_RNCNvCsb039c427Ago_15benchmark_tests24find_primes_multi_thread0B3_
FNDA:0,_RNCNvCsb039c427Ago_15benchmark_tests24find_primes_multi_threads_0B3_
FNDA:0,_RNCNvCsb039c427Ago_15benchmark_tests37thread_in_thread_with_instrumentation0B3_
FNDA:0,_RNCNvCsb039c427Ago_15benchmark_tests45find_primes_multi_thread_with_instrumentation0B3_
FNDA:0,_RNCNvCsb039c427Ago_15benchmark_tests45find_primes_multi_thread_with_instrumentations_0B3_
FNDA:0,_RNvCsb039c427Ago_15benchmark_tests11bubble_sort
FNDA:0,_RNvCsb039c427Ago_15benchmark_tests11find_primes
FNDA:0,_RNvCsb039c427Ago_15benchmark_tests11leak_memory
FNDA:0,_RNvCsb039c427Ago_15benchmark_tests20bubble_sort_allocate
FNDA:0,_RNvCsb039c427Ago_15benchmark_tests21setup_best_case_array
FNDA:0,_RNvCsb039c427Ago_15benchmark_tests22setup_worst_case_array
FNDA:0,_RNvCsb039c427Ago_15benchmark_tests24find_primes_multi_thread
FNDA:0,_RNvCsb039c427Ago_15benchmark_tests37thread_in_thread_with_instrumentation
FNDA:0,_RNvCsb039c427Ago_15benchmark_tests45find_primes_multi_thread_with_instrumentation
FNDA:0,_RNvCsb039c427Ago_15benchmark_tests8is_prime
FNDA:0,_RNvCsb039c427Ago_15benchmark_tests9check_env
FNDA:0,_RNvCsb039c427Ago_15benchmark_tests9fibonacci
FNDA:0,_RNvCsb039c427Ago_15benchmark_tests9print_env
FNDA:0,_RINvCs8nIoALFZEAc_15benchmark_tests10subprocesspppEB2_
FNDA:0,_RNCNCNvCs8nIoALFZEAc_15benchmark_tests37thread_in_thread_with_instrumentation00B5_
FNDA:0,_RNCNvCs8nIoALFZEAc_15benchmark_tests11find_primes0B3_
FNDA:0,_RNCNvCs8nIoALFZEAc_15benchmark_tests24find_primes_multi_thread0B3_
FNDA:0,_RNCNvCs8nIoALFZEAc_15benchmark_tests24find_primes_multi_threads_0B3_
FNDA:0,_RNCNvCs8nIoALFZEAc_15benchmark_tests37thread_in_thread_with_instrumentation0B3_
FNDA:0,_RNCNvCs8nIoALFZEAc_15benchmark_tests45find_primes_multi_thread_with_instrumentation0B3_
FNDA:0,_RNCNvCs8nIoALFZEAc_15benchmark_tests45find_primes_multi_thread_with_instrumentations_0B3_
FNDA:0,_RNvCs8nIoALFZEAc_15benchmark_tests11bubble_sort
FNDA:0,_RNvCs8nIoALFZEAc_15benchmark_tests11find_primes
FNDA:0,_RNvCs8nIoALFZEAc_15benchmark_tests11leak_memory
FNDA:0,_RNvCs8nIoALFZEAc_15benchmark_tests20bubble_sort_allocate
FNDA:0,_RNvCs8nIoALFZEAc_15benchmark_tests21setup_best_case_array
FNDA:0,_RNvCs8nIoALFZEAc_15benchmark_tests22setup_worst_case_array
FNDA:0,_RNvCs8nIoALFZEAc_15benchmark_tests24find_primes_multi_thread
FNDA:0,_RNvCs8nIoALFZEAc_15benchmark_tests37thread_in_thread_with_instrumentation
FNDA:0,_RNvCs8nIoALFZEAc_15benchmark_tests45find_primes_multi_thread_with_instrumentation
FNDA:0,_RNvCs8nIoALFZEAc_15benchmark_tests8is_prime
FNDA:0,_RNvCs8nIoALFZEAc_15benchmark_tests9check_env
FNDA:0,_RNvCs8nIoALFZEAc_15benchmark_tests9fibonacci
FNDA:0,_RNvCs8nIoALFZEAc_15benchmark_tests9print_env
FNF:21
FNH:0
DA:17,0
DA:18,0
DA:19,0
DA:20,0
DA:22,0
DA:23,0
DA:24,0
DA:25,0
DA:28,0
DA:29,0
DA:32,0
DA:33,0
DA:34,0
DA:36,0
DA:37,0
DA:38,0
DA:39,0
DA:40,0
DA:41,0
DA:42,0
DA:43,0
DA:46,0
DA:47,0
DA:48,0
DA:49,0
DA:52,0
DA:54,0
DA:55,0
DA:58,0
DA:59,0
DA:61,0
DA:62,0
DA:63,0
DA:64,0
DA:65,0
DA:66,0
DA:67,0
DA:68,0
DA:69,0
DA:70,0
DA:71,0
DA:72,0
DA:73,0
DA:74,0
DA:77,0
DA:78,0
DA:79,0
DA:80,0
DA:83,0
DA:85,0
DA:86,0
DA:89,0
DA:90,0
DA:92,0
DA:93,0
DA:94,0
DA:95,0
DA:96,0
DA:97,0
DA:98,0
DA:99,0
DA:100,0
DA:101,0
DA:102,0
DA:103,0
DA:105,0
DA:107,0
DA:110,0
DA:111,0
DA:115,0
DA:116,0
DA:117,0
DA:119,0
DA:121,0
DA:125,0
DA:126,0
DA:127,0
DA:129,0
DA:131,0
DA:133,0
DA:134,0
DA:135,0
DA:136,0
DA:137,0
DA:138,0
DA:141,0
DA:142,0
DA:144,0
DA:145,0
DA:146,0
DA:147,0
DA:148,0
DA:150,0
DA:151,0
DA:152,0
DA:153,0
DA:155,0
DA:157,0
DA:158,0
DA:159,0
DA:160,0
DA:162,0
DA:163,0
DA:165,0
DA:167,0
DA:168,0
DA:169,0
DA:170,0
DA:171,0
DA:172,0
DA:173,0
DA:174,0
DA:177,0
DA:178,0
DA:179,0
DA:182,0
DA:184,0
DA:186,0
DA:187,0
DA:188,0
DA:189,0
DA:190,0
DA:192,0
DA:193,0
DA:195,0
DA:196,0
DA:197,0
DA:198,0
DA:199,0
DA:200,0
DA:201,0
BRF:0
BRH:0
LF:138
LH:0
end_of_record
SF:/fast/lenny/workspace/programming/gungraun/gungraun/benchmark-tests/src/serde.rs
FN:130,_RINvNtNtCsb039c427Ago_15benchmark_tests5serde7runs_on11deserializeQNtNtCscHmu921OY8e_10serde_yaml2de22DeserializerFromEventsECshXH78HvVAKk_5bench
FN:110,_RINvXNtNtCsb039c427Ago_15benchmark_tests5serde7runs_onNtB3_12FieldVisitorNtNtCsbiuLbTeVV7g_10serde_core2de7Visitor9visit_strNtNtCscHmu921OY8e_10serde_yaml5error5ErrorECshXH78HvVAKk_5bench
FN:71,_RINvNtNtCsb039c427Ago_15benchmark_tests5serde12rust_version11deserializeQNtNtCscHmu921OY8e_10serde_yaml2de22DeserializerFromEventsECshXH78HvVAKk_5bench
FN:41,_RINvXNtNtCsb039c427Ago_15benchmark_tests5serde12rust_versionNtB3_12FieldVisitorNtNtCsbiuLbTeVV7g_10serde_core2de7Visitor9visit_strNtNtCscHmu921OY8e_10serde_yaml5error5ErrorECshXH78HvVAKk_5bench
FN:106,_RNvXNtNtCsb039c427Ago_15benchmark_tests5serde7runs_onNtB2_12FieldVisitorNtNtCsbiuLbTeVV7g_10serde_core2de7Visitor9expecting
FN:37,_RNvXNtNtCsb039c427Ago_15benchmark_tests5serde12rust_versionNtB2_12FieldVisitorNtNtCsbiuLbTeVV7g_10serde_core2de7Visitor9expecting
FN:71,_RINvNtNtCs8nIoALFZEAc_15benchmark_tests5serde12rust_version11deserializepEB6_
FN:10,_RINvNtNtCs8nIoALFZEAc_15benchmark_tests5serde12rust_version9serializepEB6_
FN:130,_RINvNtNtCs8nIoALFZEAc_15benchmark_tests5serde7runs_on11deserializepEB6_
FN:86,_RINvNtNtCs8nIoALFZEAc_15benchmark_tests5serde7runs_on9serializepEB6_
FN:63,_RINvXNtNtCs8nIoALFZEAc_15benchmark_tests5serde12rust_versionNtB3_12FieldVisitorNtNtCsbiuLbTeVV7g_10serde_core2de7Visitor12visit_stringpEB7_
FN:41,_RINvXNtNtCs8nIoALFZEAc_15benchmark_tests5serde12rust_versionNtB3_12FieldVisitorNtNtCsbiuLbTeVV7g_10serde_core2de7Visitor9visit_strpEB7_
FN:122,_RINvXNtNtCs8nIoALFZEAc_15benchmark_tests5serde7runs_onNtB3_12FieldVisitorNtNtCsbiuLbTeVV7g_10serde_core2de7Visitor12visit_stringpEB7_
FN:110,_RINvXNtNtCs8nIoALFZEAc_15benchmark_tests5serde7runs_onNtB3_12FieldVisitorNtNtCsbiuLbTeVV7g_10serde_core2de7Visitor9visit_strpEB7_
FN:37,_RNvXNtNtCs8nIoALFZEAc_15benchmark_tests5serde12rust_versionNtB2_12FieldVisitorNtNtCsbiuLbTeVV7g_10serde_core2de7Visitor9expecting
FN:106,_RNvXNtNtCs8nIoALFZEAc_15benchmark_tests5serde7runs_onNtB2_12FieldVisitorNtNtCsbiuLbTeVV7g_10serde_core2de7Visitor9expecting
FNDA:0,_RINvNtNtCsb039c427Ago_15benchmark_tests5serde7runs_on11deserializeQNtNtCscHmu921OY8e_10serde_yaml2de22DeserializerFromEventsECshXH78HvVAKk_5bench
FNDA:0,_RINvXNtNtCsb039c427Ago_15benchmark_tests5serde7runs_onNtB3_12FieldVisitorNtNtCsbiuLbTeVV7g_10serde_core2de7Visitor9visit_strNtNtCscHmu921OY8e_10serde_yaml5error5ErrorECshXH78HvVAKk_5bench
FNDA:0,_RINvNtNtCsb039c427Ago_15benchmark_tests5serde12rust_version11deserializeQNtNtCscHmu921OY8e_10serde_yaml2de22DeserializerFromEventsECshXH78HvVAKk_5bench
FNDA:0,_RINvXNtNtCsb039c427Ago_15benchmark_tests5serde12rust_versionNtB3_12FieldVisitorNtNtCsbiuLbTeVV7g_10serde_core2de7Visitor9visit_strNtNtCscHmu921OY8e_10serde_yaml5error5ErrorECshXH78HvVAKk_5bench
FNDA:0,_RNvXNtNtCsb039c427Ago_15benchmark_tests5serde7runs_onNtB2_12FieldVisitorNtNtCsbiuLbTeVV7g_10serde_core2de7Visitor9expecting
FNDA:0,_RNvXNtNtCsb039c427Ago_15benchmark_tests5serde12rust_versionNtB2_12FieldVisitorNtNtCsbiuLbTeVV7g_10serde_core2de7Visitor9expecting
FNDA:0,_RINvNtNtCs8nIoALFZEAc_15benchmark_tests5serde12rust_version11deserializepEB6_
FNDA:0,_RINvNtNtCs8nIoALFZEAc_15benchmark_tests5serde12rust_version9serializepEB6_
FNDA:0,_RINvNtNtCs8nIoALFZEAc_15benchmark_tests5serde7runs_on11deserializepEB6_
FNDA:0,_RINvNtNtCs8nIoALFZEAc_15benchmark_tests5serde7runs_on9serializepEB6_
FNDA:0,_RINvXNtNtCs8nIoALFZEAc_15benchmark_tests5serde12rust_versionNtB3_12FieldVisitorNtNtCsbiuLbTeVV7g_10serde_core2de7Visitor12visit_stringpEB7_
FNDA:0,_RINvXNtNtCs8nIoALFZEAc_15benchmark_tests5serde12rust_versionNtB3_12FieldVisitorNtNtCsbiuLbTeVV7g_10serde_core2de7Visitor9visit_strpEB7_
FNDA:0,_RINvXNtNtCs8nIoALFZEAc_15benchmark_tests5serde7runs_onNtB3_12FieldVisitorNtNtCsbiuLbTeVV7g_10serde_core2de7Visitor12visit_stringpEB7_
FNDA:0,_RINvXNtNtCs8nIoALFZEAc_15benchmark_tests5serde7runs_onNtB3_12FieldVisitorNtNtCsbiuLbTeVV7g_10serde_core2de7Visitor9visit_strpEB7_
FNDA:0,_RNvXNtNtCs8nIoALFZEAc_15benchmark_tests5serde12rust_versionNtB2_12FieldVisitorNtNtCsbiuLbTeVV7g_10serde_core2de7Visitor9expecting
FNDA:0,_RNvXNtNtCs8nIoALFZEAc_15benchmark_tests5serde7runs_onNtB2_12FieldVisitorNtNtCsbiuLbTeVV7g_10serde_core2de7Visitor9expecting
FNF:10
FNH:0
DA:10,0
DA:11,0
DA:12,0
DA:14,0
DA:15,0
DA:16,0
DA:17,0
DA:18,0
DA:19,0
DA:20,0
DA:21,0
DA:22,0
DA:23,0
DA:24,0
DA:25,0
DA:26,0
DA:28,0
DA:30,0
DA:37,0
DA:38,0
DA:39,0
DA:41,0
DA:42,0
DA:43,0
DA:45,0
DA:46,0
DA:47,0
DA:48,0
DA:49,0
DA:50,0
DA:51,0
DA:52,0
DA:53,0
DA:54,0
DA:55,0
DA:56,0
DA:57,0
DA:59,0
DA:61,0
DA:63,0
DA:64,0
DA:65,0
DA:67,0
DA:68,0
DA:71,0
DA:72,0
DA:73,0
DA:75,0
DA:76,0
DA:86,0
DA:87,0
DA:88,0
DA:90,0
DA:91,0
DA:92,0
DA:93,0
DA:94,0
DA:95,0
DA:97,0
DA:99,0
DA:106,0
DA:107,0
DA:108,0
DA:110,0
DA:111,0
DA:112,0
DA:114,0
DA:115,0
DA:116,0
DA:118,0
DA:120,0
DA:122,0
DA:123,0
DA:124,0
DA:126,0
DA:127,0
DA:130,0
DA:131,0
DA:132,0
DA:134,0
DA:135,0
BRF:0
BRH:0
LF:81
LH:0
end_of_record
SF:/fast/lenny/workspace/programming/gungraun/gungraun/gungraun-macros/src/bin_bench.rs
FN:284,_RNCNvMs1_NtCs2b4E09oIUXa_15gungraun_macros9bin_benchNtB7_5Bench23parse_benches_attribute0B9_
FN:455,_RNCNvMs4_NtCs2b4E09oIUXa_15gungraun_macros9bin_benchNtB7_15BinaryBenchmark15extract_benches0B9_
FN:480,_RNCNvMs4_NtCs2b4E09oIUXa_15gungraun_macros9bin_benchNtB7_15BinaryBenchmark15extract_benchess_0B9_
FN:91,_RNvMs0_NtCs2b4E09oIUXa_15gungraun_macros9bin_benchNtB5_17AssistantRenderer14render_as_code
FN:137,_RNvMs0_NtCs2b4E09oIUXa_15gungraun_macros9bin_benchNtB5_17AssistantRenderer16render_as_member
FN:108,_RNvMs0_NtCs2b4E09oIUXa_15gungraun_macros9bin_benchNtB5_17AssistantRenderer19render_as_iter_code
FN:297,_RNvMs1_NtCs2b4E09oIUXa_15gungraun_macros9bin_benchNtB5_5Bench14render_as_code
FN:346,_RNvMs1_NtCs2b4E09oIUXa_15gungraun_macros9bin_benchNtB5_5Bench16render_as_member
FN:155,_RNvMs1_NtCs2b4E09oIUXa_15gungraun_macros9bin_benchNtB5_5Bench21parse_bench_attribute
FN:217,_RNvMs1_NtCs2b4E09oIUXa_15gungraun_macros9bin_benchNtB5_5Bench23parse_benches_attribute
FN:401,_RNvMs2_NtCs2b4E09oIUXa_15gungraun_macros9bin_benchNtB5_11BenchConfig14render_as_code
FN:414,_RNvMs2_NtCs2b4E09oIUXa_15gungraun_macros9bin_benchNtB5_11BenchConfig16render_as_member
FN:397,_RNvMs2_NtCs2b4E09oIUXa_15gungraun_macros9bin_benchNtB5_11BenchConfig5ident
FN:564,_RNvMs4_NtCs2b4E09oIUXa_15gungraun_macros9bin_benchNtB5_15BinaryBenchmark14render_benches
FN:434,_RNvMs4_NtCs2b4E09oIUXa_15gungraun_macros9bin_benchNtB5_15BinaryBenchmark15extract_benches
FN:523,_RNvMs4_NtCs2b4E09oIUXa_15gungraun_macros9bin_benchNtB5_15BinaryBenchmark17render_standalone
FN:637,_RNvMs6_NtCs2b4E09oIUXa_15gungraun_macros9bin_benchNtB5_21BinaryBenchmarkConfig14render_as_code
FN:674,_RNvMs9_NtCs2b4E09oIUXa_15gungraun_macros9bin_benchNtB5_5Setup10parse_pair
FN:716,_RNvMs9_NtCs2b4E09oIUXa_15gungraun_macros9bin_benchNtB5_5Setup14render_as_code
FN:724,_RNvMs9_NtCs2b4E09oIUXa_15gungraun_macros9bin_benchNtB5_5Setup16render_as_member
FN:720,_RNvMs9_NtCs2b4E09oIUXa_15gungraun_macros9bin_benchNtB5_5Setup19render_as_iter_code
FN:696,_RNvMs9_NtCs2b4E09oIUXa_15gungraun_macros9bin_benchNtB5_5Setup19to_string_with_args
FN:705,_RNvMs9_NtCs2b4E09oIUXa_15gungraun_macros9bin_benchNtB5_5Setup19to_string_with_iter
FN:670,_RNvMs9_NtCs2b4E09oIUXa_15gungraun_macros9bin_benchNtB5_5Setup5ident
FN:690,_RNvMs9_NtCs2b4E09oIUXa_15gungraun_macros9bin_benchNtB5_5Setup6update
FN:685,_RNvMs9_NtCs2b4E09oIUXa_15gungraun_macros9bin_benchNtB5_5Setup7is_some
FN:734,_RNvMsa_NtCs2b4E09oIUXa_15gungraun_macros9bin_benchNtB5_8Teardown10parse_pair
FN:752,_RNvMsa_NtCs2b4E09oIUXa_15gungraun_macros9bin_benchNtB5_8Teardown14render_as_code
FN:760,_RNvMsa_NtCs2b4E09oIUXa_15gungraun_macros9bin_benchNtB5_8Teardown16render_as_member
FN:756,_RNvMsa_NtCs2b4E09oIUXa_15gungraun_macros9bin_benchNtB5_8Teardown19render_as_iter_code
FN:730,_RNvMsa_NtCs2b4E09oIUXa_15gungraun_macros9bin_benchNtB5_8Teardown5ident
FN:746,_RNvMsa_NtCs2b4E09oIUXa_15gungraun_macros9bin_benchNtB5_8Teardown6update
FN:765,_RNvNtCs2b4E09oIUXa_15gungraun_macros9bin_bench6render
FN:78,_RNvXNtCs2b4E09oIUXa_15gungraun_macros9bin_benchNtB2_4ArgsNtNtCsaGWFmk4Cc5n_5quote9to_tokens8ToTokens9to_tokens
FN:425,_RNvXs3_NtCs2b4E09oIUXa_15gungraun_macros9bin_benchNtB5_9BenchModeINtNtCsgEmfK2I1SDS_4core7convert4FromNtNtB7_6common9BenchModeE4from
FN:601,_RNvXs5_NtCs2b4E09oIUXa_15gungraun_macros9bin_benchNtB5_15BinaryBenchmarkNtNtCs18ZQ9XUxf5Z_3syn5parse5Parse5parse
FN:658,_RNvXs7_NtCs2b4E09oIUXa_15gungraun_macros9bin_benchNtB5_6ConstsINtNtCsgEmfK2I1SDS_4core7convert4FromNtNtB7_6common6ConstsE4from
FN:664,_RNvXs8_NtCs2b4E09oIUXa_15gungraun_macros9bin_benchNtB5_4IterNtNtCsgEmfK2I1SDS_4core3fmt7Display3fmt
FN:84,_RNvXs_NtCs2b4E09oIUXa_15gungraun_macros9bin_benchNtB4_4ArgsNtNtCsgEmfK2I1SDS_4core3fmt7Display3fmt
FN:284,_RNCNvMs1_NtCsefbuI5cqeZT_15gungraun_macros9bin_benchNtB7_5Bench23parse_benches_attribute0B9_
FN:455,_RNCNvMs4_NtCsefbuI5cqeZT_15gungraun_macros9bin_benchNtB7_15BinaryBenchmark15extract_benches0B9_
FN:480,_RNCNvMs4_NtCsefbuI5cqeZT_15gungraun_macros9bin_benchNtB7_15BinaryBenchmark15extract_benchess_0B9_
FN:91,_RNvMs0_NtCsefbuI5cqeZT_15gungraun_macros9bin_benchNtB5_17AssistantRenderer14render_as_code
FN:137,_RNvMs0_NtCsefbuI5cqeZT_15gungraun_macros9bin_benchNtB5_17AssistantRenderer16render_as_member
FN:108,_RNvMs0_NtCsefbuI5cqeZT_15gungraun_macros9bin_benchNtB5_17AssistantRenderer19render_as_iter_code
FN:297,_RNvMs1_NtCsefbuI5cqeZT_15gungraun_macros9bin_benchNtB5_5Bench14render_as_code
FN:346,_RNvMs1_NtCsefbuI5cqeZT_15gungraun_macros9bin_benchNtB5_5Bench16render_as_member
FN:155,_RNvMs1_NtCsefbuI5cqeZT_15gungraun_macros9bin_benchNtB5_5Bench21parse_bench_attribute
FN:217,_RNvMs1_NtCsefbuI5cqeZT_15gungraun_macros9bin_benchNtB5_5Bench23parse_benches_attribute
FN:401,_RNvMs2_NtCsefbuI5cqeZT_15gungraun_macros9bin_benchNtB5_11BenchConfig14render_as_code
FN:414,_RNvMs2_NtCsefbuI5cqeZT_15gungraun_macros9bin_benchNtB5_11BenchConfig16render_as_member
FN:397,_RNvMs2_NtCsefbuI5cqeZT_15gungraun_macros9bin_benchNtB5_11BenchConfig5ident
FN:564,_RNvMs4_NtCsefbuI5cqeZT_15gungraun_macros9bin_benchNtB5_15BinaryBenchmark14render_benches
FN:434,_RNvMs4_NtCsefbuI5cqeZT_15gungraun_macros9bin_benchNtB5_15BinaryBenchmark15extract_benches
FN:523,_RNvMs4_NtCsefbuI5cqeZT_15gungraun_macros9bin_benchNtB5_15BinaryBenchmark17render_standalone
FN:637,_RNvMs6_NtCsefbuI5cqeZT_15gungraun_macros9bin_benchNtB5_21BinaryBenchmarkConfig14render_as_code
FN:674,_RNvMs9_NtCsefbuI5cqeZT_15gungraun_macros9bin_benchNtB5_5Setup10parse_pair
FN:716,_RNvMs9_NtCsefbuI5cqeZT_15gungraun_macros9bin_benchNtB5_5Setup14render_as_code
FN:724,_RNvMs9_NtCsefbuI5cqeZT_15gungraun_macros9bin_benchNtB5_5Setup16render_as_member
FN:720,_RNvMs9_NtCsefbuI5cqeZT_15gungraun_macros9bin_benchNtB5_5Setup19render_as_iter_code
FN:696,_RNvMs9_NtCsefbuI5cqeZT_15gungraun_macros9bin_benchNtB5_5Setup19to_string_with_args
FN:705,_RNvMs9_NtCsefbuI5cqeZT_15gungraun_macros9bin_benchNtB5_5Setup19to_string_with_iter
FN:670,_RNvMs9_NtCsefbuI5cqeZT_15gungraun_macros9bin_benchNtB5_5Setup5ident
FN:690,_RNvMs9_NtCsefbuI5cqeZT_15gungraun_macros9bin_benchNtB5_5Setup6update
FN:685,_RNvMs9_NtCsefbuI5cqeZT_15gungraun_macros9bin_benchNtB5_5Setup7is_some
FN:734,_RNvMsa_NtCsefbuI5cqeZT_15gungraun_macros9bin_benchNtB5_8Teardown10parse_pair
FN:752,_RNvMsa_NtCsefbuI5cqeZT_15gungraun_macros9bin_benchNtB5_8Teardown14render_as_code
FN:760,_RNvMsa_NtCsefbuI5cqeZT_15gungraun_macros9bin_benchNtB5_8Teardown16render_as_member
FN:756,_RNvMsa_NtCsefbuI5cqeZT_15gungraun_macros9bin_benchNtB5_8Teardown19render_as_iter_code
FN:730,_RNvMsa_NtCsefbuI5cqeZT_15gungraun_macros9bin_benchNtB5_8Teardown5ident
FN:746,_RNvMsa_NtCsefbuI5cqeZT_15gungraun_macros9bin_benchNtB5_8Teardown6update
FN:765,_RNvNtCsefbuI5cqeZT_15gungraun_macros9bin_bench6render
FN:78,_RNvXNtCsefbuI5cqeZT_15gungraun_macros9bin_benchNtB2_4ArgsNtNtCsaGWFmk4Cc5n_5quote9to_tokens8ToTokens9to_tokens
FN:425,_RNvXs3_NtCsefbuI5cqeZT_15gungraun_macros9bin_benchNtB5_9BenchModeINtNtCsgEmfK2I1SDS_4core7convert4FromNtNtB7_6common9BenchModeE4from
FN:601,_RNvXs5_NtCsefbuI5cqeZT_15gungraun_macros9bin_benchNtB5_15BinaryBenchmarkNtNtCsdgWaRgXFEK2_3syn5parse5Parse5parse
FN:658,_RNvXs7_NtCsefbuI5cqeZT_15gungraun_macros9bin_benchNtB5_6ConstsINtNtCsgEmfK2I1SDS_4core7convert4FromNtNtB7_6common6ConstsE4from
FN:664,_RNvXs8_NtCsefbuI5cqeZT_15gungraun_macros9bin_benchNtB5_4IterNtNtCsgEmfK2I1SDS_4core3fmt7Display3fmt
FN:84,_RNvXs_NtCsefbuI5cqeZT_15gungraun_macros9bin_benchNtB4_4ArgsNtNtCsgEmfK2I1SDS_4core3fmt7Display3fmt
FN:91,_RNvMs0_NtCsdVUoCTQwUTs_15gungraun_macros9bin_benchNtB5_17AssistantRenderer14render_as_code
FN:137,_RNvMs0_NtCsdVUoCTQwUTs_15gungraun_macros9bin_benchNtB5_17AssistantRenderer16render_as_member
FN:108,_RNvMs0_NtCsdVUoCTQwUTs_15gungraun_macros9bin_benchNtB5_17AssistantRenderer19render_as_iter_code
FN:297,_RNvMs1_NtCsdVUoCTQwUTs_15gungraun_macros9bin_benchNtB5_5Bench14render_as_code
FN:346,_RNvMs1_NtCsdVUoCTQwUTs_15gungraun_macros9bin_benchNtB5_5Bench16render_as_member
FN:155,_RNvMs1_NtCsdVUoCTQwUTs_15gungraun_macros9bin_benchNtB5_5Bench21parse_bench_attribute
FN:217,_RNvMs1_NtCsdVUoCTQwUTs_15gungraun_macros9bin_benchNtB5_5Bench23parse_benches_attribute
FN:401,_RNvMs2_NtCsdVUoCTQwUTs_15gungraun_macros9bin_benchNtB5_11BenchConfig14render_as_code
FN:414,_RNvMs2_NtCsdVUoCTQwUTs_15gungraun_macros9bin_benchNtB5_11BenchConfig16render_as_member
FN:397,_RNvMs2_NtCsdVUoCTQwUTs_15gungraun_macros9bin_benchNtB5_11BenchConfig5ident
FN:564,_RNvMs4_NtCsdVUoCTQwUTs_15gungraun_macros9bin_benchNtB5_15BinaryBenchmark14render_benches
FN:434,_RNvMs4_NtCsdVUoCTQwUTs_15gungraun_macros9bin_benchNtB5_15BinaryBenchmark15extract_benches
FN:523,_RNvMs4_NtCsdVUoCTQwUTs_15gungraun_macros9bin_benchNtB5_15BinaryBenchmark17render_standalone
FN:637,_RNvMs6_NtCsdVUoCTQwUTs_15gungraun_macros9bin_benchNtB5_21BinaryBenchmarkConfig14render_as_code
FN:674,_RNvMs9_NtCsdVUoCTQwUTs_15gungraun_macros9bin_benchNtB5_5Setup10parse_pair
FN:716,_RNvMs9_NtCsdVUoCTQwUTs_15gungraun_macros9bin_benchNtB5_5Setup14render_as_code
FN:724,_RNvMs9_NtCsdVUoCTQwUTs_15gungraun_macros9bin_benchNtB5_5Setup16render_as_member
FN:720,_RNvMs9_NtCsdVUoCTQwUTs_15gungraun_macros9bin_benchNtB5_5Setup19render_as_iter_code
FN:696,_RNvMs9_NtCsdVUoCTQwUTs_15gungraun_macros9bin_benchNtB5_5Setup19to_string_with_args
FN:705,_RNvMs9_NtCsdVUoCTQwUTs_15gungraun_macros9bin_benchNtB5_5Setup19to_string_with_iter
FN:670,_RNvMs9_NtCsdVUoCTQwUTs_15gungraun_macros9bin_benchNtB5_5Setup5ident
FN:690,_RNvMs9_NtCsdVUoCTQwUTs_15gungraun_macros9bin_benchNtB5_5Setup6update
FN:685,_RNvMs9_NtCsdVUoCTQwUTs_15gungraun_macros9bin_benchNtB5_5Setup7is_some
FN:734,_RNvMsa_NtCsdVUoCTQwUTs_15gungraun_macros9bin_benchNtB5_8Teardown10parse_pair
FN:752,_RNvMsa_NtCsdVUoCTQwUTs_15gungraun_macros9bin_benchNtB5_8Teardown14render_as_code
FN:760,_RNvMsa_NtCsdVUoCTQwUTs_15gungraun_macros9bin_benchNtB5_8Teardown16render_as_member
FN:756,_RNvMsa_NtCsdVUoCTQwUTs_15gungraun_macros9bin_benchNtB5_8Teardown19render_as_iter_code
FN:730,_RNvMsa_NtCsdVUoCTQwUTs_15gungraun_macros9bin_benchNtB5_8Teardown5ident
FN:746,_RNvMsa_NtCsdVUoCTQwUTs_15gungraun_macros9bin_benchNtB5_8Teardown6update
FN:765,_RNvNtCsdVUoCTQwUTs_15gungraun_macros9bin_bench6render
FN:78,_RNvXNtCsdVUoCTQwUTs_15gungraun_macros9bin_benchNtB2_4ArgsNtNtCs78vtsH2YuCh_5quote9to_tokens8ToTokens9to_tokens
FN:425,_RNvXs3_NtCsdVUoCTQwUTs_15gungraun_macros9bin_benchNtB5_9BenchModeINtNtCs2va5m0jqTTM_4core7convert4FromNtNtB7_6common9BenchModeE4from
FN:601,_RNvXs5_NtCsdVUoCTQwUTs_15gungraun_macros9bin_benchNtB5_15BinaryBenchmarkNtNtCseSkPA7Sfx0z_3syn5parse5Parse5parse
FN:658,_RNvXs7_NtCsdVUoCTQwUTs_15gungraun_macros9bin_benchNtB5_6ConstsINtNtCs2va5m0jqTTM_4core7convert4FromNtNtB7_6common6ConstsE4from
FN:664,_RNvXs8_NtCsdVUoCTQwUTs_15gungraun_macros9bin_benchNtB5_4IterNtNtCs2va5m0jqTTM_4core3fmt7Display3fmt
FN:84,_RNvXs_NtCsdVUoCTQwUTs_15gungraun_macros9bin_benchNtB4_4ArgsNtNtCs2va5m0jqTTM_4core3fmt7Display3fmt
FN:283,_RNCNvMs1_NtCsdVUoCTQwUTs_15gungraun_macros9bin_benchNtB7_5Bench23parse_benches_attribute0B9_
FN:455,_RNCNvMs4_NtCsdVUoCTQwUTs_15gungraun_macros9bin_benchNtB7_15BinaryBenchmark15extract_benches0B9_
FN:480,_RNCNvMs4_NtCsdVUoCTQwUTs_15gungraun_macros9bin_benchNtB7_15BinaryBenchmark15extract_benchess_0B9_
FN:283,_RNCNvMs1_NtCs4VtoIICFLcm_15gungraun_macros9bin_benchNtB7_5Bench23parse_benches_attribute0B9_
FN:455,_RNCNvMs4_NtCs4VtoIICFLcm_15gungraun_macros9bin_benchNtB7_15BinaryBenchmark15extract_benches0B9_
FN:480,_RNCNvMs4_NtCs4VtoIICFLcm_15gungraun_macros9bin_benchNtB7_15BinaryBenchmark15extract_benchess_0B9_
FN:91,_RNvMs0_NtCs4VtoIICFLcm_15gungraun_macros9bin_benchNtB5_17AssistantRenderer14render_as_code
FN:137,_RNvMs0_NtCs4VtoIICFLcm_15gungraun_macros9bin_benchNtB5_17AssistantRenderer16render_as_member
FN:108,_RNvMs0_NtCs4VtoIICFLcm_15gungraun_macros9bin_benchNtB5_17AssistantRenderer19render_as_iter_code
FN:297,_RNvMs1_NtCs4VtoIICFLcm_15gungraun_macros9bin_benchNtB5_5Bench14render_as_code
FN:346,_RNvMs1_NtCs4VtoIICFLcm_15gungraun_macros9bin_benchNtB5_5Bench16render_as_member
FN:155,_RNvMs1_NtCs4VtoIICFLcm_15gungraun_macros9bin_benchNtB5_5Bench21parse_bench_attribute
FN:217,_RNvMs1_NtCs4VtoIICFLcm_15gungraun_macros9bin_benchNtB5_5Bench23parse_benches_attribute
FN:401,_RNvMs2_NtCs4VtoIICFLcm_15gungraun_macros9bin_benchNtB5_11BenchConfig14render_as_code
FN:414,_RNvMs2_NtCs4VtoIICFLcm_15gungraun_macros9bin_benchNtB5_11BenchConfig16render_as_member
FN:397,_RNvMs2_NtCs4VtoIICFLcm_15gungraun_macros9bin_benchNtB5_11BenchConfig5ident
FN:564,_RNvMs4_NtCs4VtoIICFLcm_15gungraun_macros9bin_benchNtB5_15BinaryBenchmark14render_benches
FN:434,_RNvMs4_NtCs4VtoIICFLcm_15gungraun_macros9bin_benchNtB5_15BinaryBenchmark15extract_benches
FN:523,_RNvMs4_NtCs4VtoIICFLcm_15gungraun_macros9bin_benchNtB5_15BinaryBenchmark17render_standalone
FN:637,_RNvMs6_NtCs4VtoIICFLcm_15gungraun_macros9bin_benchNtB5_21BinaryBenchmarkConfig14render_as_code
FN:674,_RNvMs9_NtCs4VtoIICFLcm_15gungraun_macros9bin_benchNtB5_5Setup10parse_pair
FN:716,_RNvMs9_NtCs4VtoIICFLcm_15gungraun_macros9bin_benchNtB5_5Setup14render_as_code
FN:724,_RNvMs9_NtCs4VtoIICFLcm_15gungraun_macros9bin_benchNtB5_5Setup16render_as_member
FN:720,_RNvMs9_NtCs4VtoIICFLcm_15gungraun_macros9bin_benchNtB5_5Setup19render_as_iter_code
FN:696,_RNvMs9_NtCs4VtoIICFLcm_15gungraun_macros9bin_benchNtB5_5Setup19to_string_with_args
FN:705,_RNvMs9_NtCs4VtoIICFLcm_15gungraun_macros9bin_benchNtB5_5Setup19to_string_with_iter
FN:670,_RNvMs9_NtCs4VtoIICFLcm_15gungraun_macros9bin_benchNtB5_5Setup5ident
FN:690,_RNvMs9_NtCs4VtoIICFLcm_15gungraun_macros9bin_benchNtB5_5Setup6update
FN:685,_RNvMs9_NtCs4VtoIICFLcm_15gungraun_macros9bin_benchNtB5_5Setup7is_some
FN:734,_RNvMsa_NtCs4VtoIICFLcm_15gungraun_macros9bin_benchNtB5_8Teardown10parse_pair
FN:752,_RNvMsa_NtCs4VtoIICFLcm_15gungraun_macros9bin_benchNtB5_8Teardown14render_as_code
FN:760,_RNvMsa_NtCs4VtoIICFLcm_15gungraun_macros9bin_benchNtB5_8Teardown16render_as_member
FN:756,_RNvMsa_NtCs4VtoIICFLcm_15gungraun_macros9bin_benchNtB5_8Teardown19render_as_iter_code
FN:730,_RNvMsa_NtCs4VtoIICFLcm_15gungraun_macros9bin_benchNtB5_8Teardown5ident
FN:746,_RNvMsa_NtCs4VtoIICFLcm_15gungraun_macros9bin_benchNtB5_8Teardown6update
FN:765,_RNvNtCs4VtoIICFLcm_15gungraun_macros9bin_bench6render
FN:78,_RNvXNtCs4VtoIICFLcm_15gungraun_macros9bin_benchNtB2_4ArgsNtNtCs5zTqYJ1QKLS_5quote9to_tokens8ToTokens9to_tokens
FN:425,_RNvXs3_NtCs4VtoIICFLcm_15gungraun_macros9bin_benchNtB5_9BenchModeINtNtCs2va5m0jqTTM_4core7convert4FromNtNtB7_6common9BenchModeE4from
FN:601,_RNvXs5_NtCs4VtoIICFLcm_15gungraun_macros9bin_benchNtB5_15BinaryBenchmarkNtNtCs7YDbPhiuUg2_3syn5parse5Parse5parse
FN:658,_RNvXs7_NtCs4VtoIICFLcm_15gungraun_macros9bin_benchNtB5_6ConstsINtNtCs2va5m0jqTTM_4core7convert4FromNtNtB7_6common6ConstsE4from
FN:664,_RNvXs8_NtCs4VtoIICFLcm_15gungraun_macros9bin_benchNtB5_4IterNtNtCs2va5m0jqTTM_4core3fmt7Display3fmt
FN:84,_RNvXs_NtCs4VtoIICFLcm_15gungraun_macros9bin_benchNtB4_4ArgsNtNtCs2va5m0jqTTM_4core3fmt7Display3fmt
FNDA:0,_RNCNvMs1_NtCs2b4E09oIUXa_15gungraun_macros9bin_benchNtB7_5Bench23parse_benches_attribute0B9_
FNDA:0,_RNCNvMs4_NtCs2b4E09oIUXa_15gungraun_macros9bin_benchNtB7_15BinaryBenchmark15extract_benches0B9_
FNDA:0,_RNCNvMs4_NtCs2b4E09oIUXa_15gungraun_macros9bin_benchNtB7_15BinaryBenchmark15extract_benchess_0B9_
FNDA:0,_RNvMs0_NtCs2b4E09oIUXa_15gungraun_macros9bin_benchNtB5_17AssistantRenderer14render_as_code
FNDA:0,_RNvMs0_NtCs2b4E09oIUXa_15gungraun_macros9bin_benchNtB5_17AssistantRenderer16render_as_member
FNDA:0,_RNvMs0_NtCs2b4E09oIUXa_15gungraun_macros9bin_benchNtB5_17AssistantRenderer19render_as_iter_code
FNDA:0,_RNvMs1_NtCs2b4E09oIUXa_15gungraun_macros9bin_benchNtB5_5Bench14render_as_code
FNDA:0,_RNvMs1_NtCs2b4E09oIUXa_15gungraun_macros9bin_benchNtB5_5Bench16render_as_member
FNDA:0,_RNvMs1_NtCs2b4E09oIUXa_15gungraun_macros9bin_benchNtB5_5Bench21parse_bench_attribute
FNDA:0,_RNvMs1_NtCs2b4E09oIUXa_15gungraun_macros9bin_benchNtB5_5Bench23parse_benches_attribute
FNDA:0,_RNvMs2_NtCs2b4E09oIUXa_15gungraun_macros9bin_benchNtB5_11BenchConfig14render_as_code
FNDA:0,_RNvMs2_NtCs2b4E09oIUXa_15gungraun_macros9bin_benchNtB5_11BenchConfig16render_as_member
FNDA:0,_RNvMs2_NtCs2b4E09oIUXa_15gungraun_macros9bin_benchNtB5_11BenchConfig5ident
FNDA:0,_RNvMs4_NtCs2b4E09oIUXa_15gungraun_macros9bin_benchNtB5_15BinaryBenchmark14render_benches
FNDA:0,_RNvMs4_NtCs2b4E09oIUXa_15gungraun_macros9bin_benchNtB5_15BinaryBenchmark15extract_benches
FNDA:0,_RNvMs4_NtCs2b4E09oIUXa_15gungraun_macros9bin_benchNtB5_15BinaryBenchmark17render_standalone
FNDA:0,_RNvMs6_NtCs2b4E09oIUXa_15gungraun_macros9bin_benchNtB5_21BinaryBenchmarkConfig14render_as_code
FNDA:0,_RNvMs9_NtCs2b4E09oIUXa_15gungraun_macros9bin_benchNtB5_5Setup10parse_pair
FNDA:0,_RNvMs9_NtCs2b4E09oIUXa_15gungraun_macros9bin_benchNtB5_5Setup14render_as_code
FNDA:0,_RNvMs9_NtCs2b4E09oIUXa_15gungraun_macros9bin_benchNtB5_5Setup16render_as_member
FNDA:0,_RNvMs9_NtCs2b4E09oIUXa_15gungraun_macros9bin_benchNtB5_5Setup19render_as_iter_code
FNDA:0,_RNvMs9_NtCs2b4E09oIUXa_15gungraun_macros9bin_benchNtB5_5Setup19to_string_with_args
FNDA:0,_RNvMs9_NtCs2b4E09oIUXa_15gungraun_macros9bin_benchNtB5_5Setup19to_string_with_iter
FNDA:0,_RNvMs9_NtCs2b4E09oIUXa_15gungraun_macros9bin_benchNtB5_5Setup5ident
FNDA:0,_RNvMs9_NtCs2b4E09oIUXa_15gungraun_macros9bin_benchNtB5_5Setup6update
FNDA:0,_RNvMs9_NtCs2b4E09oIUXa_15gungraun_macros9bin_benchNtB5_5Setup7is_some
FNDA:0,_RNvMsa_NtCs2b4E09oIUXa_15gungraun_macros9bin_benchNtB5_8Teardown10parse_pair
FNDA:0,_RNvMsa_NtCs2b4E09oIUXa_15gungraun_macros9bin_benchNtB5_8Teardown14render_as_code
FNDA:0,_RNvMsa_NtCs2b4E09oIUXa_15gungraun_macros9bin_benchNtB5_8Teardown16render_as_member
FNDA:0,_RNvMsa_NtCs2b4E09oIUXa_15gungraun_macros9bin_benchNtB5_8Teardown19render_as_iter_code
FNDA:0,_RNvMsa_NtCs2b4E09oIUXa_15gungraun_macros9bin_benchNtB5_8Teardown5ident
FNDA:0,_RNvMsa_NtCs2b4E09oIUXa_15gungraun_macros9bin_benchNtB5_8Teardown6update
FNDA:0,_RNvNtCs2b4E09oIUXa_15gungraun_macros9bin_bench6render
FNDA:0,_RNvXNtCs2b4E09oIUXa_15gungraun_macros9bin_benchNtB2_4ArgsNtNtCsaGWFmk4Cc5n_5quote9to_tokens8ToTokens9to_tokens
FNDA:0,_RNvXs3_NtCs2b4E09oIUXa_15gungraun_macros9bin_benchNtB5_9BenchModeINtNtCsgEmfK2I1SDS_4core7convert4FromNtNtB7_6common9BenchModeE4from
FNDA:0,_RNvXs5_NtCs2b4E09oIUXa_15gungraun_macros9bin_benchNtB5_15BinaryBenchmarkNtNtCs18ZQ9XUxf5Z_3syn5parse5Parse5parse
FNDA:0,_RNvXs7_NtCs2b4E09oIUXa_15gungraun_macros9bin_benchNtB5_6ConstsINtNtCsgEmfK2I1SDS_4core7convert4FromNtNtB7_6common6ConstsE4from
FNDA:0,_RNvXs8_NtCs2b4E09oIUXa_15gungraun_macros9bin_benchNtB5_4IterNtNtCsgEmfK2I1SDS_4core3fmt7Display3fmt
FNDA:0,_RNvXs_NtCs2b4E09oIUXa_15gungraun_macros9bin_benchNtB4_4ArgsNtNtCsgEmfK2I1SDS_4core3fmt7Display3fmt
FNDA:0,_RNCNvMs1_NtCsefbuI5cqeZT_15gungraun_macros9bin_benchNtB7_5Bench23parse_benches_attribute0B9_
FNDA:5,_RNCNvMs4_NtCsefbuI5cqeZT_15gungraun_macros9bin_benchNtB7_15BinaryBenchmark15extract_benches0B9_
FNDA:0,_RNCNvMs4_NtCsefbuI5cqeZT_15gungraun_macros9bin_benchNtB7_15BinaryBenchmark15extract_benchess_0B9_
FNDA:12,_RNvMs0_NtCsefbuI5cqeZT_15gungraun_macros9bin_benchNtB5_17AssistantRenderer14render_as_code
FNDA:12,_RNvMs0_NtCsefbuI5cqeZT_15gungraun_macros9bin_benchNtB5_17AssistantRenderer16render_as_member
FNDA:0,_RNvMs0_NtCsefbuI5cqeZT_15gungraun_macros9bin_benchNtB5_17AssistantRenderer19render_as_iter_code
FNDA:5,_RNvMs1_NtCsefbuI5cqeZT_15gungraun_macros9bin_benchNtB5_5Bench14render_as_code
FNDA:5,_RNvMs1_NtCsefbuI5cqeZT_15gungraun_macros9bin_benchNtB5_5Bench16render_as_member
FNDA:5,_RNvMs1_NtCsefbuI5cqeZT_15gungraun_macros9bin_benchNtB5_5Bench21parse_bench_attribute
FNDA:0,_RNvMs1_NtCsefbuI5cqeZT_15gungraun_macros9bin_benchNtB5_5Bench23parse_benches_attribute
FNDA:5,_RNvMs2_NtCsefbuI5cqeZT_15gungraun_macros9bin_benchNtB5_11BenchConfig14render_as_code
FNDA:5,_RNvMs2_NtCsefbuI5cqeZT_15gungraun_macros9bin_benchNtB5_11BenchConfig16render_as_member
FNDA:4,_RNvMs2_NtCsefbuI5cqeZT_15gungraun_macros9bin_benchNtB5_11BenchConfig5ident
FNDA:2,_RNvMs4_NtCsefbuI5cqeZT_15gungraun_macros9bin_benchNtB5_15BinaryBenchmark14render_benches
FNDA:3,_RNvMs4_NtCsefbuI5cqeZT_15gungraun_macros9bin_benchNtB5_15BinaryBenchmark15extract_benches
FNDA:1,_RNvMs4_NtCsefbuI5cqeZT_15gungraun_macros9bin_benchNtB5_15BinaryBenchmark17render_standalone
FNDA:3,_RNvMs6_NtCsefbuI5cqeZT_15gungraun_macros9bin_benchNtB5_21BinaryBenchmarkConfig14render_as_code
FNDA:4,_RNvMs9_NtCsefbuI5cqeZT_15gungraun_macros9bin_benchNtB5_5Setup10parse_pair
FNDA:6,_RNvMs9_NtCsefbuI5cqeZT_15gungraun_macros9bin_benchNtB5_5Setup14render_as_code
FNDA:6,_RNvMs9_NtCsefbuI5cqeZT_15gungraun_macros9bin_benchNtB5_5Setup16render_as_member
FNDA:0,_RNvMs9_NtCsefbuI5cqeZT_15gungraun_macros9bin_benchNtB5_5Setup19render_as_iter_code
FNDA:5,_RNvMs9_NtCsefbuI5cqeZT_15gungraun_macros9bin_benchNtB5_5Setup19to_string_with_args
FNDA:0,_RNvMs9_NtCsefbuI5cqeZT_15gungraun_macros9bin_benchNtB5_5Setup19to_string_with_iter
FNDA:12,_RNvMs9_NtCsefbuI5cqeZT_15gungraun_macros9bin_benchNtB5_5Setup5ident
FNDA:5,_RNvMs9_NtCsefbuI5cqeZT_15gungraun_macros9bin_benchNtB5_5Setup6update
FNDA:5,_RNvMs9_NtCsefbuI5cqeZT_15gungraun_macros9bin_benchNtB5_5Setup7is_some
FNDA:4,_RNvMsa_NtCsefbuI5cqeZT_15gungraun_macros9bin_benchNtB5_8Teardown10parse_pair
FNDA:6,_RNvMsa_NtCsefbuI5cqeZT_15gungraun_macros9bin_benchNtB5_8Teardown14render_as_code
FNDA:6,_RNvMsa_NtCsefbuI5cqeZT_15gungraun_macros9bin_benchNtB5_8Teardown16render_as_member
FNDA:0,_RNvMsa_NtCsefbuI5cqeZT_15gungraun_macros9bin_benchNtB5_8Teardown19render_as_iter_code
FNDA:12,_RNvMsa_NtCsefbuI5cqeZT_15gungraun_macros9bin_benchNtB5_8Teardown5ident
FNDA:5,_RNvMsa_NtCsefbuI5cqeZT_15gungraun_macros9bin_benchNtB5_8Teardown6update
FNDA:3,_RNvNtCsefbuI5cqeZT_15gungraun_macros9bin_bench6render
FNDA:0,_RNvXNtCsefbuI5cqeZT_15gungraun_macros9bin_benchNtB2_4ArgsNtNtCsaGWFmk4Cc5n_5quote9to_tokens8ToTokens9to_tokens
FNDA:0,_RNvXs3_NtCsefbuI5cqeZT_15gungraun_macros9bin_benchNtB5_9BenchModeINtNtCsgEmfK2I1SDS_4core7convert4FromNtNtB7_6common9BenchModeE4from
FNDA:3,_RNvXs5_NtCsefbuI5cqeZT_15gungraun_macros9bin_benchNtB5_15BinaryBenchmarkNtNtCsdgWaRgXFEK2_3syn5parse5Parse5parse
FNDA:0,_RNvXs7_NtCsefbuI5cqeZT_15gungraun_macros9bin_benchNtB5_6ConstsINtNtCsgEmfK2I1SDS_4core7convert4FromNtNtB7_6common6ConstsE4from
FNDA:0,_RNvXs8_NtCsefbuI5cqeZT_15gungraun_macros9bin_benchNtB5_4IterNtNtCsgEmfK2I1SDS_4core3fmt7Display3fmt
FNDA:5,_RNvXs_NtCsefbuI5cqeZT_15gungraun_macros9bin_benchNtB4_4ArgsNtNtCsgEmfK2I1SDS_4core3fmt7Display3fmt
FNDA:0,_RNvMs0_NtCsdVUoCTQwUTs_15gungraun_macros9bin_benchNtB5_17AssistantRenderer14render_as_code
FNDA:0,_RNvMs0_NtCsdVUoCTQwUTs_15gungraun_macros9bin_benchNtB5_17AssistantRenderer16render_as_member
FNDA:0,_RNvMs0_NtCsdVUoCTQwUTs_15gungraun_macros9bin_benchNtB5_17AssistantRenderer19render_as_iter_code
FNDA:0,_RNvMs1_NtCsdVUoCTQwUTs_15gungraun_macros9bin_benchNtB5_5Bench14render_as_code
FNDA:0,_RNvMs1_NtCsdVUoCTQwUTs_15gungraun_macros9bin_benchNtB5_5Bench16render_as_member
FNDA:0,_RNvMs1_NtCsdVUoCTQwUTs_15gungraun_macros9bin_benchNtB5_5Bench21parse_bench_attribute
FNDA:0,_RNvMs1_NtCsdVUoCTQwUTs_15gungraun_macros9bin_benchNtB5_5Bench23parse_benches_attribute
FNDA:0,_RNvMs2_NtCsdVUoCTQwUTs_15gungraun_macros9bin_benchNtB5_11BenchConfig14render_as_code
FNDA:0,_RNvMs2_NtCsdVUoCTQwUTs_15gungraun_macros9bin_benchNtB5_11BenchConfig16render_as_member
FNDA:0,_RNvMs2_NtCsdVUoCTQwUTs_15gungraun_macros9bin_benchNtB5_11BenchConfig5ident
FNDA:0,_RNvMs4_NtCsdVUoCTQwUTs_15gungraun_macros9bin_benchNtB5_15BinaryBenchmark14render_benches
FNDA:0,_RNvMs4_NtCsdVUoCTQwUTs_15gungraun_macros9bin_benchNtB5_15BinaryBenchmark15extract_benches
FNDA:0,_RNvMs4_NtCsdVUoCTQwUTs_15gungraun_macros9bin_benchNtB5_15BinaryBenchmark17render_standalone
FNDA:0,_RNvMs6_NtCsdVUoCTQwUTs_15gungraun_macros9bin_benchNtB5_21BinaryBenchmarkConfig14render_as_code
FNDA:0,_RNvMs9_NtCsdVUoCTQwUTs_15gungraun_macros9bin_benchNtB5_5Setup10parse_pair
FNDA:0,_RNvMs9_NtCsdVUoCTQwUTs_15gungraun_macros9bin_benchNtB5_5Setup14render_as_code
FNDA:0,_RNvMs9_NtCsdVUoCTQwUTs_15gungraun_macros9bin_benchNtB5_5Setup16render_as_member
FNDA:0,_RNvMs9_NtCsdVUoCTQwUTs_15gungraun_macros9bin_benchNtB5_5Setup19render_as_iter_code
FNDA:0,_RNvMs9_NtCsdVUoCTQwUTs_15gungraun_macros9bin_benchNtB5_5Setup19to_string_with_args
FNDA:0,_RNvMs9_NtCsdVUoCTQwUTs_15gungraun_macros9bin_benchNtB5_5Setup19to_string_with_iter
FNDA:0,_RNvMs9_NtCsdVUoCTQwUTs_15gungraun_macros9bin_benchNtB5_5Setup5ident
FNDA:0,_RNvMs9_NtCsdVUoCTQwUTs_15gungraun_macros9bin_benchNtB5_5Setup6update
FNDA:0,_RNvMs9_NtCsdVUoCTQwUTs_15gungraun_macros9bin_benchNtB5_5Setup7is_some
FNDA:0,_RNvMsa_NtCsdVUoCTQwUTs_15gungraun_macros9bin_benchNtB5_8Teardown10parse_pair
FNDA:0,_RNvMsa_NtCsdVUoCTQwUTs_15gungraun_macros9bin_benchNtB5_8Teardown14render_as_code
FNDA:0,_RNvMsa_NtCsdVUoCTQwUTs_15gungraun_macros9bin_benchNtB5_8Teardown16render_as_member
FNDA:0,_RNvMsa_NtCsdVUoCTQwUTs_15gungraun_macros9bin_benchNtB5_8Teardown19render_as_iter_code
FNDA:0,_RNvMsa_NtCsdVUoCTQwUTs_15gungraun_macros9bin_benchNtB5_8Teardown5ident
FNDA:0,_RNvMsa_NtCsdVUoCTQwUTs_15gungraun_macros9bin_benchNtB5_8Teardown6update
FNDA:0,_RNvNtCsdVUoCTQwUTs_15gungraun_macros9bin_bench6render
FNDA:0,_RNvXNtCsdVUoCTQwUTs_15gungraun_macros9bin_benchNtB2_4ArgsNtNtCs78vtsH2YuCh_5quote9to_tokens8ToTokens9to_tokens
FNDA:0,_RNvXs3_NtCsdVUoCTQwUTs_15gungraun_macros9bin_benchNtB5_9BenchModeINtNtCs2va5m0jqTTM_4core7convert4FromNtNtB7_6common9BenchModeE4from
FNDA:0,_RNvXs5_NtCsdVUoCTQwUTs_15gungraun_macros9bin_benchNtB5_15BinaryBenchmarkNtNtCseSkPA7Sfx0z_3syn5parse5Parse5parse
FNDA:0,_RNvXs7_NtCsdVUoCTQwUTs_15gungraun_macros9bin_benchNtB5_6ConstsINtNtCs2va5m0jqTTM_4core7convert4FromNtNtB7_6common6ConstsE4from
FNDA:0,_RNvXs8_NtCsdVUoCTQwUTs_15gungraun_macros9bin_benchNtB5_4IterNtNtCs2va5m0jqTTM_4core3fmt7Display3fmt
FNDA:0,_RNvXs_NtCsdVUoCTQwUTs_15gungraun_macros9bin_benchNtB4_4ArgsNtNtCs2va5m0jqTTM_4core3fmt7Display3fmt
FNDA:0,_RNCNvMs1_NtCsdVUoCTQwUTs_15gungraun_macros9bin_benchNtB7_5Bench23parse_benches_attribute0B9_
FNDA:0,_RNCNvMs4_NtCsdVUoCTQwUTs_15gungraun_macros9bin_benchNtB7_15BinaryBenchmark15extract_benches0B9_
FNDA:0,_RNCNvMs4_NtCsdVUoCTQwUTs_15gungraun_macros9bin_benchNtB7_15BinaryBenchmark15extract_benchess_0B9_
FNDA:154,_RNCNvMs1_NtCs4VtoIICFLcm_15gungraun_macros9bin_benchNtB7_5Bench23parse_benches_attribute0B9_
FNDA:76,_RNCNvMs4_NtCs4VtoIICFLcm_15gungraun_macros9bin_benchNtB7_15BinaryBenchmark15extract_benches0B9_
FNDA:133,_RNCNvMs4_NtCs4VtoIICFLcm_15gungraun_macros9bin_benchNtB7_15BinaryBenchmark15extract_benchess_0B9_
FNDA:394,_RNvMs0_NtCs4VtoIICFLcm_15gungraun_macros9bin_benchNtB5_17AssistantRenderer14render_as_code
FNDA:488,_RNvMs0_NtCs4VtoIICFLcm_15gungraun_macros9bin_benchNtB5_17AssistantRenderer16render_as_member
FNDA:94,_RNvMs0_NtCs4VtoIICFLcm_15gungraun_macros9bin_benchNtB5_17AssistantRenderer19render_as_iter_code
FNDA:227,_RNvMs1_NtCs4VtoIICFLcm_15gungraun_macros9bin_benchNtB5_5Bench14render_as_code
FNDA:225,_RNvMs1_NtCs4VtoIICFLcm_15gungraun_macros9bin_benchNtB5_5Bench16render_as_member
FNDA:76,_RNvMs1_NtCs4VtoIICFLcm_15gungraun_macros9bin_benchNtB5_5Bench21parse_bench_attribute
FNDA:133,_RNvMs1_NtCs4VtoIICFLcm_15gungraun_macros9bin_benchNtB5_5Bench23parse_benches_attribute
FNDA:225,_RNvMs2_NtCs4VtoIICFLcm_15gungraun_macros9bin_benchNtB5_11BenchConfig14render_as_code
FNDA:225,_RNvMs2_NtCs4VtoIICFLcm_15gungraun_macros9bin_benchNtB5_11BenchConfig16render_as_member
FNDA:10,_RNvMs2_NtCs4VtoIICFLcm_15gungraun_macros9bin_benchNtB5_11BenchConfig5ident
FNDA:184,_RNvMs4_NtCs4VtoIICFLcm_15gungraun_macros9bin_benchNtB5_15BinaryBenchmark14render_benches
FNDA:222,_RNvMs4_NtCs4VtoIICFLcm_15gungraun_macros9bin_benchNtB5_15BinaryBenchmark15extract_benches
FNDA:19,_RNvMs4_NtCs4VtoIICFLcm_15gungraun_macros9bin_benchNtB5_15BinaryBenchmark17render_standalone
FNDA:201,_RNvMs6_NtCs4VtoIICFLcm_15gungraun_macros9bin_benchNtB5_21BinaryBenchmarkConfig14render_as_code
FNDA:24,_RNvMs9_NtCs4VtoIICFLcm_15gungraun_macros9bin_benchNtB5_5Setup10parse_pair
FNDA:197,_RNvMs9_NtCs4VtoIICFLcm_15gungraun_macros9bin_benchNtB5_5Setup14render_as_code
FNDA:244,_RNvMs9_NtCs4VtoIICFLcm_15gungraun_macros9bin_benchNtB5_5Setup16render_as_member
FNDA:47,_RNvMs9_NtCs4VtoIICFLcm_15gungraun_macros9bin_benchNtB5_5Setup19render_as_iter_code
FNDA:178,_RNvMs9_NtCs4VtoIICFLcm_15gungraun_macros9bin_benchNtB5_5Setup19to_string_with_args
FNDA:47,_RNvMs9_NtCs4VtoIICFLcm_15gungraun_macros9bin_benchNtB5_5Setup19to_string_with_iter
FNDA:488,_RNvMs9_NtCs4VtoIICFLcm_15gungraun_macros9bin_benchNtB5_5Setup5ident
FNDA:200,_RNvMs9_NtCs4VtoIICFLcm_15gungraun_macros9bin_benchNtB5_5Setup6update
FNDA:200,_RNvMs9_NtCs4VtoIICFLcm_15gungraun_macros9bin_benchNtB5_5Setup7is_some
FNDA:22,_RNvMsa_NtCs4VtoIICFLcm_15gungraun_macros9bin_benchNtB5_8Teardown10parse_pair
FNDA:197,_RNvMsa_NtCs4VtoIICFLcm_15gungraun_macros9bin_benchNtB5_8Teardown14render_as_code
FNDA:244,_RNvMsa_NtCs4VtoIICFLcm_15gungraun_macros9bin_benchNtB5_8Teardown16render_as_member
FNDA:47,_RNvMsa_NtCs4VtoIICFLcm_15gungraun_macros9bin_benchNtB5_8Teardown19render_as_iter_code
FNDA:488,_RNvMsa_NtCs4VtoIICFLcm_15gungraun_macros9bin_benchNtB5_8Teardown5ident
FNDA:200,_RNvMsa_NtCs4VtoIICFLcm_15gungraun_macros9bin_benchNtB5_8Teardown6update
FNDA:222,_RNvNtCs4VtoIICFLcm_15gungraun_macros9bin_bench6render
FNDA:10,_RNvXNtCs4VtoIICFLcm_15gungraun_macros9bin_benchNtB2_4ArgsNtNtCs5zTqYJ1QKLS_5quote9to_tokens8ToTokens9to_tokens
FNDA:154,_RNvXs3_NtCs4VtoIICFLcm_15gungraun_macros9bin_benchNtB5_9BenchModeINtNtCs2va5m0jqTTM_4core7convert4FromNtNtB7_6common9BenchModeE4from
FNDA:222,_RNvXs5_NtCs4VtoIICFLcm_15gungraun_macros9bin_benchNtB5_15BinaryBenchmarkNtNtCs7YDbPhiuUg2_3syn5parse5Parse5parse
FNDA:93,_RNvXs7_NtCs4VtoIICFLcm_15gungraun_macros9bin_benchNtB5_6ConstsINtNtCs2va5m0jqTTM_4core7convert4FromNtNtB7_6common6ConstsE4from
FNDA:47,_RNvXs8_NtCs4VtoIICFLcm_15gungraun_macros9bin_benchNtB5_4IterNtNtCs2va5m0jqTTM_4core3fmt7Display3fmt
FNDA:178,_RNvXs_NtCs4VtoIICFLcm_15gungraun_macros9bin_benchNtB4_4ArgsNtNtCs2va5m0jqTTM_4core3fmt7Display3fmt
FNF:40
FNH:39
DA:78,0
DA:79,10
DA:80,10
DA:84,5
DA:85,178
DA:86,178
DA:87,178
DA:91,12
DA:92,406
DA:93,30
DA:94,0
DA:96,8
DA:98,8
DA:99,22
DA:100,22
DA:101,22
DA:102,22
DA:104,4
DA:106,406
DA:108,0
DA:109,26
DA:110,0
DA:111,22
DA:112,22
DA:113,22
DA:114,22
DA:115,22
DA:116,22
DA:117,22
DA:118,22
DA:119,22
DA:120,22
DA:121,22
DA:122,22
DA:123,22
DA:124,22
DA:125,22
DA:126,22
DA:128,0
DA:129,4
DA:130,4
DA:131,4
DA:132,4
DA:133,0
DA:135,94
DA:137,12
DA:138,12
DA:139,12
DA:140,12
DA:141,12
DA:142,0
DA:143,32
DA:144,22
DA:145,22
DA:146,8
DA:147,26
DA:148,26
DA:149,4
DA:151,500
DA:155,5
DA:156,5
DA:157,5
DA:158,5
DA:159,5
DA:160,5
DA:161,5
DA:162,76
DA:163,76
DA:164,76
DA:165,81
DA:167,5
DA:168,76
DA:169,76
DA:170,76
DA:171,76
DA:172,76
DA:173,76
DA:174,72
DA:175,174
DA:176,8
DA:177,2
DA:178,6
DA:179,0
DA:180,6
DA:181,3
DA:182,10
DA:183,10
DA:184,10
DA:185,9
DA:186,9
DA:187,0
DA:188,0
DA:189,0
DA:190,0
DA:196,1
DA:200,5
DA:201,73
DA:202,73
DA:203,73
DA:204,73
DA:205,73
DA:206,73
DA:207,5
DA:208,5
DA:209,5
DA:210,5
DA:211,5
DA:212,5
DA:213,5
DA:214,5
DA:215,79
DA:217,0
DA:218,0
DA:219,0
DA:220,0
DA:221,0
DA:222,0
DA:223,0
DA:224,0
DA:225,133
DA:226,133
DA:227,133
DA:228,133
DA:230,0
DA:231,133
DA:232,133
DA:233,133
DA:234,133
DA:235,133
DA:236,133
DA:237,133
DA:238,133
DA:239,133
DA:240,350
DA:241,0
DA:242,0
DA:243,0
DA:244,1
DA:245,4
DA:246,4
DA:247,14
DA:248,14
DA:249,14
DA:250,13
DA:251,13
DA:252,0
DA:253,53
DA:254,53
DA:255,53
DA:256,0
DA:257,0
DA:258,0
DA:259,0
DA:265,0
DA:269,0
DA:270,127
DA:271,127
DA:272,127
DA:273,127
DA:274,127
DA:275,127
DA:276,127
DA:277,127
DA:278,127
DA:279,127
DA:280,127
DA:281,127
DA:282,127
DA:283,154
DA:284,154
DA:285,154
DA:286,154
DA:287,154
DA:288,154
DA:289,154
DA:290,154
DA:291,154
DA:292,127
DA:293,127
DA:294,127
DA:295,128
DA:297,5
DA:298,227
DA:299,227
DA:300,227
DA:301,0
DA:302,49
DA:303,49
DA:304,49
DA:305,49
DA:306,49
DA:307,49
DA:308,49
DA:309,49
DA:310,49
DA:311,49
DA:312,49
DA:313,49
DA:314,49
DA:315,49
DA:316,49
DA:317,49
DA:318,49
DA:319,49
DA:320,49
DA:321,49
DA:322,49
DA:324,5
DA:325,178
DA:326,178
DA:327,178
DA:328,178
DA:329,178
DA:330,178
DA:331,178
DA:332,178
DA:333,178
DA:334,178
DA:335,178
DA:336,178
DA:337,178
DA:338,178
DA:339,178
DA:340,178
DA:341,178
DA:344,232
DA:346,5
DA:347,225
DA:348,225
DA:349,225
DA:351,230
DA:352,0
DA:353,0
DA:354,0
DA:355,0
DA:356,0
DA:357,0
DA:358,5
DA:359,5
DA:360,5
DA:361,5
DA:362,5
DA:363,5
DA:366,5
DA:368,230
DA:369,3
DA:371,2
DA:372,163
DA:375,230
DA:376,0
DA:377,129
DA:379,5
DA:382,5
DA:383,225
DA:384,225
DA:385,225
DA:386,225
DA:387,225
DA:388,225
DA:389,225
DA:390,225
DA:391,225
DA:392,225
DA:393,225
DA:397,4
DA:398,10
DA:399,10
DA:401,5
DA:402,230
DA:403,2
DA:404,5
DA:405,5
DA:406,5
DA:407,5
DA:408,5
DA:410,3
DA:412,230
DA:414,5
DA:415,225
DA:416,2
DA:417,5
DA:419,3
DA:421,230
DA:425,0
DA:426,154
DA:427,0
DA:428,0
DA:430,154
DA:434,3
DA:435,3
DA:436,3
DA:437,3
DA:438,3
DA:439,222
DA:440,222
DA:442,415
DA:443,5
DA:444,209
DA:445,214
DA:446,76
DA:448,0
DA:449,0
DA:450,0
DA:451,0
DA:452,0
DA:453,0
DA:454,81
DA:455,81
DA:456,0
DA:457,0
DA:458,0
DA:459,0
DA:460,0
DA:462,5
DA:463,76
DA:464,76
DA:465,76
DA:466,76
DA:467,76
DA:468,76
DA:470,133
DA:471,133
DA:473,0
DA:474,0
DA:475,0
DA:476,0
DA:477,0
DA:478,0
DA:479,133
DA:480,133
DA:481,0
DA:482,0
DA:483,0
DA:484,0
DA:485,0
DA:487,0
DA:488,133
DA:489,133
DA:490,133
DA:491,133
DA:492,133
DA:493,133
DA:494,133
DA:496,0
DA:497,0
DA:498,0
DA:499,0
DA:500,0
DA:501,0
DA:502,0
DA:503,0
DA:507,0
DA:512,206
DA:513,225
DA:523,1
DA:524,19
DA:525,19
DA:526,19
DA:527,1
DA:528,1
DA:529,1
DA:530,1
DA:531,1
DA:532,19
DA:533,19
DA:534,19
DA:535,19
DA:536,19
DA:537,19
DA:538,19
DA:539,19
DA:540,19
DA:541,19
DA:542,19
DA:543,19
DA:544,19
DA:545,19
DA:546,19
DA:547,19
DA:548,19
DA:549,19
DA:550,19
DA:551,19
DA:552,19
DA:553,19
DA:554,19
DA:555,19
DA:556,19
DA:557,19
DA:558,19
DA:559,19
DA:560,19
DA:561,19
DA:562,19
DA:564,2
DA:565,184
DA:566,2
DA:567,2
DA:568,2
DA:569,2
DA:570,2
DA:571,184
DA:572,184
DA:573,184
DA:574,184
DA:575,184
DA:576,413
DA:577,232
DA:578,232
DA:579,232
DA:581,2
DA:582,184
DA:583,184
DA:584,184
DA:585,184
DA:586,184
DA:587,184
DA:588,184
DA:589,184
DA:590,184
DA:591,184
DA:592,184
DA:593,184
DA:594,184
DA:595,184
DA:596,184
DA:597,184
DA:601,3
DA:602,222
DA:603,217
DA:605,3
DA:606,5
DA:607,5
DA:609,8
DA:610,13
DA:611,5
DA:612,2
DA:613,4
DA:614,4
DA:615,4
DA:616,4
DA:617,4
DA:618,0
DA:619,0
DA:620,0
DA:625,3
DA:626,3
DA:627,3
DA:628,3
DA:629,3
DA:630,3
DA:631,5
DA:633,225
DA:637,3
DA:638,204
DA:639,1
DA:640,1
DA:641,1
DA:642,1
DA:643,1
DA:644,1
DA:645,1
DA:647,2
DA:648,200
DA:649,200
DA:650,200
DA:651,200
DA:652,200
DA:654,204
DA:658,0
DA:659,93
DA:660,93
DA:664,0
DA:665,47
DA:666,47
DA:670,12
DA:671,488
DA:672,488
DA:674,4
DA:675,28
DA:676,28
DA:677,28
DA:678,0
DA:679,0
DA:680,0
DA:681,0
DA:683,28
DA:685,5
DA:686,200
DA:687,200
DA:690,5
DA:691,5
DA:692,1
DA:693,204
DA:694,205
DA:696,5
DA:697,14
DA:698,0
DA:699,4
DA:701,5
DA:703,183
DA:705,0
DA:706,13
DA:707,0
DA:708,11
DA:711,0
DA:714,47
DA:716,6
DA:717,197
DA:718,197
DA:720,0
DA:721,47
DA:722,47
DA:724,6
DA:725,244
DA:726,244
DA:730,12
DA:731,488
DA:732,488
DA:734,4
DA:735,26
DA:736,26
DA:737,26
DA:738,0
DA:739,0
DA:740,0
DA:741,0
DA:743,26
DA:746,5
DA:747,5
DA:748,1
DA:749,204
DA:750,205
DA:752,6
DA:753,197
DA:754,197
DA:756,0
DA:757,47
DA:758,47
DA:760,6
DA:761,244
DA:762,244
DA:765,3
DA:766,225
DA:767,225
DA:768,3
DA:769,222
DA:770,222
DA:771,3
DA:772,20
DA:774,203
DA:776,225
BRF:0
BRH:0
LF:564
LH:505
end_of_record
SF:/fast/lenny/workspace/programming/gungraun/gungraun/gungraun-macros/src/common.rs
FN:558,_RNCNCNvMs5_NtCs2b4E09oIUXa_15gungraun_macros6commonNtB9_6Consts12maybe_string00Bb_
FN:84,_RNCNvMNtCs2b4E09oIUXa_15gungraun_macros6commonNtB4_4Args3len0B6_
FN:253,_RNCNvMs1_NtCs2b4E09oIUXa_15gungraun_macros6commonNtB7_5Bench22from_benches_attribute0B9_
FN:551,_RNCNvMs5_NtCs2b4E09oIUXa_15gungraun_macros6commonNtB7_6Consts12maybe_string0B9_
FN:657,_RNCNvMs5_NtCs2b4E09oIUXa_15gungraun_macros6commonNtB7_6Consts17to_function_calls0B9_
FN:685,_RNCNvMs5_NtCs2b4E09oIUXa_15gungraun_macros6commonNtB7_6Consts17to_function_callss0_0B9_
FN:665,_RNCNvMs5_NtCs2b4E09oIUXa_15gungraun_macros6commonNtB7_6Consts17to_function_callss_0B9_
FN:539,_RNCNvMs5_NtCs2b4E09oIUXa_15gungraun_macros6commonNtB7_6Consts3len0B9_
FN:547,_RNCNvMs5_NtCs2b4E09oIUXa_15gungraun_macros6commonNtB7_6Consts5exprs0B9_
FN:543,_RNCNvMs5_NtCs2b4E09oIUXa_15gungraun_macros6commonNtB7_6Consts8is_empty0B9_
FN:763,_RNCNvMs8_NtCs2b4E09oIUXa_15gungraun_macros6commonNtB7_4File4read0B9_
FN:902,_RNCNvNtCs2b4E09oIUXa_15gungraun_macros6common17truncate_str_utf80B5_
FN:97,_RNvMNtCs2b4E09oIUXa_15gungraun_macros6commonNtB2_4Args10parse_pair
FN:139,_RNvMNtCs2b4E09oIUXa_15gungraun_macros6commonNtB2_4Args15parse_meta_list
FN:159,_RNvMNtCs2b4E09oIUXa_15gungraun_macros6commonNtB2_4Args19check_num_arguments
FN:148,_RNvMNtCs2b4E09oIUXa_15gungraun_macros6commonNtB2_4Args27to_tokens_without_black_box
FN:83,_RNvMNtCs2b4E09oIUXa_15gungraun_macros6commonNtB2_4Args3len
FN:79,_RNvMNtCs2b4E09oIUXa_15gungraun_macros6commonNtB2_4Args3new
FN:87,_RNvMNtCs2b4E09oIUXa_15gungraun_macros6commonNtB2_4Args4span
FN:91,_RNvMNtCs2b4E09oIUXa_15gungraun_macros6commonNtB2_4Args8set_span
FN:216,_RNvMs1_NtCs2b4E09oIUXa_15gungraun_macros6commonNtB5_5Bench22from_benches_attribute
FN:207,_RNvMs1_NtCs2b4E09oIUXa_15gungraun_macros6commonNtB5_5Bench3new
FN:347,_RNvMs2_NtCs2b4E09oIUXa_15gungraun_macros6commonNtB5_11BenchConfig10parse_pair
FN:343,_RNvMs2_NtCs2b4E09oIUXa_15gungraun_macros6commonNtB5_11BenchConfig5ident
FN:358,_RNvMs2_NtCs2b4E09oIUXa_15gungraun_macros6commonNtB5_11BenchConfig7is_some
FN:380,_RNvMs3_NtCs2b4E09oIUXa_15gungraun_macros6commonNtB5_11BenchesArgs10parse_pair
FN:441,_RNvMs3_NtCs2b4E09oIUXa_15gungraun_macros6commonNtB5_11BenchesArgs13iter_infinite
FN:429,_RNvMs3_NtCs2b4E09oIUXa_15gungraun_macros6commonNtB5_11BenchesArgs14from_meta_list
FN:368,_RNvMs3_NtCs2b4E09oIUXa_15gungraun_macros6commonNtB5_11BenchesArgs3len
FN:372,_RNvMs3_NtCs2b4E09oIUXa_15gungraun_macros6commonNtB5_11BenchesArgs3new
FN:364,_RNvMs3_NtCs2b4E09oIUXa_15gungraun_macros6commonNtB5_11BenchesArgs7is_some
FN:408,_RNvMs3_NtCs2b4E09oIUXa_15gungraun_macros6commonNtB5_11BenchesArgs9from_expr
FN:456,_RNvMs4_NtCs2b4E09oIUXa_15gungraun_macros6commonNtB5_13BenchesConsts10parse_pair
FN:506,_RNvMs4_NtCs2b4E09oIUXa_15gungraun_macros6commonNtB5_13BenchesConsts13iter_infinite
FN:516,_RNvMs4_NtCs2b4E09oIUXa_15gungraun_macros6commonNtB5_13BenchesConsts3len
FN:520,_RNvMs4_NtCs2b4E09oIUXa_15gungraun_macros6commonNtB5_13BenchesConsts3new
FN:528,_RNvMs4_NtCs2b4E09oIUXa_15gungraun_macros6commonNtB5_13BenchesConsts5first
FN:485,_RNvMs4_NtCs2b4E09oIUXa_15gungraun_macros6commonNtB5_13BenchesConsts9from_expr
FN:577,_RNvMs5_NtCs2b4E09oIUXa_15gungraun_macros6commonNtB5_6Consts10parse_pair
FN:550,_RNvMs5_NtCs2b4E09oIUXa_15gungraun_macros6commonNtB5_6Consts12maybe_string
FN:648,_RNvMs5_NtCs2b4E09oIUXa_15gungraun_macros6commonNtB5_6Consts17to_function_calls
FN:622,_RNvMs5_NtCs2b4E09oIUXa_15gungraun_macros6commonNtB5_6Consts19check_num_arguments
FN:538,_RNvMs5_NtCs2b4E09oIUXa_15gungraun_macros6commonNtB5_6Consts3len
FN:534,_RNvMs5_NtCs2b4E09oIUXa_15gungraun_macros6commonNtB5_6Consts3new
FN:567,_RNvMs5_NtCs2b4E09oIUXa_15gungraun_macros6commonNtB5_6Consts4span
FN:546,_RNvMs5_NtCs2b4E09oIUXa_15gungraun_macros6commonNtB5_6Consts5exprs
FN:542,_RNvMs5_NtCs2b4E09oIUXa_15gungraun_macros6commonNtB5_6Consts8is_empty
FN:571,_RNvMs5_NtCs2b4E09oIUXa_15gungraun_macros6commonNtB5_6Consts8set_span
FN:723,_RNvMs8_NtCs2b4E09oIUXa_15gungraun_macros6commonNtB5_4File10parse_pair
FN:750,_RNvMs8_NtCs2b4E09oIUXa_15gungraun_macros6commonNtB5_4File4read
FN:719,_RNvMs8_NtCs2b4E09oIUXa_15gungraun_macros6commonNtB5_4File7is_some
FN:715,_RNvMs8_NtCs2b4E09oIUXa_15gungraun_macros6commonNtB5_4File7literal
FN:795,_RNvMs9_NtCs2b4E09oIUXa_15gungraun_macros6commonNtB5_4Iter10parse_pair
FN:791,_RNvMs9_NtCs2b4E09oIUXa_15gungraun_macros6commonNtB5_4Iter4expr
FN:787,_RNvMs9_NtCs2b4E09oIUXa_15gungraun_macros6commonNtB5_4Iter7is_some
FN:808,_RNvMsa_NtCs2b4E09oIUXa_15gungraun_macros6commonNtB5_5Setup10parse_pair
FN:829,_RNvMsa_NtCs2b4E09oIUXa_15gungraun_macros6commonNtB5_5Setup19to_string_with_args
FN:838,_RNvMsa_NtCs2b4E09oIUXa_15gungraun_macros6commonNtB5_5Setup19to_string_with_iter
FN:848,_RNvMsa_NtCs2b4E09oIUXa_15gungraun_macros6commonNtB5_5Setup6update
FN:856,_RNvMsb_NtCs2b4E09oIUXa_15gungraun_macros6commonNtB5_8Teardown10parse_pair
FN:879,_RNvMsb_NtCs2b4E09oIUXa_15gungraun_macros6commonNtB5_8Teardown6update
FN:886,_RNvNtCs2b4E09oIUXa_15gungraun_macros6common12format_ident
FN:899,_RNvNtCs2b4E09oIUXa_15gungraun_macros6common17truncate_str_utf8
FN:894,_RNvNtCs2b4E09oIUXa_15gungraun_macros6common20format_indexed_ident
FN:911,_RNvNtCs2b4E09oIUXa_15gungraun_macros6common32pattern_to_single_function_ident
FN:198,_RNvXs0_NtCs2b4E09oIUXa_15gungraun_macros6commonNtB5_4ArgsNtNtCsaGWFmk4Cc5n_5quote9to_tokens8ToTokens9to_tokens
FN:693,_RNvXs6_NtCs2b4E09oIUXa_15gungraun_macros6commonNtB5_6ConstsNtNtCs18ZQ9XUxf5Z_3syn5parse5Parse5parse
FN:706,_RNvXs7_NtCs2b4E09oIUXa_15gungraun_macros6commonNtB5_6ConstsNtNtCsaGWFmk4Cc5n_5quote9to_tokens8ToTokens9to_tokens
FN:185,_RNvXs_NtCs2b4E09oIUXa_15gungraun_macros6commonNtB4_4ArgsNtNtCs18ZQ9XUxf5Z_3syn5parse5Parse5parse
FN:558,_RNCNCNvMs5_NtCsefbuI5cqeZT_15gungraun_macros6commonNtB9_6Consts12maybe_string00Bb_
FN:84,_RNCNvMNtCsefbuI5cqeZT_15gungraun_macros6commonNtB4_4Args3len0B6_
FN:253,_RNCNvMs1_NtCsefbuI5cqeZT_15gungraun_macros6commonNtB7_5Bench22from_benches_attribute0B9_
FN:551,_RNCNvMs5_NtCsefbuI5cqeZT_15gungraun_macros6commonNtB7_6Consts12maybe_string0B9_
FN:657,_RNCNvMs5_NtCsefbuI5cqeZT_15gungraun_macros6commonNtB7_6Consts17to_function_calls0B9_
FN:685,_RNCNvMs5_NtCsefbuI5cqeZT_15gungraun_macros6commonNtB7_6Consts17to_function_callss0_0B9_
FN:665,_RNCNvMs5_NtCsefbuI5cqeZT_15gungraun_macros6commonNtB7_6Consts17to_function_callss_0B9_
FN:539,_RNCNvMs5_NtCsefbuI5cqeZT_15gungraun_macros6commonNtB7_6Consts3len0B9_
FN:547,_RNCNvMs5_NtCsefbuI5cqeZT_15gungraun_macros6commonNtB7_6Consts5exprs0B9_
FN:543,_RNCNvMs5_NtCsefbuI5cqeZT_15gungraun_macros6commonNtB7_6Consts8is_empty0B9_
FN:763,_RNCNvMs8_NtCsefbuI5cqeZT_15gungraun_macros6commonNtB7_4File4read0B9_
FN:902,_RNCNvNtCsefbuI5cqeZT_15gungraun_macros6common17truncate_str_utf80B5_
FN:97,_RNvMNtCsefbuI5cqeZT_15gungraun_macros6commonNtB2_4Args10parse_pair
FN:139,_RNvMNtCsefbuI5cqeZT_15gungraun_macros6commonNtB2_4Args15parse_meta_list
FN:159,_RNvMNtCsefbuI5cqeZT_15gungraun_macros6commonNtB2_4Args19check_num_arguments
FN:148,_RNvMNtCsefbuI5cqeZT_15gungraun_macros6commonNtB2_4Args27to_tokens_without_black_box
FN:83,_RNvMNtCsefbuI5cqeZT_15gungraun_macros6commonNtB2_4Args3len
FN:79,_RNvMNtCsefbuI5cqeZT_15gungraun_macros6commonNtB2_4Args3new
FN:87,_RNvMNtCsefbuI5cqeZT_15gungraun_macros6commonNtB2_4Args4span
FN:91,_RNvMNtCsefbuI5cqeZT_15gungraun_macros6commonNtB2_4Args8set_span
FN:216,_RNvMs1_NtCsefbuI5cqeZT_15gungraun_macros6commonNtB5_5Bench22from_benches_attribute
FN:207,_RNvMs1_NtCsefbuI5cqeZT_15gungraun_macros6commonNtB5_5Bench3new
FN:347,_RNvMs2_NtCsefbuI5cqeZT_15gungraun_macros6commonNtB5_11BenchConfig10parse_pair
FN:343,_RNvMs2_NtCsefbuI5cqeZT_15gungraun_macros6commonNtB5_11BenchConfig5ident
FN:358,_RNvMs2_NtCsefbuI5cqeZT_15gungraun_macros6commonNtB5_11BenchConfig7is_some
FN:380,_RNvMs3_NtCsefbuI5cqeZT_15gungraun_macros6commonNtB5_11BenchesArgs10parse_pair
FN:441,_RNvMs3_NtCsefbuI5cqeZT_15gungraun_macros6commonNtB5_11BenchesArgs13iter_infinite
FN:429,_RNvMs3_NtCsefbuI5cqeZT_15gungraun_macros6commonNtB5_11BenchesArgs14from_meta_list
FN:368,_RNvMs3_NtCsefbuI5cqeZT_15gungraun_macros6commonNtB5_11BenchesArgs3len
FN:372,_RNvMs3_NtCsefbuI5cqeZT_15gungraun_macros6commonNtB5_11BenchesArgs3new
FN:364,_RNvMs3_NtCsefbuI5cqeZT_15gungraun_macros6commonNtB5_11BenchesArgs7is_some
FN:408,_RNvMs3_NtCsefbuI5cqeZT_15gungraun_macros6commonNtB5_11BenchesArgs9from_expr
FN:456,_RNvMs4_NtCsefbuI5cqeZT_15gungraun_macros6commonNtB5_13BenchesConsts10parse_pair
FN:506,_RNvMs4_NtCsefbuI5cqeZT_15gungraun_macros6commonNtB5_13BenchesConsts13iter_infinite
FN:516,_RNvMs4_NtCsefbuI5cqeZT_15gungraun_macros6commonNtB5_13BenchesConsts3len
FN:520,_RNvMs4_NtCsefbuI5cqeZT_15gungraun_macros6commonNtB5_13BenchesConsts3new
FN:528,_RNvMs4_NtCsefbuI5cqeZT_15gungraun_macros6commonNtB5_13BenchesConsts5first
FN:485,_RNvMs4_NtCsefbuI5cqeZT_15gungraun_macros6commonNtB5_13BenchesConsts9from_expr
FN:577,_RNvMs5_NtCsefbuI5cqeZT_15gungraun_macros6commonNtB5_6Consts10parse_pair
FN:550,_RNvMs5_NtCsefbuI5cqeZT_15gungraun_macros6commonNtB5_6Consts12maybe_string
FN:648,_RNvMs5_NtCsefbuI5cqeZT_15gungraun_macros6commonNtB5_6Consts17to_function_calls
FN:622,_RNvMs5_NtCsefbuI5cqeZT_15gungraun_macros6commonNtB5_6Consts19check_num_arguments
FN:538,_RNvMs5_NtCsefbuI5cqeZT_15gungraun_macros6commonNtB5_6Consts3len
FN:534,_RNvMs5_NtCsefbuI5cqeZT_15gungraun_macros6commonNtB5_6Consts3new
FN:567,_RNvMs5_NtCsefbuI5cqeZT_15gungraun_macros6commonNtB5_6Consts4span
FN:546,_RNvMs5_NtCsefbuI5cqeZT_15gungraun_macros6commonNtB5_6Consts5exprs
FN:542,_RNvMs5_NtCsefbuI5cqeZT_15gungraun_macros6commonNtB5_6Consts8is_empty
FN:571,_RNvMs5_NtCsefbuI5cqeZT_15gungraun_macros6commonNtB5_6Consts8set_span
FN:723,_RNvMs8_NtCsefbuI5cqeZT_15gungraun_macros6commonNtB5_4File10parse_pair
FN:750,_RNvMs8_NtCsefbuI5cqeZT_15gungraun_macros6commonNtB5_4File4read
FN:719,_RNvMs8_NtCsefbuI5cqeZT_15gungraun_macros6commonNtB5_4File7is_some
FN:715,_RNvMs8_NtCsefbuI5cqeZT_15gungraun_macros6commonNtB5_4File7literal
FN:795,_RNvMs9_NtCsefbuI5cqeZT_15gungraun_macros6commonNtB5_4Iter10parse_pair
FN:791,_RNvMs9_NtCsefbuI5cqeZT_15gungraun_macros6commonNtB5_4Iter4expr
FN:787,_RNvMs9_NtCsefbuI5cqeZT_15gungraun_macros6commonNtB5_4Iter7is_some
FN:808,_RNvMsa_NtCsefbuI5cqeZT_15gungraun_macros6commonNtB5_5Setup10parse_pair
FN:829,_RNvMsa_NtCsefbuI5cqeZT_15gungraun_macros6commonNtB5_5Setup19to_string_with_args
FN:838,_RNvMsa_NtCsefbuI5cqeZT_15gungraun_macros6commonNtB5_5Setup19to_string_with_iter
FN:848,_RNvMsa_NtCsefbuI5cqeZT_15gungraun_macros6commonNtB5_5Setup6update
FN:856,_RNvMsb_NtCsefbuI5cqeZT_15gungraun_macros6commonNtB5_8Teardown10parse_pair
FN:879,_RNvMsb_NtCsefbuI5cqeZT_15gungraun_macros6commonNtB5_8Teardown6update
FN:886,_RNvNtCsefbuI5cqeZT_15gungraun_macros6common12format_ident
FN:899,_RNvNtCsefbuI5cqeZT_15gungraun_macros6common17truncate_str_utf8
FN:894,_RNvNtCsefbuI5cqeZT_15gungraun_macros6common20format_indexed_ident
FN:911,_RNvNtCsefbuI5cqeZT_15gungraun_macros6common32pattern_to_single_function_ident
FN:198,_RNvXs0_NtCsefbuI5cqeZT_15gungraun_macros6commonNtB5_4ArgsNtNtCsaGWFmk4Cc5n_5quote9to_tokens8ToTokens9to_tokens
FN:693,_RNvXs6_NtCsefbuI5cqeZT_15gungraun_macros6commonNtB5_6ConstsNtNtCsdgWaRgXFEK2_3syn5parse5Parse5parse
FN:706,_RNvXs7_NtCsefbuI5cqeZT_15gungraun_macros6commonNtB5_6ConstsNtNtCsaGWFmk4Cc5n_5quote9to_tokens8ToTokens9to_tokens
FN:185,_RNvXs_NtCsefbuI5cqeZT_15gungraun_macros6commonNtB4_4ArgsNtNtCsdgWaRgXFEK2_3syn5parse5Parse5parse
FN:97,_RNvMNtCsdVUoCTQwUTs_15gungraun_macros6commonNtB2_4Args10parse_pair
FN:139,_RNvMNtCsdVUoCTQwUTs_15gungraun_macros6commonNtB2_4Args15parse_meta_list
FN:159,_RNvMNtCsdVUoCTQwUTs_15gungraun_macros6commonNtB2_4Args19check_num_arguments
FN:148,_RNvMNtCsdVUoCTQwUTs_15gungraun_macros6commonNtB2_4Args27to_tokens_without_black_box
FN:83,_RNvMNtCsdVUoCTQwUTs_15gungraun_macros6commonNtB2_4Args3len
FN:79,_RNvMNtCsdVUoCTQwUTs_15gungraun_macros6commonNtB2_4Args3new
FN:87,_RNvMNtCsdVUoCTQwUTs_15gungraun_macros6commonNtB2_4Args4span
FN:91,_RNvMNtCsdVUoCTQwUTs_15gungraun_macros6commonNtB2_4Args8set_span
FN:216,_RNvMs1_NtCsdVUoCTQwUTs_15gungraun_macros6commonNtB5_5Bench22from_benches_attribute
FN:207,_RNvMs1_NtCsdVUoCTQwUTs_15gungraun_macros6commonNtB5_5Bench3new
FN:347,_RNvMs2_NtCsdVUoCTQwUTs_15gungraun_macros6commonNtB5_11BenchConfig10parse_pair
FN:343,_RNvMs2_NtCsdVUoCTQwUTs_15gungraun_macros6commonNtB5_11BenchConfig5ident
FN:358,_RNvMs2_NtCsdVUoCTQwUTs_15gungraun_macros6commonNtB5_11BenchConfig7is_some
FN:380,_RNvMs3_NtCsdVUoCTQwUTs_15gungraun_macros6commonNtB5_11BenchesArgs10parse_pair
FN:441,_RNvMs3_NtCsdVUoCTQwUTs_15gungraun_macros6commonNtB5_11BenchesArgs13iter_infinite
FN:429,_RNvMs3_NtCsdVUoCTQwUTs_15gungraun_macros6commonNtB5_11BenchesArgs14from_meta_list
FN:368,_RNvMs3_NtCsdVUoCTQwUTs_15gungraun_macros6commonNtB5_11BenchesArgs3len
FN:372,_RNvMs3_NtCsdVUoCTQwUTs_15gungraun_macros6commonNtB5_11BenchesArgs3new
FN:364,_RNvMs3_NtCsdVUoCTQwUTs_15gungraun_macros6commonNtB5_11BenchesArgs7is_some
FN:408,_RNvMs3_NtCsdVUoCTQwUTs_15gungraun_macros6commonNtB5_11BenchesArgs9from_expr
FN:456,_RNvMs4_NtCsdVUoCTQwUTs_15gungraun_macros6commonNtB5_13BenchesConsts10parse_pair
FN:506,_RNvMs4_NtCsdVUoCTQwUTs_15gungraun_macros6commonNtB5_13BenchesConsts13iter_infinite
FN:516,_RNvMs4_NtCsdVUoCTQwUTs_15gungraun_macros6commonNtB5_13BenchesConsts3len
FN:520,_RNvMs4_NtCsdVUoCTQwUTs_15gungraun_macros6commonNtB5_13BenchesConsts3new
FN:528,_RNvMs4_NtCsdVUoCTQwUTs_15gungraun_macros6commonNtB5_13BenchesConsts5first
FN:485,_RNvMs4_NtCsdVUoCTQwUTs_15gungraun_macros6commonNtB5_13BenchesConsts9from_expr
FN:577,_RNvMs5_NtCsdVUoCTQwUTs_15gungraun_macros6commonNtB5_6Consts10parse_pair
FN:550,_RNvMs5_NtCsdVUoCTQwUTs_15gungraun_macros6commonNtB5_6Consts12maybe_string
FN:648,_RNvMs5_NtCsdVUoCTQwUTs_15gungraun_macros6commonNtB5_6Consts17to_function_calls
FN:622,_RNvMs5_NtCsdVUoCTQwUTs_15gungraun_macros6commonNtB5_6Consts19check_num_arguments
FN:538,_RNvMs5_NtCsdVUoCTQwUTs_15gungraun_macros6commonNtB5_6Consts3len
FN:534,_RNvMs5_NtCsdVUoCTQwUTs_15gungraun_macros6commonNtB5_6Consts3new
FN:567,_RNvMs5_NtCsdVUoCTQwUTs_15gungraun_macros6commonNtB5_6Consts4span
FN:546,_RNvMs5_NtCsdVUoCTQwUTs_15gungraun_macros6commonNtB5_6Consts5exprs
FN:542,_RNvMs5_NtCsdVUoCTQwUTs_15gungraun_macros6commonNtB5_6Consts8is_empty
FN:571,_RNvMs5_NtCsdVUoCTQwUTs_15gungraun_macros6commonNtB5_6Consts8set_span
FN:723,_RNvMs8_NtCsdVUoCTQwUTs_15gungraun_macros6commonNtB5_4File10parse_pair
FN:750,_RNvMs8_NtCsdVUoCTQwUTs_15gungraun_macros6commonNtB5_4File4read
FN:719,_RNvMs8_NtCsdVUoCTQwUTs_15gungraun_macros6commonNtB5_4File7is_some
FN:715,_RNvMs8_NtCsdVUoCTQwUTs_15gungraun_macros6commonNtB5_4File7literal
FN:795,_RNvMs9_NtCsdVUoCTQwUTs_15gungraun_macros6commonNtB5_4Iter10parse_pair
FN:791,_RNvMs9_NtCsdVUoCTQwUTs_15gungraun_macros6commonNtB5_4Iter4expr
FN:787,_RNvMs9_NtCsdVUoCTQwUTs_15gungraun_macros6commonNtB5_4Iter7is_some
FN:808,_RNvMsa_NtCsdVUoCTQwUTs_15gungraun_macros6commonNtB5_5Setup10parse_pair
FN:829,_RNvMsa_NtCsdVUoCTQwUTs_15gungraun_macros6commonNtB5_5Setup19to_string_with_args
FN:838,_RNvMsa_NtCsdVUoCTQwUTs_15gungraun_macros6commonNtB5_5Setup19to_string_with_iter
FN:848,_RNvMsa_NtCsdVUoCTQwUTs_15gungraun_macros6commonNtB5_5Setup6update
FN:856,_RNvMsb_NtCsdVUoCTQwUTs_15gungraun_macros6commonNtB5_8Teardown10parse_pair
FN:879,_RNvMsb_NtCsdVUoCTQwUTs_15gungraun_macros6commonNtB5_8Teardown6update
FN:886,_RNvNtCsdVUoCTQwUTs_15gungraun_macros6common12format_ident
FN:899,_RNvNtCsdVUoCTQwUTs_15gungraun_macros6common17truncate_str_utf8
FN:894,_RNvNtCsdVUoCTQwUTs_15gungraun_macros6common20format_indexed_ident
FN:911,_RNvNtCsdVUoCTQwUTs_15gungraun_macros6common32pattern_to_single_function_ident
FN:198,_RNvXs0_NtCsdVUoCTQwUTs_15gungraun_macros6commonNtB5_4ArgsNtNtCs78vtsH2YuCh_5quote9to_tokens8ToTokens9to_tokens
FN:693,_RNvXs6_NtCsdVUoCTQwUTs_15gungraun_macros6commonNtB5_6ConstsNtNtCseSkPA7Sfx0z_3syn5parse5Parse5parse
FN:706,_RNvXs7_NtCsdVUoCTQwUTs_15gungraun_macros6commonNtB5_6ConstsNtNtCs78vtsH2YuCh_5quote9to_tokens8ToTokens9to_tokens
FN:185,_RNvXs_NtCsdVUoCTQwUTs_15gungraun_macros6commonNtB4_4ArgsNtNtCseSkPA7Sfx0z_3syn5parse5Parse5parse
FN:558,_RNCNCNvMs5_NtCsdVUoCTQwUTs_15gungraun_macros6commonNtB9_6Consts12maybe_string00Bb_
FN:84,_RNCNvMNtCsdVUoCTQwUTs_15gungraun_macros6commonNtB4_4Args3len0B6_
FN:88,_RNCNvMNtCsdVUoCTQwUTs_15gungraun_macros6commonNtB4_4Args4span0B6_
FN:253,_RNCNvMs1_NtCsdVUoCTQwUTs_15gungraun_macros6commonNtB7_5Bench22from_benches_attribute0B9_
FN:551,_RNCNvMs5_NtCsdVUoCTQwUTs_15gungraun_macros6commonNtB7_6Consts12maybe_string0B9_
FN:657,_RNCNvMs5_NtCsdVUoCTQwUTs_15gungraun_macros6commonNtB7_6Consts17to_function_calls0B9_
FN:685,_RNCNvMs5_NtCsdVUoCTQwUTs_15gungraun_macros6commonNtB7_6Consts17to_function_callss0_0B9_
FN:665,_RNCNvMs5_NtCsdVUoCTQwUTs_15gungraun_macros6commonNtB7_6Consts17to_function_callss_0B9_
FN:539,_RNCNvMs5_NtCsdVUoCTQwUTs_15gungraun_macros6commonNtB7_6Consts3len0B9_
FN:568,_RNCNvMs5_NtCsdVUoCTQwUTs_15gungraun_macros6commonNtB7_6Consts4span0B9_
FN:547,_RNCNvMs5_NtCsdVUoCTQwUTs_15gungraun_macros6commonNtB7_6Consts5exprs0B9_
FN:543,_RNCNvMs5_NtCsdVUoCTQwUTs_15gungraun_macros6commonNtB7_6Consts8is_empty0B9_
FN:763,_RNCNvMs8_NtCsdVUoCTQwUTs_15gungraun_macros6commonNtB7_4File4read0B9_
FN:902,_RNCNvNtCsdVUoCTQwUTs_15gungraun_macros6common17truncate_str_utf80B5_
FN:558,_RNCNCNvMs5_NtCs4VtoIICFLcm_15gungraun_macros6commonNtB9_6Consts12maybe_string00Bb_
FN:84,_RNCNvMNtCs4VtoIICFLcm_15gungraun_macros6commonNtB4_4Args3len0B6_
FN:88,_RNCNvMNtCs4VtoIICFLcm_15gungraun_macros6commonNtB4_4Args4span0B6_
FN:253,_RNCNvMs1_NtCs4VtoIICFLcm_15gungraun_macros6commonNtB7_5Bench22from_benches_attribute0B9_
FN:551,_RNCNvMs5_NtCs4VtoIICFLcm_15gungraun_macros6commonNtB7_6Consts12maybe_string0B9_
FN:657,_RNCNvMs5_NtCs4VtoIICFLcm_15gungraun_macros6commonNtB7_6Consts17to_function_calls0B9_
FN:685,_RNCNvMs5_NtCs4VtoIICFLcm_15gungraun_macros6commonNtB7_6Consts17to_function_callss0_0B9_
FN:665,_RNCNvMs5_NtCs4VtoIICFLcm_15gungraun_macros6commonNtB7_6Consts17to_function_callss_0B9_
FN:539,_RNCNvMs5_NtCs4VtoIICFLcm_15gungraun_macros6commonNtB7_6Consts3len0B9_
FN:568,_RNCNvMs5_NtCs4VtoIICFLcm_15gungraun_macros6commonNtB7_6Consts4span0B9_
FN:547,_RNCNvMs5_NtCs4VtoIICFLcm_15gungraun_macros6commonNtB7_6Consts5exprs0B9_
FN:543,_RNCNvMs5_NtCs4VtoIICFLcm_15gungraun_macros6commonNtB7_6Consts8is_empty0B9_
FN:763,_RNCNvMs8_NtCs4VtoIICFLcm_15gungraun_macros6commonNtB7_4File4read0B9_
FN:902,_RNCNvNtCs4VtoIICFLcm_15gungraun_macros6common17truncate_str_utf80B5_
FN:97,_RNvMNtCs4VtoIICFLcm_15gungraun_macros6commonNtB2_4Args10parse_pair
FN:139,_RNvMNtCs4VtoIICFLcm_15gungraun_macros6commonNtB2_4Args15parse_meta_list
FN:159,_RNvMNtCs4VtoIICFLcm_15gungraun_macros6commonNtB2_4Args19check_num_arguments
FN:148,_RNvMNtCs4VtoIICFLcm_15gungraun_macros6commonNtB2_4Args27to_tokens_without_black_box
FN:83,_RNvMNtCs4VtoIICFLcm_15gungraun_macros6commonNtB2_4Args3len
FN:79,_RNvMNtCs4VtoIICFLcm_15gungraun_macros6commonNtB2_4Args3new
FN:87,_RNvMNtCs4VtoIICFLcm_15gungraun_macros6commonNtB2_4Args4span
FN:91,_RNvMNtCs4VtoIICFLcm_15gungraun_macros6commonNtB2_4Args8set_span
FN:216,_RNvMs1_NtCs4VtoIICFLcm_15gungraun_macros6commonNtB5_5Bench22from_benches_attribute
FN:207,_RNvMs1_NtCs4VtoIICFLcm_15gungraun_macros6commonNtB5_5Bench3new
FN:347,_RNvMs2_NtCs4VtoIICFLcm_15gungraun_macros6commonNtB5_11BenchConfig10parse_pair
FN:343,_RNvMs2_NtCs4VtoIICFLcm_15gungraun_macros6commonNtB5_11BenchConfig5ident
FN:358,_RNvMs2_NtCs4VtoIICFLcm_15gungraun_macros6commonNtB5_11BenchConfig7is_some
FN:380,_RNvMs3_NtCs4VtoIICFLcm_15gungraun_macros6commonNtB5_11BenchesArgs10parse_pair
FN:441,_RNvMs3_NtCs4VtoIICFLcm_15gungraun_macros6commonNtB5_11BenchesArgs13iter_infinite
FN:429,_RNvMs3_NtCs4VtoIICFLcm_15gungraun_macros6commonNtB5_11BenchesArgs14from_meta_list
FN:368,_RNvMs3_NtCs4VtoIICFLcm_15gungraun_macros6commonNtB5_11BenchesArgs3len
FN:372,_RNvMs3_NtCs4VtoIICFLcm_15gungraun_macros6commonNtB5_11BenchesArgs3new
FN:364,_RNvMs3_NtCs4VtoIICFLcm_15gungraun_macros6commonNtB5_11BenchesArgs7is_some
FN:408,_RNvMs3_NtCs4VtoIICFLcm_15gungraun_macros6commonNtB5_11BenchesArgs9from_expr
FN:456,_RNvMs4_NtCs4VtoIICFLcm_15gungraun_macros6commonNtB5_13BenchesConsts10parse_pair
FN:506,_RNvMs4_NtCs4VtoIICFLcm_15gungraun_macros6commonNtB5_13BenchesConsts13iter_infinite
FN:516,_RNvMs4_NtCs4VtoIICFLcm_15gungraun_macros6commonNtB5_13BenchesConsts3len
FN:520,_RNvMs4_NtCs4VtoIICFLcm_15gungraun_macros6commonNtB5_13BenchesConsts3new
FN:528,_RNvMs4_NtCs4VtoIICFLcm_15gungraun_macros6commonNtB5_13BenchesConsts5first
FN:485,_RNvMs4_NtCs4VtoIICFLcm_15gungraun_macros6commonNtB5_13BenchesConsts9from_expr
FN:577,_RNvMs5_NtCs4VtoIICFLcm_15gungraun_macros6commonNtB5_6Consts10parse_pair
FN:550,_RNvMs5_NtCs4VtoIICFLcm_15gungraun_macros6commonNtB5_6Consts12maybe_string
FN:648,_RNvMs5_NtCs4VtoIICFLcm_15gungraun_macros6commonNtB5_6Consts17to_function_calls
FN:622,_RNvMs5_NtCs4VtoIICFLcm_15gungraun_macros6commonNtB5_6Consts19check_num_arguments
FN:538,_RNvMs5_NtCs4VtoIICFLcm_15gungraun_macros6commonNtB5_6Consts3len
FN:534,_RNvMs5_NtCs4VtoIICFLcm_15gungraun_macros6commonNtB5_6Consts3new
FN:567,_RNvMs5_NtCs4VtoIICFLcm_15gungraun_macros6commonNtB5_6Consts4span
FN:546,_RNvMs5_NtCs4VtoIICFLcm_15gungraun_macros6commonNtB5_6Consts5exprs
FN:542,_RNvMs5_NtCs4VtoIICFLcm_15gungraun_macros6commonNtB5_6Consts8is_empty
FN:571,_RNvMs5_NtCs4VtoIICFLcm_15gungraun_macros6commonNtB5_6Consts8set_span
FN:723,_RNvMs8_NtCs4VtoIICFLcm_15gungraun_macros6commonNtB5_4File10parse_pair
FN:750,_RNvMs8_NtCs4VtoIICFLcm_15gungraun_macros6commonNtB5_4File4read
FN:719,_RNvMs8_NtCs4VtoIICFLcm_15gungraun_macros6commonNtB5_4File7is_some
FN:715,_RNvMs8_NtCs4VtoIICFLcm_15gungraun_macros6commonNtB5_4File7literal
FN:795,_RNvMs9_NtCs4VtoIICFLcm_15gungraun_macros6commonNtB5_4Iter10parse_pair
FN:791,_RNvMs9_NtCs4VtoIICFLcm_15gungraun_macros6commonNtB5_4Iter4expr
FN:787,_RNvMs9_NtCs4VtoIICFLcm_15gungraun_macros6commonNtB5_4Iter7is_some
FN:808,_RNvMsa_NtCs4VtoIICFLcm_15gungraun_macros6commonNtB5_5Setup10parse_pair
FN:829,_RNvMsa_NtCs4VtoIICFLcm_15gungraun_macros6commonNtB5_5Setup19to_string_with_args
FN:838,_RNvMsa_NtCs4VtoIICFLcm_15gungraun_macros6commonNtB5_5Setup19to_string_with_iter
FN:848,_RNvMsa_NtCs4VtoIICFLcm_15gungraun_macros6commonNtB5_5Setup6update
FN:856,_RNvMsb_NtCs4VtoIICFLcm_15gungraun_macros6commonNtB5_8Teardown10parse_pair
FN:879,_RNvMsb_NtCs4VtoIICFLcm_15gungraun_macros6commonNtB5_8Teardown6update
FN:886,_RNvNtCs4VtoIICFLcm_15gungraun_macros6common12format_ident
FN:899,_RNvNtCs4VtoIICFLcm_15gungraun_macros6common17truncate_str_utf8
FN:894,_RNvNtCs4VtoIICFLcm_15gungraun_macros6common20format_indexed_ident
FN:911,_RNvNtCs4VtoIICFLcm_15gungraun_macros6common32pattern_to_single_function_ident
FN:198,_RNvXs0_NtCs4VtoIICFLcm_15gungraun_macros6commonNtB5_4ArgsNtNtCs5zTqYJ1QKLS_5quote9to_tokens8ToTokens9to_tokens
FN:693,_RNvXs6_NtCs4VtoIICFLcm_15gungraun_macros6commonNtB5_6ConstsNtNtCs7YDbPhiuUg2_3syn5parse5Parse5parse
FN:706,_RNvXs7_NtCs4VtoIICFLcm_15gungraun_macros6commonNtB5_6ConstsNtNtCs5zTqYJ1QKLS_5quote9to_tokens8ToTokens9to_tokens
FN:185,_RNvXs_NtCs4VtoIICFLcm_15gungraun_macros6commonNtB4_4ArgsNtNtCs7YDbPhiuUg2_3syn5parse5Parse5parse
FNDA:0,_RNCNCNvMs5_NtCs2b4E09oIUXa_15gungraun_macros6commonNtB9_6Consts12maybe_string00Bb_
FNDA:0,_RNCNvMNtCs2b4E09oIUXa_15gungraun_macros6commonNtB4_4Args3len0B6_
FNDA:0,_RNCNvMs1_NtCs2b4E09oIUXa_15gungraun_macros6commonNtB7_5Bench22from_benches_attribute0B9_
FNDA:0,_RNCNvMs5_NtCs2b4E09oIUXa_15gungraun_macros6commonNtB7_6Consts12maybe_string0B9_
FNDA:0,_RNCNvMs5_NtCs2b4E09oIUXa_15gungraun_macros6commonNtB7_6Consts17to_function_calls0B9_
FNDA:0,_RNCNvMs5_NtCs2b4E09oIUXa_15gungraun_macros6commonNtB7_6Consts17to_function_callss0_0B9_
FNDA:0,_RNCNvMs5_NtCs2b4E09oIUXa_15gungraun_macros6commonNtB7_6Consts17to_function_callss_0B9_
FNDA:0,_RNCNvMs5_NtCs2b4E09oIUXa_15gungraun_macros6commonNtB7_6Consts3len0B9_
FNDA:0,_RNCNvMs5_NtCs2b4E09oIUXa_15gungraun_macros6commonNtB7_6Consts5exprs0B9_
FNDA:0,_RNCNvMs5_NtCs2b4E09oIUXa_15gungraun_macros6commonNtB7_6Consts8is_empty0B9_
FNDA:0,_RNCNvMs8_NtCs2b4E09oIUXa_15gungraun_macros6commonNtB7_4File4read0B9_
FNDA:0,_RNCNvNtCs2b4E09oIUXa_15gungraun_macros6common17truncate_str_utf80B5_
FNDA:0,_RNvMNtCs2b4E09oIUXa_15gungraun_macros6commonNtB2_4Args10parse_pair
FNDA:0,_RNvMNtCs2b4E09oIUXa_15gungraun_macros6commonNtB2_4Args15parse_meta_list
FNDA:0,_RNvMNtCs2b4E09oIUXa_15gungraun_macros6commonNtB2_4Args19check_num_arguments
FNDA:0,_RNvMNtCs2b4E09oIUXa_15gungraun_macros6commonNtB2_4Args27to_tokens_without_black_box
FNDA:0,_RNvMNtCs2b4E09oIUXa_15gungraun_macros6commonNtB2_4Args3len
FNDA:0,_RNvMNtCs2b4E09oIUXa_15gungraun_macros6commonNtB2_4Args3new
FNDA:0,_RNvMNtCs2b4E09oIUXa_15gungraun_macros6commonNtB2_4Args4span
FNDA:0,_RNvMNtCs2b4E09oIUXa_15gungraun_macros6commonNtB2_4Args8set_span
FNDA:0,_RNvMs1_NtCs2b4E09oIUXa_15gungraun_macros6commonNtB5_5Bench22from_benches_attribute
FNDA:0,_RNvMs1_NtCs2b4E09oIUXa_15gungraun_macros6commonNtB5_5Bench3new
FNDA:0,_RNvMs2_NtCs2b4E09oIUXa_15gungraun_macros6commonNtB5_11BenchConfig10parse_pair
FNDA:0,_RNvMs2_NtCs2b4E09oIUXa_15gungraun_macros6commonNtB5_11BenchConfig5ident
FNDA:0,_RNvMs2_NtCs2b4E09oIUXa_15gungraun_macros6commonNtB5_11BenchConfig7is_some
FNDA:0,_RNvMs3_NtCs2b4E09oIUXa_15gungraun_macros6commonNtB5_11BenchesArgs10parse_pair
FNDA:0,_RNvMs3_NtCs2b4E09oIUXa_15gungraun_macros6commonNtB5_11BenchesArgs13iter_infinite
FNDA:0,_RNvMs3_NtCs2b4E09oIUXa_15gungraun_macros6commonNtB5_11BenchesArgs14from_meta_list
FNDA:0,_RNvMs3_NtCs2b4E09oIUXa_15gungraun_macros6commonNtB5_11BenchesArgs3len
FNDA:0,_RNvMs3_NtCs2b4E09oIUXa_15gungraun_macros6commonNtB5_11BenchesArgs3new
FNDA:0,_RNvMs3_NtCs2b4E09oIUXa_15gungraun_macros6commonNtB5_11BenchesArgs7is_some
FNDA:0,_RNvMs3_NtCs2b4E09oIUXa_15gungraun_macros6commonNtB5_11BenchesArgs9from_expr
FNDA:0,_RNvMs4_NtCs2b4E09oIUXa_15gungraun_macros6commonNtB5_13BenchesConsts10parse_pair
FNDA:0,_RNvMs4_NtCs2b4E09oIUXa_15gungraun_macros6commonNtB5_13BenchesConsts13iter_infinite
FNDA:0,_RNvMs4_NtCs2b4E09oIUXa_15gungraun_macros6commonNtB5_13BenchesConsts3len
FNDA:0,_RNvMs4_NtCs2b4E09oIUXa_15gungraun_macros6commonNtB5_13BenchesConsts3new
FNDA:0,_RNvMs4_NtCs2b4E09oIUXa_15gungraun_macros6commonNtB5_13BenchesConsts5first
FNDA:0,_RNvMs4_NtCs2b4E09oIUXa_15gungraun_macros6commonNtB5_13BenchesConsts9from_expr
FNDA:0,_RNvMs5_NtCs2b4E09oIUXa_15gungraun_macros6commonNtB5_6Consts10parse_pair
FNDA:0,_RNvMs5_NtCs2b4E09oIUXa_15gungraun_macros6commonNtB5_6Consts12maybe_string
FNDA:0,_RNvMs5_NtCs2b4E09oIUXa_15gungraun_macros6commonNtB5_6Consts17to_function_calls
FNDA:0,_RNvMs5_NtCs2b4E09oIUXa_15gungraun_macros6commonNtB5_6Consts19check_num_arguments
FNDA:0,_RNvMs5_NtCs2b4E09oIUXa_15gungraun_macros6commonNtB5_6Consts3len
FNDA:0,_RNvMs5_NtCs2b4E09oIUXa_15gungraun_macros6commonNtB5_6Consts3new
FNDA:0,_RNvMs5_NtCs2b4E09oIUXa_15gungraun_macros6commonNtB5_6Consts4span
FNDA:0,_RNvMs5_NtCs2b4E09oIUXa_15gungraun_macros6commonNtB5_6Consts5exprs
FNDA:0,_RNvMs5_NtCs2b4E09oIUXa_15gungraun_macros6commonNtB5_6Consts8is_empty
FNDA:0,_RNvMs5_NtCs2b4E09oIUXa_15gungraun_macros6commonNtB5_6Consts8set_span
FNDA:0,_RNvMs8_NtCs2b4E09oIUXa_15gungraun_macros6commonNtB5_4File10parse_pair
FNDA:0,_RNvMs8_NtCs2b4E09oIUXa_15gungraun_macros6commonNtB5_4File4read
FNDA:0,_RNvMs8_NtCs2b4E09oIUXa_15gungraun_macros6commonNtB5_4File7is_some
FNDA:0,_RNvMs8_NtCs2b4E09oIUXa_15gungraun_macros6commonNtB5_4File7literal
FNDA:0,_RNvMs9_NtCs2b4E09oIUXa_15gungraun_macros6commonNtB5_4Iter10parse_pair
FNDA:0,_RNvMs9_NtCs2b4E09oIUXa_15gungraun_macros6commonNtB5_4Iter4expr
FNDA:0,_RNvMs9_NtCs2b4E09oIUXa_15gungraun_macros6commonNtB5_4Iter7is_some
FNDA:0,_RNvMsa_NtCs2b4E09oIUXa_15gungraun_macros6commonNtB5_5Setup10parse_pair
FNDA:0,_RNvMsa_NtCs2b4E09oIUXa_15gungraun_macros6commonNtB5_5Setup19to_string_with_args
FNDA:0,_RNvMsa_NtCs2b4E09oIUXa_15gungraun_macros6commonNtB5_5Setup19to_string_with_iter
FNDA:0,_RNvMsa_NtCs2b4E09oIUXa_15gungraun_macros6commonNtB5_5Setup6update
FNDA:0,_RNvMsb_NtCs2b4E09oIUXa_15gungraun_macros6commonNtB5_8Teardown10parse_pair
FNDA:0,_RNvMsb_NtCs2b4E09oIUXa_15gungraun_macros6commonNtB5_8Teardown6update
FNDA:0,_RNvNtCs2b4E09oIUXa_15gungraun_macros6common12format_ident
FNDA:0,_RNvNtCs2b4E09oIUXa_15gungraun_macros6common17truncate_str_utf8
FNDA:0,_RNvNtCs2b4E09oIUXa_15gungraun_macros6common20format_indexed_ident
FNDA:0,_RNvNtCs2b4E09oIUXa_15gungraun_macros6common32pattern_to_single_function_ident
FNDA:0,_RNvXs0_NtCs2b4E09oIUXa_15gungraun_macros6commonNtB5_4ArgsNtNtCsaGWFmk4Cc5n_5quote9to_tokens8ToTokens9to_tokens
FNDA:0,_RNvXs6_NtCs2b4E09oIUXa_15gungraun_macros6commonNtB5_6ConstsNtNtCs18ZQ9XUxf5Z_3syn5parse5Parse5parse
FNDA:0,_RNvXs7_NtCs2b4E09oIUXa_15gungraun_macros6commonNtB5_6ConstsNtNtCsaGWFmk4Cc5n_5quote9to_tokens8ToTokens9to_tokens
FNDA:0,_RNvXs_NtCs2b4E09oIUXa_15gungraun_macros6commonNtB4_4ArgsNtNtCs18ZQ9XUxf5Z_3syn5parse5Parse5parse
FNDA:0,_RNCNCNvMs5_NtCsefbuI5cqeZT_15gungraun_macros6commonNtB9_6Consts12maybe_string00Bb_
FNDA:2,_RNCNvMNtCsefbuI5cqeZT_15gungraun_macros6commonNtB4_4Args3len0B6_
FNDA:0,_RNCNvMs1_NtCsefbuI5cqeZT_15gungraun_macros6commonNtB7_5Bench22from_benches_attribute0B9_
FNDA:0,_RNCNvMs5_NtCsefbuI5cqeZT_15gungraun_macros6commonNtB7_6Consts12maybe_string0B9_
FNDA:0,_RNCNvMs5_NtCsefbuI5cqeZT_15gungraun_macros6commonNtB7_6Consts17to_function_calls0B9_
FNDA:0,_RNCNvMs5_NtCsefbuI5cqeZT_15gungraun_macros6commonNtB7_6Consts17to_function_callss0_0B9_
FNDA:0,_RNCNvMs5_NtCsefbuI5cqeZT_15gungraun_macros6commonNtB7_6Consts17to_function_callss_0B9_
FNDA:0,_RNCNvMs5_NtCsefbuI5cqeZT_15gungraun_macros6commonNtB7_6Consts3len0B9_
FNDA:0,_RNCNvMs5_NtCsefbuI5cqeZT_15gungraun_macros6commonNtB7_6Consts5exprs0B9_
FNDA:0,_RNCNvMs5_NtCsefbuI5cqeZT_15gungraun_macros6commonNtB7_6Consts8is_empty0B9_
FNDA:0,_RNCNvMs8_NtCsefbuI5cqeZT_15gungraun_macros6commonNtB7_4File4read0B9_
FNDA:6,_RNCNvNtCsefbuI5cqeZT_15gungraun_macros6common17truncate_str_utf80B5_
FNDA:2,_RNvMNtCsefbuI5cqeZT_15gungraun_macros6commonNtB2_4Args10parse_pair
FNDA:0,_RNvMNtCsefbuI5cqeZT_15gungraun_macros6commonNtB2_4Args15parse_meta_list
FNDA:5,_RNvMNtCsefbuI5cqeZT_15gungraun_macros6commonNtB2_4Args19check_num_arguments
FNDA:10,_RNvMNtCsefbuI5cqeZT_15gungraun_macros6commonNtB2_4Args27to_tokens_without_black_box
FNDA:5,_RNvMNtCsefbuI5cqeZT_15gungraun_macros6commonNtB2_4Args3len
FNDA:2,_RNvMNtCsefbuI5cqeZT_15gungraun_macros6commonNtB2_4Args3new
FNDA:0,_RNvMNtCsefbuI5cqeZT_15gungraun_macros6commonNtB2_4Args4span
FNDA:0,_RNvMNtCsefbuI5cqeZT_15gungraun_macros6commonNtB2_4Args8set_span
FNDA:0,_RNvMs1_NtCsefbuI5cqeZT_15gungraun_macros6commonNtB5_5Bench22from_benches_attribute
FNDA:0,_RNvMs1_NtCsefbuI5cqeZT_15gungraun_macros6commonNtB5_5Bench3new
FNDA:3,_RNvMs2_NtCsefbuI5cqeZT_15gungraun_macros6commonNtB5_11BenchConfig10parse_pair
FNDA:0,_RNvMs2_NtCsefbuI5cqeZT_15gungraun_macros6commonNtB5_11BenchConfig5ident
FNDA:5,_RNvMs2_NtCsefbuI5cqeZT_15gungraun_macros6commonNtB5_11BenchConfig7is_some
FNDA:0,_RNvMs3_NtCsefbuI5cqeZT_15gungraun_macros6commonNtB5_11BenchesArgs10parse_pair
FNDA:0,_RNvMs3_NtCsefbuI5cqeZT_15gungraun_macros6commonNtB5_11BenchesArgs13iter_infinite
FNDA:0,_RNvMs3_NtCsefbuI5cqeZT_15gungraun_macros6commonNtB5_11BenchesArgs14from_meta_list
FNDA:0,_RNvMs3_NtCsefbuI5cqeZT_15gungraun_macros6commonNtB5_11BenchesArgs3len
FNDA:0,_RNvMs3_NtCsefbuI5cqeZT_15gungraun_macros6commonNtB5_11BenchesArgs3new
FNDA:0,_RNvMs3_NtCsefbuI5cqeZT_15gungraun_macros6commonNtB5_11BenchesArgs7is_some
FNDA:0,_RNvMs3_NtCsefbuI5cqeZT_15gungraun_macros6commonNtB5_11BenchesArgs9from_expr
FNDA:0,_RNvMs4_NtCsefbuI5cqeZT_15gungraun_macros6commonNtB5_13BenchesConsts10parse_pair
FNDA:0,_RNvMs4_NtCsefbuI5cqeZT_15gungraun_macros6commonNtB5_13BenchesConsts13iter_infinite
FNDA:0,_RNvMs4_NtCsefbuI5cqeZT_15gungraun_macros6commonNtB5_13BenchesConsts3len
FNDA:0,_RNvMs4_NtCsefbuI5cqeZT_15gungraun_macros6commonNtB5_13BenchesConsts3new
FNDA:0,_RNvMs4_NtCsefbuI5cqeZT_15gungraun_macros6commonNtB5_13BenchesConsts5first
FNDA:0,_RNvMs4_NtCsefbuI5cqeZT_15gungraun_macros6commonNtB5_13BenchesConsts9from_expr
FNDA:0,_RNvMs5_NtCsefbuI5cqeZT_15gungraun_macros6commonNtB5_6Consts10parse_pair
FNDA:5,_RNvMs5_NtCsefbuI5cqeZT_15gungraun_macros6commonNtB5_6Consts12maybe_string
FNDA:5,_RNvMs5_NtCsefbuI5cqeZT_15gungraun_macros6commonNtB5_6Consts17to_function_calls
FNDA:5,_RNvMs5_NtCsefbuI5cqeZT_15gungraun_macros6commonNtB5_6Consts19check_num_arguments
FNDA:5,_RNvMs5_NtCsefbuI5cqeZT_15gungraun_macros6commonNtB5_6Consts3len
FNDA:0,_RNvMs5_NtCsefbuI5cqeZT_15gungraun_macros6commonNtB5_6Consts3new
FNDA:0,_RNvMs5_NtCsefbuI5cqeZT_15gungraun_macros6commonNtB5_6Consts4span
FNDA:0,_RNvMs5_NtCsefbuI5cqeZT_15gungraun_macros6commonNtB5_6Consts5exprs
FNDA:5,_RNvMs5_NtCsefbuI5cqeZT_15gungraun_macros6commonNtB5_6Consts8is_empty
FNDA:0,_RNvMs5_NtCsefbuI5cqeZT_15gungraun_macros6commonNtB5_6Consts8set_span
FNDA:0,_RNvMs8_NtCsefbuI5cqeZT_15gungraun_macros6commonNtB5_4File10parse_pair
FNDA:0,_RNvMs8_NtCsefbuI5cqeZT_15gungraun_macros6commonNtB5_4File4read
FNDA:0,_RNvMs8_NtCsefbuI5cqeZT_15gungraun_macros6commonNtB5_4File7is_some
FNDA:0,_RNvMs8_NtCsefbuI5cqeZT_15gungraun_macros6commonNtB5_4File7literal
FNDA:0,_RNvMs9_NtCsefbuI5cqeZT_15gungraun_macros6commonNtB5_4Iter10parse_pair
FNDA:0,_RNvMs9_NtCsefbuI5cqeZT_15gungraun_macros6commonNtB5_4Iter4expr
FNDA:0,_RNvMs9_NtCsefbuI5cqeZT_15gungraun_macros6commonNtB5_4Iter7is_some
FNDA:0,_RNvMsa_NtCsefbuI5cqeZT_15gungraun_macros6commonNtB5_5Setup10parse_pair
FNDA:0,_RNvMsa_NtCsefbuI5cqeZT_15gungraun_macros6commonNtB5_5Setup19to_string_with_args
FNDA:0,_RNvMsa_NtCsefbuI5cqeZT_15gungraun_macros6commonNtB5_5Setup19to_string_with_iter
FNDA:0,_RNvMsa_NtCsefbuI5cqeZT_15gungraun_macros6commonNtB5_5Setup6update
FNDA:0,_RNvMsb_NtCsefbuI5cqeZT_15gungraun_macros6commonNtB5_8Teardown10parse_pair
FNDA:0,_RNvMsb_NtCsefbuI5cqeZT_15gungraun_macros6commonNtB5_8Teardown6update
FNDA:28,_RNvNtCsefbuI5cqeZT_15gungraun_macros6common12format_ident
FNDA:2,_RNvNtCsefbuI5cqeZT_15gungraun_macros6common17truncate_str_utf8
FNDA:0,_RNvNtCsefbuI5cqeZT_15gungraun_macros6common20format_indexed_ident
FNDA:0,_RNvNtCsefbuI5cqeZT_15gungraun_macros6common32pattern_to_single_function_ident
FNDA:0,_RNvXs0_NtCsefbuI5cqeZT_15gungraun_macros6commonNtB5_4ArgsNtNtCsaGWFmk4Cc5n_5quote9to_tokens8ToTokens9to_tokens
FNDA:0,_RNvXs6_NtCsefbuI5cqeZT_15gungraun_macros6commonNtB5_6ConstsNtNtCsdgWaRgXFEK2_3syn5parse5Parse5parse
FNDA:0,_RNvXs7_NtCsefbuI5cqeZT_15gungraun_macros6commonNtB5_6ConstsNtNtCsaGWFmk4Cc5n_5quote9to_tokens8ToTokens9to_tokens
FNDA:0,_RNvXs_NtCsefbuI5cqeZT_15gungraun_macros6commonNtB4_4ArgsNtNtCsdgWaRgXFEK2_3syn5parse5Parse5parse
FNDA:0,_RNvMNtCsdVUoCTQwUTs_15gungraun_macros6commonNtB2_4Args10parse_pair
FNDA:0,_RNvMNtCsdVUoCTQwUTs_15gungraun_macros6commonNtB2_4Args15parse_meta_list
FNDA:0,_RNvMNtCsdVUoCTQwUTs_15gungraun_macros6commonNtB2_4Args19check_num_arguments
FNDA:0,_RNvMNtCsdVUoCTQwUTs_15gungraun_macros6commonNtB2_4Args27to_tokens_without_black_box
FNDA:0,_RNvMNtCsdVUoCTQwUTs_15gungraun_macros6commonNtB2_4Args3len
FNDA:0,_RNvMNtCsdVUoCTQwUTs_15gungraun_macros6commonNtB2_4Args3new
FNDA:0,_RNvMNtCsdVUoCTQwUTs_15gungraun_macros6commonNtB2_4Args4span
FNDA:0,_RNvMNtCsdVUoCTQwUTs_15gungraun_macros6commonNtB2_4Args8set_span
FNDA:0,_RNvMs1_NtCsdVUoCTQwUTs_15gungraun_macros6commonNtB5_5Bench22from_benches_attribute
FNDA:0,_RNvMs1_NtCsdVUoCTQwUTs_15gungraun_macros6commonNtB5_5Bench3new
FNDA:0,_RNvMs2_NtCsdVUoCTQwUTs_15gungraun_macros6commonNtB5_11BenchConfig10parse_pair
FNDA:0,_RNvMs2_NtCsdVUoCTQwUTs_15gungraun_macros6commonNtB5_11BenchConfig5ident
FNDA:0,_RNvMs2_NtCsdVUoCTQwUTs_15gungraun_macros6commonNtB5_11BenchConfig7is_some
FNDA:0,_RNvMs3_NtCsdVUoCTQwUTs_15gungraun_macros6commonNtB5_11BenchesArgs10parse_pair
FNDA:0,_RNvMs3_NtCsdVUoCTQwUTs_15gungraun_macros6commonNtB5_11BenchesArgs13iter_infinite
FNDA:0,_RNvMs3_NtCsdVUoCTQwUTs_15gungraun_macros6commonNtB5_11BenchesArgs14from_meta_list
FNDA:0,_RNvMs3_NtCsdVUoCTQwUTs_15gungraun_macros6commonNtB5_11BenchesArgs3len
FNDA:0,_RNvMs3_NtCsdVUoCTQwUTs_15gungraun_macros6commonNtB5_11BenchesArgs3new
FNDA:0,_RNvMs3_NtCsdVUoCTQwUTs_15gungraun_macros6commonNtB5_11BenchesArgs7is_some
FNDA:0,_RNvMs3_NtCsdVUoCTQwUTs_15gungraun_macros6commonNtB5_11BenchesArgs9from_expr
FNDA:0,_RNvMs4_NtCsdVUoCTQwUTs_15gungraun_macros6commonNtB5_13BenchesConsts10parse_pair
FNDA:0,_RNvMs4_NtCsdVUoCTQwUTs_15gungraun_macros6commonNtB5_13BenchesConsts13iter_infinite
FNDA:0,_RNvMs4_NtCsdVUoCTQwUTs_15gungraun_macros6commonNtB5_13BenchesConsts3len
FNDA:0,_RNvMs4_NtCsdVUoCTQwUTs_15gungraun_macros6commonNtB5_13BenchesConsts3new
FNDA:0,_RNvMs4_NtCsdVUoCTQwUTs_15gungraun_macros6commonNtB5_13BenchesConsts5first
FNDA:0,_RNvMs4_NtCsdVUoCTQwUTs_15gungraun_macros6commonNtB5_13BenchesConsts9from_expr
FNDA:0,_RNvMs5_NtCsdVUoCTQwUTs_15gungraun_macros6commonNtB5_6Consts10parse_pair
FNDA:0,_RNvMs5_NtCsdVUoCTQwUTs_15gungraun_macros6commonNtB5_6Consts12maybe_string
FNDA:0,_RNvMs5_NtCsdVUoCTQwUTs_15gungraun_macros6commonNtB5_6Consts17to_function_calls
FNDA:0,_RNvMs5_NtCsdVUoCTQwUTs_15gungraun_macros6commonNtB5_6Consts19check_num_arguments
FNDA:0,_RNvMs5_NtCsdVUoCTQwUTs_15gungraun_macros6commonNtB5_6Consts3len
FNDA:0,_RNvMs5_NtCsdVUoCTQwUTs_15gungraun_macros6commonNtB5_6Consts3new
FNDA:0,_RNvMs5_NtCsdVUoCTQwUTs_15gungraun_macros6commonNtB5_6Consts4span
FNDA:0,_RNvMs5_NtCsdVUoCTQwUTs_15gungraun_macros6commonNtB5_6Consts5exprs
FNDA:0,_RNvMs5_NtCsdVUoCTQwUTs_15gungraun_macros6commonNtB5_6Consts8is_empty
FNDA:0,_RNvMs5_NtCsdVUoCTQwUTs_15gungraun_macros6commonNtB5_6Consts8set_span
FNDA:0,_RNvMs8_NtCsdVUoCTQwUTs_15gungraun_macros6commonNtB5_4File10parse_pair
FNDA:0,_RNvMs8_NtCsdVUoCTQwUTs_15gungraun_macros6commonNtB5_4File4read
FNDA:0,_RNvMs8_NtCsdVUoCTQwUTs_15gungraun_macros6commonNtB5_4File7is_some
FNDA:0,_RNvMs8_NtCsdVUoCTQwUTs_15gungraun_macros6commonNtB5_4File7literal
FNDA:0,_RNvMs9_NtCsdVUoCTQwUTs_15gungraun_macros6commonNtB5_4Iter10parse_pair
FNDA:0,_RNvMs9_NtCsdVUoCTQwUTs_15gungraun_macros6commonNtB5_4Iter4expr
FNDA:0,_RNvMs9_NtCsdVUoCTQwUTs_15gungraun_macros6commonNtB5_4Iter7is_some
FNDA:0,_RNvMsa_NtCsdVUoCTQwUTs_15gungraun_macros6commonNtB5_5Setup10parse_pair
FNDA:0,_RNvMsa_NtCsdVUoCTQwUTs_15gungraun_macros6commonNtB5_5Setup19to_string_with_args
FNDA:0,_RNvMsa_NtCsdVUoCTQwUTs_15gungraun_macros6commonNtB5_5Setup19to_string_with_iter
FNDA:0,_RNvMsa_NtCsdVUoCTQwUTs_15gungraun_macros6commonNtB5_5Setup6update
FNDA:0,_RNvMsb_NtCsdVUoCTQwUTs_15gungraun_macros6commonNtB5_8Teardown10parse_pair
FNDA:0,_RNvMsb_NtCsdVUoCTQwUTs_15gungraun_macros6commonNtB5_8Teardown6update
FNDA:0,_RNvNtCsdVUoCTQwUTs_15gungraun_macros6common12format_ident
FNDA:0,_RNvNtCsdVUoCTQwUTs_15gungraun_macros6common17truncate_str_utf8
FNDA:0,_RNvNtCsdVUoCTQwUTs_15gungraun_macros6common20format_indexed_ident
FNDA:0,_RNvNtCsdVUoCTQwUTs_15gungraun_macros6common32pattern_to_single_function_ident
FNDA:0,_RNvXs0_NtCsdVUoCTQwUTs_15gungraun_macros6commonNtB5_4ArgsNtNtCs78vtsH2YuCh_5quote9to_tokens8ToTokens9to_tokens
FNDA:0,_RNvXs6_NtCsdVUoCTQwUTs_15gungraun_macros6commonNtB5_6ConstsNtNtCseSkPA7Sfx0z_3syn5parse5Parse5parse
FNDA:0,_RNvXs7_NtCsdVUoCTQwUTs_15gungraun_macros6commonNtB5_6ConstsNtNtCs78vtsH2YuCh_5quote9to_tokens8ToTokens9to_tokens
FNDA:0,_RNvXs_NtCsdVUoCTQwUTs_15gungraun_macros6commonNtB4_4ArgsNtNtCseSkPA7Sfx0z_3syn5parse5Parse5parse
FNDA:0,_RNCNCNvMs5_NtCsdVUoCTQwUTs_15gungraun_macros6commonNtB9_6Consts12maybe_string00Bb_
FNDA:0,_RNCNvMNtCsdVUoCTQwUTs_15gungraun_macros6commonNtB4_4Args3len0B6_
FNDA:0,_RNCNvMNtCsdVUoCTQwUTs_15gungraun_macros6commonNtB4_4Args4span0B6_
FNDA:0,_RNCNvMs1_NtCsdVUoCTQwUTs_15gungraun_macros6commonNtB7_5Bench22from_benches_attribute0B9_
FNDA:0,_RNCNvMs5_NtCsdVUoCTQwUTs_15gungraun_macros6commonNtB7_6Consts12maybe_string0B9_
FNDA:0,_RNCNvMs5_NtCsdVUoCTQwUTs_15gungraun_macros6commonNtB7_6Consts17to_function_calls0B9_
FNDA:0,_RNCNvMs5_NtCsdVUoCTQwUTs_15gungraun_macros6commonNtB7_6Consts17to_function_callss0_0B9_
FNDA:0,_RNCNvMs5_NtCsdVUoCTQwUTs_15gungraun_macros6commonNtB7_6Consts17to_function_callss_0B9_
FNDA:0,_RNCNvMs5_NtCsdVUoCTQwUTs_15gungraun_macros6commonNtB7_6Consts3len0B9_
FNDA:0,_RNCNvMs5_NtCsdVUoCTQwUTs_15gungraun_macros6commonNtB7_6Consts4span0B9_
FNDA:0,_RNCNvMs5_NtCsdVUoCTQwUTs_15gungraun_macros6commonNtB7_6Consts5exprs0B9_
FNDA:0,_RNCNvMs5_NtCsdVUoCTQwUTs_15gungraun_macros6commonNtB7_6Consts8is_empty0B9_
FNDA:0,_RNCNvMs8_NtCsdVUoCTQwUTs_15gungraun_macros6commonNtB7_4File4read0B9_
FNDA:0,_RNCNvNtCsdVUoCTQwUTs_15gungraun_macros6common17truncate_str_utf80B5_
FNDA:58,_RNCNCNvMs5_NtCs4VtoIICFLcm_15gungraun_macros6commonNtB9_6Consts12maybe_string00Bb_
FNDA:303,_RNCNvMNtCs4VtoIICFLcm_15gungraun_macros6commonNtB4_4Args3len0B6_
FNDA:11,_RNCNvMNtCs4VtoIICFLcm_15gungraun_macros6commonNtB4_4Args4span0B6_
FNDA:248,_RNCNvMs1_NtCs4VtoIICFLcm_15gungraun_macros6commonNtB7_5Bench22from_benches_attribute0B9_
FNDA:273,_RNCNvMs5_NtCs4VtoIICFLcm_15gungraun_macros6commonNtB7_6Consts12maybe_string0B9_
FNDA:213,_RNCNvMs5_NtCs4VtoIICFLcm_15gungraun_macros6commonNtB7_6Consts17to_function_calls0B9_
FNDA:128,_RNCNvMs5_NtCs4VtoIICFLcm_15gungraun_macros6commonNtB7_6Consts17to_function_callss0_0B9_
FNDA:420,_RNCNvMs5_NtCs4VtoIICFLcm_15gungraun_macros6commonNtB7_6Consts17to_function_callss_0B9_
FNDA:277,_RNCNvMs5_NtCs4VtoIICFLcm_15gungraun_macros6commonNtB7_6Consts3len0B9_
FNDA:25,_RNCNvMs5_NtCs4VtoIICFLcm_15gungraun_macros6commonNtB7_6Consts4span0B9_
FNDA:261,_RNCNvMs5_NtCs4VtoIICFLcm_15gungraun_macros6commonNtB7_6Consts5exprs0B9_
FNDA:277,_RNCNvMs5_NtCs4VtoIICFLcm_15gungraun_macros6commonNtB7_6Consts8is_empty0B9_
FNDA:2,_RNCNvMs8_NtCs4VtoIICFLcm_15gungraun_macros6commonNtB7_4File4read0B9_
FNDA:5849,_RNCNvNtCs4VtoIICFLcm_15gungraun_macros6common17truncate_str_utf80B5_
FNDA:84,_RNvMNtCs4VtoIICFLcm_15gungraun_macros6commonNtB2_4Args10parse_pair
FNDA:46,_RNvMNtCs4VtoIICFLcm_15gungraun_macros6commonNtB2_4Args15parse_meta_list
FNDA:427,_RNvMNtCs4VtoIICFLcm_15gungraun_macros6commonNtB2_4Args19check_num_arguments
FNDA:649,_RNvMNtCs4VtoIICFLcm_15gungraun_macros6commonNtB2_4Args27to_tokens_without_black_box
FNDA:427,_RNvMNtCs4VtoIICFLcm_15gungraun_macros6commonNtB2_4Args3len
FNDA:347,_RNvMNtCs4VtoIICFLcm_15gungraun_macros6commonNtB2_4Args3new
FNDA:13,_RNvMNtCs4VtoIICFLcm_15gungraun_macros6commonNtB2_4Args4span
FNDA:85,_RNvMNtCs4VtoIICFLcm_15gungraun_macros6commonNtB2_4Args8set_span
FNDA:311,_RNvMs1_NtCs4VtoIICFLcm_15gungraun_macros6commonNtB5_5Bench22from_benches_attribute
FNDA:391,_RNvMs1_NtCs4VtoIICFLcm_15gungraun_macros6commonNtB5_5Bench3new
FNDA:28,_RNvMs2_NtCs4VtoIICFLcm_15gungraun_macros6commonNtB5_11BenchConfig10parse_pair
FNDA:26,_RNvMs2_NtCs4VtoIICFLcm_15gungraun_macros6commonNtB5_11BenchConfig5ident
FNDA:225,_RNvMs2_NtCs4VtoIICFLcm_15gungraun_macros6commonNtB5_11BenchConfig7is_some
FNDA:116,_RNvMs3_NtCs4VtoIICFLcm_15gungraun_macros6commonNtB5_11BenchesArgs10parse_pair
FNDA:180,_RNvMs3_NtCs4VtoIICFLcm_15gungraun_macros6commonNtB5_11BenchesArgs13iter_infinite
FNDA:26,_RNvMs3_NtCs4VtoIICFLcm_15gungraun_macros6commonNtB5_11BenchesArgs14from_meta_list
FNDA:180,_RNvMs3_NtCs4VtoIICFLcm_15gungraun_macros6commonNtB5_11BenchesArgs3len
FNDA:327,_RNvMs3_NtCs4VtoIICFLcm_15gungraun_macros6commonNtB5_11BenchesArgs3new
FNDA:311,_RNvMs3_NtCs4VtoIICFLcm_15gungraun_macros6commonNtB5_11BenchesArgs7is_some
FNDA:141,_RNvMs3_NtCs4VtoIICFLcm_15gungraun_macros6commonNtB5_11BenchesArgs9from_expr
FNDA:161,_RNvMs4_NtCs4VtoIICFLcm_15gungraun_macros6commonNtB5_13BenchesConsts10parse_pair
FNDA:196,_RNvMs4_NtCs4VtoIICFLcm_15gungraun_macros6commonNtB5_13BenchesConsts13iter_infinite
FNDA:279,_RNvMs4_NtCs4VtoIICFLcm_15gungraun_macros6commonNtB5_13BenchesConsts3len
FNDA:327,_RNvMs4_NtCs4VtoIICFLcm_15gungraun_macros6commonNtB5_13BenchesConsts3new
FNDA:95,_RNvMs4_NtCs4VtoIICFLcm_15gungraun_macros6commonNtB5_13BenchesConsts5first
FNDA:159,_RNvMs4_NtCs4VtoIICFLcm_15gungraun_macros6commonNtB5_13BenchesConsts9from_expr
FNDA:98,_RNvMs5_NtCs4VtoIICFLcm_15gungraun_macros6commonNtB5_6Consts10parse_pair
FNDA:566,_RNvMs5_NtCs4VtoIICFLcm_15gungraun_macros6commonNtB5_6Consts12maybe_string
FNDA:570,_RNvMs5_NtCs4VtoIICFLcm_15gungraun_macros6commonNtB5_6Consts17to_function_calls
FNDA:364,_RNvMs5_NtCs4VtoIICFLcm_15gungraun_macros6commonNtB5_6Consts19check_num_arguments
FNDA:364,_RNvMs5_NtCs4VtoIICFLcm_15gungraun_macros6commonNtB5_6Consts3len
FNDA:259,_RNvMs5_NtCs4VtoIICFLcm_15gungraun_macros6commonNtB5_6Consts3new
FNDA:25,_RNvMs5_NtCs4VtoIICFLcm_15gungraun_macros6commonNtB5_6Consts4span
FNDA:261,_RNvMs5_NtCs4VtoIICFLcm_15gungraun_macros6commonNtB5_6Consts5exprs
FNDA:570,_RNvMs5_NtCs4VtoIICFLcm_15gungraun_macros6commonNtB5_6Consts8is_empty
FNDA:70,_RNvMs5_NtCs4VtoIICFLcm_15gungraun_macros6commonNtB5_6Consts8set_span
FNDA:30,_RNvMs8_NtCs4VtoIICFLcm_15gungraun_macros6commonNtB5_4File10parse_pair
FNDA:22,_RNvMs8_NtCs4VtoIICFLcm_15gungraun_macros6commonNtB5_4File4read
FNDA:311,_RNvMs8_NtCs4VtoIICFLcm_15gungraun_macros6commonNtB5_4File7is_some
FNDA:24,_RNvMs8_NtCs4VtoIICFLcm_15gungraun_macros6commonNtB5_4File7literal
FNDA:107,_RNvMs9_NtCs4VtoIICFLcm_15gungraun_macros6commonNtB5_4Iter10parse_pair
FNDA:103,_RNvMs9_NtCs4VtoIICFLcm_15gungraun_macros6commonNtB5_4Iter4expr
FNDA:311,_RNvMs9_NtCs4VtoIICFLcm_15gungraun_macros6commonNtB5_4Iter7is_some
FNDA:44,_RNvMsa_NtCs4VtoIICFLcm_15gungraun_macros6commonNtB5_5Setup10parse_pair
FNDA:293,_RNvMsa_NtCs4VtoIICFLcm_15gungraun_macros6commonNtB5_5Setup19to_string_with_args
FNDA:48,_RNvMsa_NtCs4VtoIICFLcm_15gungraun_macros6commonNtB5_5Setup19to_string_with_iter
FNDA:290,_RNvMsa_NtCs4VtoIICFLcm_15gungraun_macros6commonNtB5_5Setup6update
FNDA:25,_RNvMsb_NtCs4VtoIICFLcm_15gungraun_macros6commonNtB5_8Teardown10parse_pair
FNDA:290,_RNvMsb_NtCs4VtoIICFLcm_15gungraun_macros6commonNtB5_8Teardown6update
FNDA:2332,_RNvNtCs4VtoIICFLcm_15gungraun_macros6common12format_ident
FNDA:693,_RNvNtCs4VtoIICFLcm_15gungraun_macros6common17truncate_str_utf8
FNDA:296,_RNvNtCs4VtoIICFLcm_15gungraun_macros6common20format_indexed_ident
FNDA:304,_RNvNtCs4VtoIICFLcm_15gungraun_macros6common32pattern_to_single_function_ident
FNDA:626,_RNvXs0_NtCs4VtoIICFLcm_15gungraun_macros6commonNtB5_4ArgsNtNtCs5zTqYJ1QKLS_5quote9to_tokens8ToTokens9to_tokens
FNDA:70,_RNvXs6_NtCs4VtoIICFLcm_15gungraun_macros6commonNtB5_6ConstsNtNtCs7YDbPhiuUg2_3syn5parse5Parse5parse
FNDA:0,_RNvXs7_NtCs4VtoIICFLcm_15gungraun_macros6commonNtB5_6ConstsNtNtCs5zTqYJ1QKLS_5quote9to_tokens8ToTokens9to_tokens
FNDA:87,_RNvXs_NtCs4VtoIICFLcm_15gungraun_macros6commonNtB4_4ArgsNtNtCs7YDbPhiuUg2_3syn5parse5Parse5parse
FNF:73
FNH:70
DA:79,2
DA:80,347
DA:81,347
DA:83,5
DA:84,427
DA:85,427
DA:87,0
DA:88,13
DA:89,13
DA:91,0
DA:92,85
DA:93,85
DA:94,85
DA:95,85
DA:97,2
DA:98,84
DA:99,2
DA:100,84
DA:101,86
DA:102,0
DA:103,0
DA:105,0
DA:106,0
DA:108,16
DA:109,16
DA:111,0
DA:112,16
DA:114,2
DA:117,0
DA:118,1
DA:119,1
DA:120,1
DA:121,0
DA:122,1
DA:123,0
DA:124,1
DA:128,2
DA:129,0
DA:130,0
DA:131,0
DA:132,0
DA:133,0
DA:134,0
DA:136,85
DA:137,85
DA:139,0
DA:140,44
DA:141,0
DA:142,44
DA:143,44
DA:144,44
DA:145,44
DA:146,46
DA:148,10
DA:149,659
DA:150,4
DA:152,6
DA:154,659
DA:159,5
DA:160,427
DA:161,427
DA:162,427
DA:163,13
DA:164,11
DA:165,11
DA:166,11
DA:167,11
DA:168,11
DA:169,11
DA:170,11
DA:171,11
DA:172,2
DA:173,2
DA:174,2
DA:175,2
DA:176,2
DA:177,2
DA:178,2
DA:179,2
DA:180,419
DA:181,432
DA:185,0
DA:186,85
DA:187,87
DA:188,0
DA:189,85
DA:190,85
DA:191,85
DA:192,85
DA:193,85
DA:194,87
DA:198,0
DA:199,626
DA:200,433
DA:201,0
DA:202,193
DA:203,626
DA:207,0
DA:208,391
DA:209,391
DA:216,0
DA:217,0
DA:218,0
DA:219,0
DA:220,0
DA:221,0
DA:222,0
DA:223,0
DA:224,0
DA:225,0
DA:226,311
DA:227,311
DA:228,311
DA:229,311
DA:231,0
DA:232,4
DA:233,4
DA:234,4
DA:239,180
DA:240,180
DA:241,133
DA:243,0
DA:248,0
DA:249,180
DA:250,180
DA:251,180
DA:252,180
DA:253,180
DA:254,248
DA:255,248
DA:256,153
DA:257,153
DA:259,0
DA:260,248
DA:261,248
DA:262,180
DA:266,0
DA:267,24
DA:268,0
DA:269,2
DA:270,2
DA:271,0
DA:272,2
DA:273,2
DA:274,22
DA:275,22
DA:276,22
DA:277,22
DA:278,0
DA:279,20
DA:280,20
DA:281,20
DA:282,0
DA:283,0
DA:285,0
DA:286,48
DA:287,0
DA:289,0
DA:292,48
DA:293,24
DA:294,24
DA:296,0
DA:297,48
DA:300,16
DA:304,0
DA:305,103
DA:306,0
DA:307,4
DA:308,4
DA:309,0
DA:310,4
DA:311,4
DA:312,0
DA:313,0
DA:314,0
DA:315,0
DA:316,4
DA:317,99
DA:318,0
DA:319,4
DA:320,4
DA:321,4
DA:322,4
DA:323,0
DA:324,4
DA:325,0
DA:326,4
DA:327,0
DA:328,0
DA:329,0
DA:330,95
DA:331,95
DA:332,95
DA:333,8
DA:334,87
DA:336,0
DA:339,291
DA:343,0
DA:344,26
DA:345,26
DA:347,3
DA:348,31
DA:349,31
DA:350,31
DA:351,0
DA:352,0
DA:353,0
DA:354,0
DA:355,0
DA:356,31
DA:358,5
DA:359,225
DA:360,225
DA:364,0
DA:365,311
DA:366,311
DA:368,0
DA:369,180
DA:370,180
DA:372,0
DA:373,327
DA:374,0
DA:375,0
DA:376,0
DA:377,0
DA:378,327
DA:380,0
DA:381,116
DA:382,116
DA:383,11
DA:385,0
DA:386,2
DA:387,2
DA:388,2
DA:389,2
DA:390,0
DA:391,0
DA:392,0
DA:393,0
DA:394,2
DA:395,114
DA:396,114
DA:397,114
DA:399,0
DA:400,0
DA:401,0
DA:402,0
DA:405,114
DA:406,114
DA:408,0
DA:409,141
DA:410,0
DA:411,313
DA:412,0
DA:413,172
DA:414,25
DA:415,25
DA:416,0
DA:417,25
DA:419,0
DA:420,0
DA:423,0
DA:426,141
DA:427,141
DA:429,0
DA:430,26
DA:431,25
DA:433,25
DA:434,25
DA:435,25
DA:436,25
DA:437,25
DA:438,25
DA:439,26
DA:441,0
DA:442,133
DA:443,133
DA:444,124
DA:445,0
DA:446,124
DA:447,124
DA:448,124
DA:450,0
DA:452,180
DA:456,0
DA:457,161
DA:458,157
DA:459,24
DA:461,0
DA:462,4
DA:463,4
DA:464,4
DA:465,4
DA:466,0
DA:467,0
DA:468,0
DA:469,0
DA:470,4
DA:471,153
DA:472,153
DA:473,153
DA:474,153
DA:476,0
DA:477,2
DA:478,2
DA:479,2
DA:482,153
DA:483,155
DA:485,0
DA:486,157
DA:487,0
DA:488,324
DA:489,0
DA:490,167
DA:491,36
DA:492,36
DA:493,0
DA:494,36
DA:496,0
DA:497,0
DA:500,0
DA:503,157
DA:504,159
DA:506,0
DA:507,135
DA:508,135
DA:509,119
DA:510,119
DA:512,0
DA:514,196
DA:516,0
DA:517,279
DA:518,279
DA:520,0
DA:521,327
DA:522,0
DA:523,0
DA:524,0
DA:525,0
DA:526,327
DA:528,0
DA:529,95
DA:530,95
DA:534,0
DA:535,259
DA:536,259
DA:538,5
DA:539,364
DA:540,364
DA:542,5
DA:543,570
DA:544,570
DA:546,0
DA:547,261
DA:548,261
DA:550,5
DA:551,566
DA:552,273
DA:553,16
DA:555,0
DA:556,257
DA:557,257
DA:558,257
DA:559,58
DA:560,58
DA:561,257
DA:562,257
DA:564,566
DA:565,566
DA:567,0
DA:568,25
DA:569,25
DA:571,0
DA:572,70
DA:573,70
DA:574,70
DA:575,70
DA:577,0
DA:578,98
DA:579,0
DA:580,96
DA:581,96
DA:582,0
DA:583,0
DA:585,0
DA:586,0
DA:588,34
DA:589,34
DA:591,0
DA:592,34
DA:594,0
DA:597,0
DA:598,4
DA:599,4
DA:600,4
DA:601,0
DA:602,4
DA:603,0
DA:604,4
DA:608,0
DA:609,2
DA:610,2
DA:611,2
DA:612,2
DA:613,2
DA:614,2
DA:616,94
DA:617,94
DA:622,5
DA:623,364
DA:624,364
DA:625,364
DA:626,25
DA:627,25
DA:628,25
DA:629,25
DA:630,25
DA:631,25
DA:632,25
DA:633,25
DA:634,25
DA:635,25
DA:636,0
DA:637,0
DA:638,0
DA:639,0
DA:640,0
DA:641,0
DA:642,0
DA:643,0
DA:644,0
DA:645,344
DA:646,369
DA:648,5
DA:649,5
DA:650,5
DA:651,5
DA:652,5
DA:653,5
DA:654,570
DA:655,309
DA:656,309
DA:657,309
DA:658,309
DA:660,0
DA:661,261
DA:662,261
DA:663,0
DA:664,261
DA:665,420
DA:666,32
DA:667,82
DA:668,306
DA:669,306
DA:670,302
DA:672,0
DA:673,4
DA:674,4
DA:675,4
DA:676,4
DA:679,416
DA:680,261
DA:681,261
DA:682,261
DA:683,0
DA:684,257
DA:685,257
DA:686,257
DA:687,257
DA:689,571
DA:693,0
DA:694,70
DA:695,70
DA:696,0
DA:697,70
DA:698,70
DA:699,70
DA:700,70
DA:701,70
DA:702,70
DA:706,0
DA:707,0
DA:708,0
DA:709,0
DA:710,0
DA:711,0
DA:715,0
DA:716,24
DA:717,24
DA:719,0
DA:720,311
DA:721,311
DA:723,0
DA:724,30
DA:725,30
DA:726,26
DA:728,0
DA:729,4
DA:730,4
DA:731,0
DA:732,4
DA:733,4
DA:735,0
DA:736,0
DA:737,0
DA:738,0
DA:739,0
DA:740,0
DA:742,26
DA:743,26
DA:750,0
DA:751,22
DA:752,22
DA:753,22
DA:754,22
DA:755,22
DA:756,22
DA:757,22
DA:758,22
DA:759,22
DA:760,0
DA:762,0
DA:763,22
DA:764,22
DA:765,22
DA:766,0
DA:767,50
DA:768,0
DA:769,0
DA:770,0
DA:771,0
DA:772,2
DA:773,2
DA:774,2
DA:775,2
DA:776,2
DA:777,2
DA:778,2
DA:782,0
DA:783,18
DA:787,0
DA:788,311
DA:789,311
DA:791,0
DA:792,103
DA:793,103
DA:795,0
DA:796,107
DA:797,105
DA:798,105
DA:799,2
DA:800,2
DA:801,2
DA:802,2
DA:803,2
DA:804,107
DA:808,0
DA:809,44
DA:810,0
DA:811,44
DA:812,44
DA:813,44
DA:814,0
DA:815,0
DA:816,0
DA:817,0
DA:818,0
DA:819,0
DA:822,0
DA:823,0
DA:824,0
DA:825,0
DA:827,44
DA:829,0
DA:830,293
DA:831,293
DA:832,0
DA:834,0
DA:836,293
DA:838,0
DA:839,48
DA:840,48
DA:841,0
DA:843,0
DA:845,48
DA:848,0
DA:849,0
DA:850,0
DA:851,290
DA:852,290
DA:856,0
DA:857,25
DA:858,0
DA:859,25
DA:860,25
DA:861,25
DA:862,0
DA:863,0
DA:864,0
DA:865,0
DA:866,0
DA:867,0
DA:870,0
DA:871,0
DA:872,0
DA:873,0
DA:875,25
DA:879,0
DA:880,0
DA:881,0
DA:882,290
DA:883,290
DA:886,28
DA:887,2360
DA:888,24
DA:890,4
DA:892,2360
DA:894,0
DA:895,296
DA:896,296
DA:899,2
DA:900,2
DA:901,693
DA:902,693
DA:903,693
DA:905,695
DA:907,0
DA:909,695
DA:911,0
DA:912,0
DA:913,0
DA:914,0
DA:915,0
DA:916,304
DA:917,0
DA:918,0
DA:919,0
DA:920,0
DA:921,0
DA:922,0
DA:923,0
DA:924,0
DA:925,0
DA:927,0
DA:928,8
DA:929,8
DA:930,8
DA:931,8
DA:932,8
DA:933,0
DA:935,0
DA:936,0
DA:937,0
DA:938,0
DA:939,0
DA:940,0
DA:941,0
DA:942,0
DA:943,0
DA:944,0
DA:945,0
DA:946,0
DA:947,0
DA:948,0
DA:949,0
DA:950,0
DA:951,0
DA:952,0
DA:953,0
DA:954,0
DA:955,0
DA:956,0
DA:957,0
DA:958,0
DA:959,0
DA:960,0
DA:961,0
DA:962,0
DA:963,0
DA:964,0
DA:965,0
DA:966,0
DA:967,0
DA:968,0
DA:969,0
DA:970,0
DA:971,0
DA:973,304
BRF:0
BRH:0
LF:717
LH:633
end_of_record
SF:/fast/lenny/workspace/programming/gungraun/gungraun/gungraun-macros/src/derive_macros.rs
FN:14,_RNCNvNtCs2b4E09oIUXa_15gungraun_macros13derive_macros17render_into_inner0B5_
FN:6,_RNvNtCs2b4E09oIUXa_15gungraun_macros13derive_macros17render_into_inner
FN:6,_RNvNtCsefbuI5cqeZT_15gungraun_macros13derive_macros17render_into_inner
FN:14,_RNCNvNtCsefbuI5cqeZT_15gungraun_macros13derive_macros17render_into_inner0B5_
FN:6,_RNvNtCsdVUoCTQwUTs_15gungraun_macros13derive_macros17render_into_inner
FN:14,_RNCNvNtCsdVUoCTQwUTs_15gungraun_macros13derive_macros17render_into_inner0B5_
FN:14,_RNCNvNtCs4VtoIICFLcm_15gungraun_macros13derive_macros17render_into_inner0B5_
FN:6,_RNvNtCs4VtoIICFLcm_15gungraun_macros13derive_macros17render_into_inner
FNDA:0,_RNCNvNtCs2b4E09oIUXa_15gungraun_macros13derive_macros17render_into_inner0B5_
FNDA:0,_RNvNtCs2b4E09oIUXa_15gungraun_macros13derive_macros17render_into_inner
FNDA:30,_RNvNtCsefbuI5cqeZT_15gungraun_macros13derive_macros17render_into_inner
FNDA:30,_RNCNvNtCsefbuI5cqeZT_15gungraun_macros13derive_macros17render_into_inner0B5_
FNDA:15,_RNvNtCsdVUoCTQwUTs_15gungraun_macros13derive_macros17render_into_inner
FNDA:15,_RNCNvNtCsdVUoCTQwUTs_15gungraun_macros13derive_macros17render_into_inner0B5_
FNDA:30,_RNCNvNtCs4VtoIICFLcm_15gungraun_macros13derive_macros17render_into_inner0B5_
FNDA:30,_RNvNtCs4VtoIICFLcm_15gungraun_macros13derive_macros17render_into_inner
FNF:2
FNH:2
DA:6,30
DA:7,30
DA:8,30
DA:9,75
DA:10,75
DA:11,30
DA:12,30
DA:13,45
DA:14,45
DA:15,45
DA:16,45
DA:17,45
DA:18,0
DA:19,0
DA:20,30
DA:21,0
DA:22,0
DA:23,0
DA:26,0
DA:27,0
DA:28,0
DA:31,0
DA:32,0
DA:33,0
DA:36,30
DA:37,45
DA:38,45
DA:39,45
DA:40,45
DA:41,45
DA:42,45
DA:43,45
DA:44,45
DA:45,45
DA:46,45
DA:47,45
DA:48,45
DA:49,45
DA:50,45
DA:51,45
DA:52,45
DA:53,45
DA:54,45
DA:55,45
DA:56,45
DA:57,75
BRF:0
BRH:0
LF:47
LH:36
end_of_record
SF:/fast/lenny/workspace/programming/gungraun/gungraun/gungraun-macros/src/lib.rs
FN:639,_RNCNvCs2b4E09oIUXa_15gungraun_macros10into_inner0B3_
FN:617,_RNCNvCs2b4E09oIUXa_15gungraun_macros16binary_benchmark0B3_
FN:462,_RNCNvCs2b4E09oIUXa_15gungraun_macros17library_benchmark0B3_
FN:28,_RNCNvMCs2b4E09oIUXa_15gungraun_macrosNtB4_13CargoMetadata7try_new0B4_
FN:23,_RNvMCs2b4E09oIUXa_15gungraun_macrosNtB2_13CargoMetadata7try_new
FN:23,_RNvMCsefbuI5cqeZT_15gungraun_macrosNtB2_13CargoMetadata7try_new
FN:639,_RNCNvCsefbuI5cqeZT_15gungraun_macros10into_inner0B3_
FN:617,_RNCNvCsefbuI5cqeZT_15gungraun_macros16binary_benchmark0B3_
FN:462,_RNCNvCsefbuI5cqeZT_15gungraun_macros17library_benchmark0B3_
FN:28,_RNCNvMCsefbuI5cqeZT_15gungraun_macrosNtB4_13CargoMetadata7try_new0B4_
FN:639,_RNCNvCsdVUoCTQwUTs_15gungraun_macros10into_inner0B3_
FN:617,_RNCNvCsdVUoCTQwUTs_15gungraun_macros16binary_benchmark0B3_
FN:462,_RNCNvCsdVUoCTQwUTs_15gungraun_macros17library_benchmark0B3_
FN:28,_RNCNvMCsdVUoCTQwUTs_15gungraun_macrosNtB4_13CargoMetadata7try_new0B4_
FN:23,_RNvMCsdVUoCTQwUTs_15gungraun_macrosNtB2_13CargoMetadata7try_new
FN:639,_RNCNvCs4VtoIICFLcm_15gungraun_macros10into_inner0B3_
FN:617,_RNCNvCs4VtoIICFLcm_15gungraun_macros16binary_benchmark0B3_
FN:462,_RNCNvCs4VtoIICFLcm_15gungraun_macros17library_benchmark0B3_
FN:28,_RNCNvMCs4VtoIICFLcm_15gungraun_macrosNtB4_13CargoMetadata7try_new0B4_
FN:23,_RNvMCs4VtoIICFLcm_15gungraun_macrosNtB2_13CargoMetadata7try_new
FNDA:0,_RNCNvCs2b4E09oIUXa_15gungraun_macros10into_inner0B3_
FNDA:0,_RNCNvCs2b4E09oIUXa_15gungraun_macros16binary_benchmark0B3_
FNDA:0,_RNCNvCs2b4E09oIUXa_15gungraun_macros17library_benchmark0B3_
FNDA:0,_RNCNvMCs2b4E09oIUXa_15gungraun_macrosNtB4_13CargoMetadata7try_new0B4_
FNDA:0,_RNvMCs2b4E09oIUXa_15gungraun_macrosNtB2_13CargoMetadata7try_new
FNDA:3,_RNvMCsefbuI5cqeZT_15gungraun_macrosNtB2_13CargoMetadata7try_new
FNDA:30,_RNCNvCsefbuI5cqeZT_15gungraun_macros10into_inner0B3_
FNDA:3,_RNCNvCsefbuI5cqeZT_15gungraun_macros16binary_benchmark0B3_
FNDA:0,_RNCNvCsefbuI5cqeZT_15gungraun_macros17library_benchmark0B3_
FNDA:3,_RNCNvMCsefbuI5cqeZT_15gungraun_macrosNtB4_13CargoMetadata7try_new0B4_
FNDA:15,_RNCNvCsdVUoCTQwUTs_15gungraun_macros10into_inner0B3_
FNDA:0,_RNCNvCsdVUoCTQwUTs_15gungraun_macros16binary_benchmark0B3_
FNDA:0,_RNCNvCsdVUoCTQwUTs_15gungraun_macros17library_benchmark0B3_
FNDA:0,_RNCNvMCsdVUoCTQwUTs_15gungraun_macrosNtB4_13CargoMetadata7try_new0B4_
FNDA:0,_RNvMCsdVUoCTQwUTs_15gungraun_macrosNtB2_13CargoMetadata7try_new
FNDA:30,_RNCNvCs4VtoIICFLcm_15gungraun_macros10into_inner0B3_
FNDA:222,_RNCNvCs4VtoIICFLcm_15gungraun_macros16binary_benchmark0B3_
FNDA:297,_RNCNvCs4VtoIICFLcm_15gungraun_macros17library_benchmark0B3_
FNDA:515,_RNCNvMCs4VtoIICFLcm_15gungraun_macrosNtB4_13CargoMetadata7try_new0B4_
FNDA:515,_RNvMCs4VtoIICFLcm_15gungraun_macrosNtB2_13CargoMetadata7try_new
FNF:5
FNH:5
DA:23,3
DA:24,515
DA:25,3
DA:26,515
DA:27,515
DA:28,515
DA:29,515
DA:462,0
DA:463,297
DA:464,0
DA:465,0
DA:617,3
DA:618,222
DA:619,3
DA:620,0
DA:639,30
DA:640,45
DA:641,30
DA:642,0
BRF:0
BRH:0
LF:20
LH:19
end_of_record
SF:/fast/lenny/workspace/programming/gungraun/gungraun/gungraun-macros/src/lib_bench.rs
FN:446,_RNCNvMs2_NtCs2b4E09oIUXa_15gungraun_macros9lib_benchNtB7_6Callee19to_caller_signature0B9_
FN:471,_RNCNvMs2_NtCs2b4E09oIUXa_15gungraun_macros9lib_benchNtB7_6Callee19to_caller_signatures_0B9_
FN:557,_RNCNvMs5_NtCs2b4E09oIUXa_15gungraun_macros9lib_benchNtB7_16LibraryBenchmark15extract_benches0B9_
FN:582,_RNCNvMs5_NtCs2b4E09oIUXa_15gungraun_macros9lib_benchNtB7_16LibraryBenchmark15extract_benchess_0B9_
FN:221,_RNCNvMs_NtCs2b4E09oIUXa_15gungraun_macros9lib_benchNtB6_5Bench23parse_benches_attribute0B8_
FN:396,_RNvMs0_NtCs2b4E09oIUXa_15gungraun_macros9lib_benchNtB5_11BenchConfig14render_as_code
FN:410,_RNvMs0_NtCs2b4E09oIUXa_15gungraun_macros9lib_benchNtB5_11BenchConfig16render_as_member
FN:431,_RNvMs2_NtCs2b4E09oIUXa_15gungraun_macros9lib_benchNtB5_6Callee10len_inputs
FN:440,_RNvMs2_NtCs2b4E09oIUXa_15gungraun_macros9lib_benchNtB5_6Callee19to_caller_signature
FN:496,_RNvMs4_NtCs2b4E09oIUXa_15gungraun_macros9lib_benchNtB5_4Iter10iter_ident
FN:500,_RNvMs4_NtCs2b4E09oIUXa_15gungraun_macros9lib_benchNtB5_4Iter11index_ident
FN:508,_RNvMs4_NtCs2b4E09oIUXa_15gungraun_macros9lib_benchNtB5_4Iter14render_as_code
FN:504,_RNvMs4_NtCs2b4E09oIUXa_15gungraun_macros9lib_benchNtB5_4Iter4expr
FN:750,_RNvMs5_NtCs2b4E09oIUXa_15gungraun_macros9lib_benchNtB5_16LibraryBenchmark14render_benches
FN:536,_RNvMs5_NtCs2b4E09oIUXa_15gungraun_macros9lib_benchNtB5_16LibraryBenchmark15extract_benches
FN:625,_RNvMs5_NtCs2b4E09oIUXa_15gungraun_macros9lib_benchNtB5_16LibraryBenchmark17render_standalone
FN:826,_RNvMs7_NtCs2b4E09oIUXa_15gungraun_macros9lib_benchNtB5_22LibraryBenchmarkConfig14render_as_code
FN:822,_RNvMs7_NtCs2b4E09oIUXa_15gungraun_macros9lib_benchNtB5_22LibraryBenchmarkConfig5ident
FN:858,_RNvMs8_NtCs2b4E09oIUXa_15gungraun_macros9lib_benchNtB5_5Setup14render_as_code
FN:854,_RNvMs8_NtCs2b4E09oIUXa_15gungraun_macros9lib_benchNtB5_5Setup4expr
FN:850,_RNvMs8_NtCs2b4E09oIUXa_15gungraun_macros9lib_benchNtB5_5Setup7is_some
FN:868,_RNvMs9_NtCs2b4E09oIUXa_15gungraun_macros9lib_benchNtB5_8Teardown14render_as_code
FN:234,_RNvMs_NtCs2b4E09oIUXa_15gungraun_macros9lib_benchNtB4_5Bench14render_as_code
FN:351,_RNvMs_NtCs2b4E09oIUXa_15gungraun_macros9lib_benchNtB4_5Bench16render_as_member
FN:91,_RNvMs_NtCs2b4E09oIUXa_15gungraun_macros9lib_benchNtB4_5Bench21parse_bench_attribute
FN:154,_RNvMs_NtCs2b4E09oIUXa_15gungraun_macros9lib_benchNtB4_5Bench23parse_benches_attribute
FN:883,_RNvNtCs2b4E09oIUXa_15gungraun_macros9lib_bench14create_item_fn
FN:914,_RNvNtCs2b4E09oIUXa_15gungraun_macros9lib_bench6render
FN:85,_RNvXNtCs2b4E09oIUXa_15gungraun_macros9lib_benchNtB2_4ArgsNtNtCsaGWFmk4Cc5n_5quote9to_tokens8ToTokens9to_tokens
FN:421,_RNvXs1_NtCs2b4E09oIUXa_15gungraun_macros9lib_benchNtB5_9BenchModeINtNtCsgEmfK2I1SDS_4core7convert4FromNtNtB7_6common9BenchModeE4from
FN:490,_RNvXs3_NtCs2b4E09oIUXa_15gungraun_macros9lib_benchNtB5_6ConstsINtNtCsgEmfK2I1SDS_4core7convert4FromNtNtB7_6common6ConstsE4from
FN:786,_RNvXs6_NtCs2b4E09oIUXa_15gungraun_macros9lib_benchNtB5_16LibraryBenchmarkNtNtCs18ZQ9XUxf5Z_3syn5parse5Parse5parse
FN:431,_RNvMs2_NtCsefbuI5cqeZT_15gungraun_macros9lib_benchNtB5_6Callee10len_inputs
FN:396,_RNvMs0_NtCsefbuI5cqeZT_15gungraun_macros9lib_benchNtB5_11BenchConfig14render_as_code
FN:410,_RNvMs0_NtCsefbuI5cqeZT_15gungraun_macros9lib_benchNtB5_11BenchConfig16render_as_member
FN:440,_RNvMs2_NtCsefbuI5cqeZT_15gungraun_macros9lib_benchNtB5_6Callee19to_caller_signature
FN:496,_RNvMs4_NtCsefbuI5cqeZT_15gungraun_macros9lib_benchNtB5_4Iter10iter_ident
FN:500,_RNvMs4_NtCsefbuI5cqeZT_15gungraun_macros9lib_benchNtB5_4Iter11index_ident
FN:508,_RNvMs4_NtCsefbuI5cqeZT_15gungraun_macros9lib_benchNtB5_4Iter14render_as_code
FN:504,_RNvMs4_NtCsefbuI5cqeZT_15gungraun_macros9lib_benchNtB5_4Iter4expr
FN:750,_RNvMs5_NtCsefbuI5cqeZT_15gungraun_macros9lib_benchNtB5_16LibraryBenchmark14render_benches
FN:536,_RNvMs5_NtCsefbuI5cqeZT_15gungraun_macros9lib_benchNtB5_16LibraryBenchmark15extract_benches
FN:625,_RNvMs5_NtCsefbuI5cqeZT_15gungraun_macros9lib_benchNtB5_16LibraryBenchmark17render_standalone
FN:826,_RNvMs7_NtCsefbuI5cqeZT_15gungraun_macros9lib_benchNtB5_22LibraryBenchmarkConfig14render_as_code
FN:822,_RNvMs7_NtCsefbuI5cqeZT_15gungraun_macros9lib_benchNtB5_22LibraryBenchmarkConfig5ident
FN:858,_RNvMs8_NtCsefbuI5cqeZT_15gungraun_macros9lib_benchNtB5_5Setup14render_as_code
FN:854,_RNvMs8_NtCsefbuI5cqeZT_15gungraun_macros9lib_benchNtB5_5Setup4expr
FN:850,_RNvMs8_NtCsefbuI5cqeZT_15gungraun_macros9lib_benchNtB5_5Setup7is_some
FN:868,_RNvMs9_NtCsefbuI5cqeZT_15gungraun_macros9lib_benchNtB5_8Teardown14render_as_code
FN:234,_RNvMs_NtCsefbuI5cqeZT_15gungraun_macros9lib_benchNtB4_5Bench14render_as_code
FN:351,_RNvMs_NtCsefbuI5cqeZT_15gungraun_macros9lib_benchNtB4_5Bench16render_as_member
FN:91,_RNvMs_NtCsefbuI5cqeZT_15gungraun_macros9lib_benchNtB4_5Bench21parse_bench_attribute
FN:154,_RNvMs_NtCsefbuI5cqeZT_15gungraun_macros9lib_benchNtB4_5Bench23parse_benches_attribute
FN:904,_RNvNtCsefbuI5cqeZT_15gungraun_macros9lib_bench14create_item_fn
FN:914,_RNvNtCsefbuI5cqeZT_15gungraun_macros9lib_bench6render
FN:85,_RNvXNtCsefbuI5cqeZT_15gungraun_macros9lib_benchNtB2_4ArgsNtNtCsaGWFmk4Cc5n_5quote9to_tokens8ToTokens9to_tokens
FN:421,_RNvXs1_NtCsefbuI5cqeZT_15gungraun_macros9lib_benchNtB5_9BenchModeINtNtCsgEmfK2I1SDS_4core7convert4FromNtNtB7_6common9BenchModeE4from
FN:490,_RNvXs3_NtCsefbuI5cqeZT_15gungraun_macros9lib_benchNtB5_6ConstsINtNtCsgEmfK2I1SDS_4core7convert4FromNtNtB7_6common6ConstsE4from
FN:786,_RNvXs6_NtCsefbuI5cqeZT_15gungraun_macros9lib_benchNtB5_16LibraryBenchmarkNtNtCsdgWaRgXFEK2_3syn5parse5Parse5parse
FN:446,_RNCNvMs2_NtCsefbuI5cqeZT_15gungraun_macros9lib_benchNtB7_6Callee19to_caller_signature0B9_
FN:471,_RNCNvMs2_NtCsefbuI5cqeZT_15gungraun_macros9lib_benchNtB7_6Callee19to_caller_signatures_0B9_
FN:557,_RNCNvMs5_NtCsefbuI5cqeZT_15gungraun_macros9lib_benchNtB7_16LibraryBenchmark15extract_benches0B9_
FN:582,_RNCNvMs5_NtCsefbuI5cqeZT_15gungraun_macros9lib_benchNtB7_16LibraryBenchmark15extract_benchess_0B9_
FN:221,_RNCNvMs_NtCsefbuI5cqeZT_15gungraun_macros9lib_benchNtB6_5Bench23parse_benches_attribute0B8_
FN:431,_RNvMs2_NtCsdVUoCTQwUTs_15gungraun_macros9lib_benchNtB5_6Callee10len_inputs
FN:446,_RNCNvMs2_NtCsdVUoCTQwUTs_15gungraun_macros9lib_benchNtB7_6Callee19to_caller_signature0B9_
FN:471,_RNCNvMs2_NtCsdVUoCTQwUTs_15gungraun_macros9lib_benchNtB7_6Callee19to_caller_signatures_0B9_
FN:557,_RNCNvMs5_NtCsdVUoCTQwUTs_15gungraun_macros9lib_benchNtB7_16LibraryBenchmark15extract_benches0B9_
FN:582,_RNCNvMs5_NtCsdVUoCTQwUTs_15gungraun_macros9lib_benchNtB7_16LibraryBenchmark15extract_benchess_0B9_
FN:220,_RNCNvMs_NtCsdVUoCTQwUTs_15gungraun_macros9lib_benchNtB6_5Bench23parse_benches_attribute0B8_
FN:396,_RNvMs0_NtCsdVUoCTQwUTs_15gungraun_macros9lib_benchNtB5_11BenchConfig14render_as_code
FN:410,_RNvMs0_NtCsdVUoCTQwUTs_15gungraun_macros9lib_benchNtB5_11BenchConfig16render_as_member
FN:440,_RNvMs2_NtCsdVUoCTQwUTs_15gungraun_macros9lib_benchNtB5_6Callee19to_caller_signature
FN:496,_RNvMs4_NtCsdVUoCTQwUTs_15gungraun_macros9lib_benchNtB5_4Iter10iter_ident
FN:500,_RNvMs4_NtCsdVUoCTQwUTs_15gungraun_macros9lib_benchNtB5_4Iter11index_ident
FN:508,_RNvMs4_NtCsdVUoCTQwUTs_15gungraun_macros9lib_benchNtB5_4Iter14render_as_code
FN:504,_RNvMs4_NtCsdVUoCTQwUTs_15gungraun_macros9lib_benchNtB5_4Iter4expr
FN:750,_RNvMs5_NtCsdVUoCTQwUTs_15gungraun_macros9lib_benchNtB5_16LibraryBenchmark14render_benches
FN:536,_RNvMs5_NtCsdVUoCTQwUTs_15gungraun_macros9lib_benchNtB5_16LibraryBenchmark15extract_benches
FN:625,_RNvMs5_NtCsdVUoCTQwUTs_15gungraun_macros9lib_benchNtB5_16LibraryBenchmark17render_standalone
FN:826,_RNvMs7_NtCsdVUoCTQwUTs_15gungraun_macros9lib_benchNtB5_22LibraryBenchmarkConfig14render_as_code
FN:822,_RNvMs7_NtCsdVUoCTQwUTs_15gungraun_macros9lib_benchNtB5_22LibraryBenchmarkConfig5ident
FN:858,_RNvMs8_NtCsdVUoCTQwUTs_15gungraun_macros9lib_benchNtB5_5Setup14render_as_code
FN:854,_RNvMs8_NtCsdVUoCTQwUTs_15gungraun_macros9lib_benchNtB5_5Setup4expr
FN:850,_RNvMs8_NtCsdVUoCTQwUTs_15gungraun_macros9lib_benchNtB5_5Setup7is_some
FN:868,_RNvMs9_NtCsdVUoCTQwUTs_15gungraun_macros9lib_benchNtB5_8Teardown14render_as_code
FN:234,_RNvMs_NtCsdVUoCTQwUTs_15gungraun_macros9lib_benchNtB4_5Bench14render_as_code
FN:351,_RNvMs_NtCsdVUoCTQwUTs_15gungraun_macros9lib_benchNtB4_5Bench16render_as_member
FN:91,_RNvMs_NtCsdVUoCTQwUTs_15gungraun_macros9lib_benchNtB4_5Bench21parse_bench_attribute
FN:154,_RNvMs_NtCsdVUoCTQwUTs_15gungraun_macros9lib_benchNtB4_5Bench23parse_benches_attribute
FN:904,_RNvNtCsdVUoCTQwUTs_15gungraun_macros9lib_bench14create_item_fn
FN:914,_RNvNtCsdVUoCTQwUTs_15gungraun_macros9lib_bench6render
FN:85,_RNvXNtCsdVUoCTQwUTs_15gungraun_macros9lib_benchNtB2_4ArgsNtNtCs78vtsH2YuCh_5quote9to_tokens8ToTokens9to_tokens
FN:421,_RNvXs1_NtCsdVUoCTQwUTs_15gungraun_macros9lib_benchNtB5_9BenchModeINtNtCs2va5m0jqTTM_4core7convert4FromNtNtB7_6common9BenchModeE4from
FN:490,_RNvXs3_NtCsdVUoCTQwUTs_15gungraun_macros9lib_benchNtB5_6ConstsINtNtCs2va5m0jqTTM_4core7convert4FromNtNtB7_6common6ConstsE4from
FN:786,_RNvXs6_NtCsdVUoCTQwUTs_15gungraun_macros9lib_benchNtB5_16LibraryBenchmarkNtNtCseSkPA7Sfx0z_3syn5parse5Parse5parse
FN:446,_RNCNvMs2_NtCs4VtoIICFLcm_15gungraun_macros9lib_benchNtB7_6Callee19to_caller_signature0B9_
FN:471,_RNCNvMs2_NtCs4VtoIICFLcm_15gungraun_macros9lib_benchNtB7_6Callee19to_caller_signatures_0B9_
FN:557,_RNCNvMs5_NtCs4VtoIICFLcm_15gungraun_macros9lib_benchNtB7_16LibraryBenchmark15extract_benches0B9_
FN:582,_RNCNvMs5_NtCs4VtoIICFLcm_15gungraun_macros9lib_benchNtB7_16LibraryBenchmark15extract_benchess_0B9_
FN:220,_RNCNvMs_NtCs4VtoIICFLcm_15gungraun_macros9lib_benchNtB6_5Bench23parse_benches_attribute0B8_
FN:396,_RNvMs0_NtCs4VtoIICFLcm_15gungraun_macros9lib_benchNtB5_11BenchConfig14render_as_code
FN:410,_RNvMs0_NtCs4VtoIICFLcm_15gungraun_macros9lib_benchNtB5_11BenchConfig16render_as_member
FN:440,_RNvMs2_NtCs4VtoIICFLcm_15gungraun_macros9lib_benchNtB5_6Callee19to_caller_signature
FN:496,_RNvMs4_NtCs4VtoIICFLcm_15gungraun_macros9lib_benchNtB5_4Iter10iter_ident
FN:500,_RNvMs4_NtCs4VtoIICFLcm_15gungraun_macros9lib_benchNtB5_4Iter11index_ident
FN:508,_RNvMs4_NtCs4VtoIICFLcm_15gungraun_macros9lib_benchNtB5_4Iter14render_as_code
FN:504,_RNvMs4_NtCs4VtoIICFLcm_15gungraun_macros9lib_benchNtB5_4Iter4expr
FN:750,_RNvMs5_NtCs4VtoIICFLcm_15gungraun_macros9lib_benchNtB5_16LibraryBenchmark14render_benches
FN:536,_RNvMs5_NtCs4VtoIICFLcm_15gungraun_macros9lib_benchNtB5_16LibraryBenchmark15extract_benches
FN:625,_RNvMs5_NtCs4VtoIICFLcm_15gungraun_macros9lib_benchNtB5_16LibraryBenchmark17render_standalone
FN:826,_RNvMs7_NtCs4VtoIICFLcm_15gungraun_macros9lib_benchNtB5_22LibraryBenchmarkConfig14render_as_code
FN:822,_RNvMs7_NtCs4VtoIICFLcm_15gungraun_macros9lib_benchNtB5_22LibraryBenchmarkConfig5ident
FN:858,_RNvMs8_NtCs4VtoIICFLcm_15gungraun_macros9lib_benchNtB5_5Setup14render_as_code
FN:854,_RNvMs8_NtCs4VtoIICFLcm_15gungraun_macros9lib_benchNtB5_5Setup4expr
FN:850,_RNvMs8_NtCs4VtoIICFLcm_15gungraun_macros9lib_benchNtB5_5Setup7is_some
FN:868,_RNvMs9_NtCs4VtoIICFLcm_15gungraun_macros9lib_benchNtB5_8Teardown14render_as_code
FN:234,_RNvMs_NtCs4VtoIICFLcm_15gungraun_macros9lib_benchNtB4_5Bench14render_as_code
FN:351,_RNvMs_NtCs4VtoIICFLcm_15gungraun_macros9lib_benchNtB4_5Bench16render_as_member
FN:91,_RNvMs_NtCs4VtoIICFLcm_15gungraun_macros9lib_benchNtB4_5Bench21parse_bench_attribute
FN:154,_RNvMs_NtCs4VtoIICFLcm_15gungraun_macros9lib_benchNtB4_5Bench23parse_benches_attribute
FN:904,_RNvNtCs4VtoIICFLcm_15gungraun_macros9lib_bench14create_item_fn
FN:914,_RNvNtCs4VtoIICFLcm_15gungraun_macros9lib_bench6render
FN:85,_RNvXNtCs4VtoIICFLcm_15gungraun_macros9lib_benchNtB2_4ArgsNtNtCs5zTqYJ1QKLS_5quote9to_tokens8ToTokens9to_tokens
FN:421,_RNvXs1_NtCs4VtoIICFLcm_15gungraun_macros9lib_benchNtB5_9BenchModeINtNtCs2va5m0jqTTM_4core7convert4FromNtNtB7_6common9BenchModeE4from
FN:490,_RNvXs3_NtCs4VtoIICFLcm_15gungraun_macros9lib_benchNtB5_6ConstsINtNtCs2va5m0jqTTM_4core7convert4FromNtNtB7_6common6ConstsE4from
FN:786,_RNvXs6_NtCs4VtoIICFLcm_15gungraun_macros9lib_benchNtB5_16LibraryBenchmarkNtNtCs7YDbPhiuUg2_3syn5parse5Parse5parse
FN:431,_RNvMs2_NtCs4VtoIICFLcm_15gungraun_macros9lib_benchNtB5_6Callee10len_inputs
FNDA:0,_RNCNvMs2_NtCs2b4E09oIUXa_15gungraun_macros9lib_benchNtB7_6Callee19to_caller_signature0B9_
FNDA:0,_RNCNvMs2_NtCs2b4E09oIUXa_15gungraun_macros9lib_benchNtB7_6Callee19to_caller_signatures_0B9_
FNDA:0,_RNCNvMs5_NtCs2b4E09oIUXa_15gungraun_macros9lib_benchNtB7_16LibraryBenchmark15extract_benches0B9_
FNDA:0,_RNCNvMs5_NtCs2b4E09oIUXa_15gungraun_macros9lib_benchNtB7_16LibraryBenchmark15extract_benchess_0B9_
FNDA:0,_RNCNvMs_NtCs2b4E09oIUXa_15gungraun_macros9lib_benchNtB6_5Bench23parse_benches_attribute0B8_
FNDA:0,_RNvMs0_NtCs2b4E09oIUXa_15gungraun_macros9lib_benchNtB5_11BenchConfig14render_as_code
FNDA:0,_RNvMs0_NtCs2b4E09oIUXa_15gungraun_macros9lib_benchNtB5_11BenchConfig16render_as_member
FNDA:0,_RNvMs2_NtCs2b4E09oIUXa_15gungraun_macros9lib_benchNtB5_6Callee10len_inputs
FNDA:0,_RNvMs2_NtCs2b4E09oIUXa_15gungraun_macros9lib_benchNtB5_6Callee19to_caller_signature
FNDA:0,_RNvMs4_NtCs2b4E09oIUXa_15gungraun_macros9lib_benchNtB5_4Iter10iter_ident
FNDA:0,_RNvMs4_NtCs2b4E09oIUXa_15gungraun_macros9lib_benchNtB5_4Iter11index_ident
FNDA:0,_RNvMs4_NtCs2b4E09oIUXa_15gungraun_macros9lib_benchNtB5_4Iter14render_as_code
FNDA:0,_RNvMs4_NtCs2b4E09oIUXa_15gungraun_macros9lib_benchNtB5_4Iter4expr
FNDA:0,_RNvMs5_NtCs2b4E09oIUXa_15gungraun_macros9lib_benchNtB5_16LibraryBenchmark14render_benches
FNDA:0,_RNvMs5_NtCs2b4E09oIUXa_15gungraun_macros9lib_benchNtB5_16LibraryBenchmark15extract_benches
FNDA:0,_RNvMs5_NtCs2b4E09oIUXa_15gungraun_macros9lib_benchNtB5_16LibraryBenchmark17render_standalone
FNDA:0,_RNvMs7_NtCs2b4E09oIUXa_15gungraun_macros9lib_benchNtB5_22LibraryBenchmarkConfig14render_as_code
FNDA:0,_RNvMs7_NtCs2b4E09oIUXa_15gungraun_macros9lib_benchNtB5_22LibraryBenchmarkConfig5ident
FNDA:0,_RNvMs8_NtCs2b4E09oIUXa_15gungraun_macros9lib_benchNtB5_5Setup14render_as_code
FNDA:0,_RNvMs8_NtCs2b4E09oIUXa_15gungraun_macros9lib_benchNtB5_5Setup4expr
FNDA:0,_RNvMs8_NtCs2b4E09oIUXa_15gungraun_macros9lib_benchNtB5_5Setup7is_some
FNDA:0,_RNvMs9_NtCs2b4E09oIUXa_15gungraun_macros9lib_benchNtB5_8Teardown14render_as_code
FNDA:0,_RNvMs_NtCs2b4E09oIUXa_15gungraun_macros9lib_benchNtB4_5Bench14render_as_code
FNDA:0,_RNvMs_NtCs2b4E09oIUXa_15gungraun_macros9lib_benchNtB4_5Bench16render_as_member
FNDA:0,_RNvMs_NtCs2b4E09oIUXa_15gungraun_macros9lib_benchNtB4_5Bench21parse_bench_attribute
FNDA:0,_RNvMs_NtCs2b4E09oIUXa_15gungraun_macros9lib_benchNtB4_5Bench23parse_benches_attribute
FNDA:0,_RNvNtCs2b4E09oIUXa_15gungraun_macros9lib_bench14create_item_fn
FNDA:0,_RNvNtCs2b4E09oIUXa_15gungraun_macros9lib_bench6render
FNDA:0,_RNvXNtCs2b4E09oIUXa_15gungraun_macros9lib_benchNtB2_4ArgsNtNtCsaGWFmk4Cc5n_5quote9to_tokens8ToTokens9to_tokens
FNDA:0,_RNvXs1_NtCs2b4E09oIUXa_15gungraun_macros9lib_benchNtB5_9BenchModeINtNtCsgEmfK2I1SDS_4core7convert4FromNtNtB7_6common9BenchModeE4from
FNDA:0,_RNvXs3_NtCs2b4E09oIUXa_15gungraun_macros9lib_benchNtB5_6ConstsINtNtCsgEmfK2I1SDS_4core7convert4FromNtNtB7_6common6ConstsE4from
FNDA:0,_RNvXs6_NtCs2b4E09oIUXa_15gungraun_macros9lib_benchNtB5_16LibraryBenchmarkNtNtCs18ZQ9XUxf5Z_3syn5parse5Parse5parse
FNDA:0,_RNvMs2_NtCsefbuI5cqeZT_15gungraun_macros9lib_benchNtB5_6Callee10len_inputs
FNDA:0,_RNvMs0_NtCsefbuI5cqeZT_15gungraun_macros9lib_benchNtB5_11BenchConfig14render_as_code
FNDA:0,_RNvMs0_NtCsefbuI5cqeZT_15gungraun_macros9lib_benchNtB5_11BenchConfig16render_as_member
FNDA:0,_RNvMs2_NtCsefbuI5cqeZT_15gungraun_macros9lib_benchNtB5_6Callee19to_caller_signature
FNDA:0,_RNvMs4_NtCsefbuI5cqeZT_15gungraun_macros9lib_benchNtB5_4Iter10iter_ident
FNDA:0,_RNvMs4_NtCsefbuI5cqeZT_15gungraun_macros9lib_benchNtB5_4Iter11index_ident
FNDA:0,_RNvMs4_NtCsefbuI5cqeZT_15gungraun_macros9lib_benchNtB5_4Iter14render_as_code
FNDA:0,_RNvMs4_NtCsefbuI5cqeZT_15gungraun_macros9lib_benchNtB5_4Iter4expr
FNDA:0,_RNvMs5_NtCsefbuI5cqeZT_15gungraun_macros9lib_benchNtB5_16LibraryBenchmark14render_benches
FNDA:0,_RNvMs5_NtCsefbuI5cqeZT_15gungraun_macros9lib_benchNtB5_16LibraryBenchmark15extract_benches
FNDA:0,_RNvMs5_NtCsefbuI5cqeZT_15gungraun_macros9lib_benchNtB5_16LibraryBenchmark17render_standalone
FNDA:0,_RNvMs7_NtCsefbuI5cqeZT_15gungraun_macros9lib_benchNtB5_22LibraryBenchmarkConfig14render_as_code
FNDA:0,_RNvMs7_NtCsefbuI5cqeZT_15gungraun_macros9lib_benchNtB5_22LibraryBenchmarkConfig5ident
FNDA:0,_RNvMs8_NtCsefbuI5cqeZT_15gungraun_macros9lib_benchNtB5_5Setup14render_as_code
FNDA:0,_RNvMs8_NtCsefbuI5cqeZT_15gungraun_macros9lib_benchNtB5_5Setup4expr
FNDA:0,_RNvMs8_NtCsefbuI5cqeZT_15gungraun_macros9lib_benchNtB5_5Setup7is_some
FNDA:0,_RNvMs9_NtCsefbuI5cqeZT_15gungraun_macros9lib_benchNtB5_8Teardown14render_as_code
FNDA:0,_RNvMs_NtCsefbuI5cqeZT_15gungraun_macros9lib_benchNtB4_5Bench14render_as_code
FNDA:0,_RNvMs_NtCsefbuI5cqeZT_15gungraun_macros9lib_benchNtB4_5Bench16render_as_member
FNDA:0,_RNvMs_NtCsefbuI5cqeZT_15gungraun_macros9lib_benchNtB4_5Bench21parse_bench_attribute
FNDA:0,_RNvMs_NtCsefbuI5cqeZT_15gungraun_macros9lib_benchNtB4_5Bench23parse_benches_attribute
FNDA:0,_RNvNtCsefbuI5cqeZT_15gungraun_macros9lib_bench14create_item_fn
FNDA:0,_RNvNtCsefbuI5cqeZT_15gungraun_macros9lib_bench6render
FNDA:0,_RNvXNtCsefbuI5cqeZT_15gungraun_macros9lib_benchNtB2_4ArgsNtNtCsaGWFmk4Cc5n_5quote9to_tokens8ToTokens9to_tokens
FNDA:0,_RNvXs1_NtCsefbuI5cqeZT_15gungraun_macros9lib_benchNtB5_9BenchModeINtNtCsgEmfK2I1SDS_4core7convert4FromNtNtB7_6common9BenchModeE4from
FNDA:0,_RNvXs3_NtCsefbuI5cqeZT_15gungraun_macros9lib_benchNtB5_6ConstsINtNtCsgEmfK2I1SDS_4core7convert4FromNtNtB7_6common6ConstsE4from
FNDA:0,_RNvXs6_NtCsefbuI5cqeZT_15gungraun_macros9lib_benchNtB5_16LibraryBenchmarkNtNtCsdgWaRgXFEK2_3syn5parse5Parse5parse
FNDA:0,_RNCNvMs2_NtCsefbuI5cqeZT_15gungraun_macros9lib_benchNtB7_6Callee19to_caller_signature0B9_
FNDA:0,_RNCNvMs2_NtCsefbuI5cqeZT_15gungraun_macros9lib_benchNtB7_6Callee19to_caller_signatures_0B9_
FNDA:0,_RNCNvMs5_NtCsefbuI5cqeZT_15gungraun_macros9lib_benchNtB7_16LibraryBenchmark15extract_benches0B9_
FNDA:0,_RNCNvMs5_NtCsefbuI5cqeZT_15gungraun_macros9lib_benchNtB7_16LibraryBenchmark15extract_benchess_0B9_
FNDA:0,_RNCNvMs_NtCsefbuI5cqeZT_15gungraun_macros9lib_benchNtB6_5Bench23parse_benches_attribute0B8_
FNDA:0,_RNvMs2_NtCsdVUoCTQwUTs_15gungraun_macros9lib_benchNtB5_6Callee10len_inputs
FNDA:0,_RNCNvMs2_NtCsdVUoCTQwUTs_15gungraun_macros9lib_benchNtB7_6Callee19to_caller_signature0B9_
FNDA:0,_RNCNvMs2_NtCsdVUoCTQwUTs_15gungraun_macros9lib_benchNtB7_6Callee19to_caller_signatures_0B9_
FNDA:0,_RNCNvMs5_NtCsdVUoCTQwUTs_15gungraun_macros9lib_benchNtB7_16LibraryBenchmark15extract_benches0B9_
FNDA:0,_RNCNvMs5_NtCsdVUoCTQwUTs_15gungraun_macros9lib_benchNtB7_16LibraryBenchmark15extract_benchess_0B9_
FNDA:0,_RNCNvMs_NtCsdVUoCTQwUTs_15gungraun_macros9lib_benchNtB6_5Bench23parse_benches_attribute0B8_
FNDA:0,_RNvMs0_NtCsdVUoCTQwUTs_15gungraun_macros9lib_benchNtB5_11BenchConfig14render_as_code
FNDA:0,_RNvMs0_NtCsdVUoCTQwUTs_15gungraun_macros9lib_benchNtB5_11BenchConfig16render_as_member
FNDA:0,_RNvMs2_NtCsdVUoCTQwUTs_15gungraun_macros9lib_benchNtB5_6Callee19to_caller_signature
FNDA:0,_RNvMs4_NtCsdVUoCTQwUTs_15gungraun_macros9lib_benchNtB5_4Iter10iter_ident
FNDA:0,_RNvMs4_NtCsdVUoCTQwUTs_15gungraun_macros9lib_benchNtB5_4Iter11index_ident
FNDA:0,_RNvMs4_NtCsdVUoCTQwUTs_15gungraun_macros9lib_benchNtB5_4Iter14render_as_code
FNDA:0,_RNvMs4_NtCsdVUoCTQwUTs_15gungraun_macros9lib_benchNtB5_4Iter4expr
FNDA:0,_RNvMs5_NtCsdVUoCTQwUTs_15gungraun_macros9lib_benchNtB5_16LibraryBenchmark14render_benches
FNDA:0,_RNvMs5_NtCsdVUoCTQwUTs_15gungraun_macros9lib_benchNtB5_16LibraryBenchmark15extract_benches
FNDA:0,_RNvMs5_NtCsdVUoCTQwUTs_15gungraun_macros9lib_benchNtB5_16LibraryBenchmark17render_standalone
FNDA:0,_RNvMs7_NtCsdVUoCTQwUTs_15gungraun_macros9lib_benchNtB5_22LibraryBenchmarkConfig14render_as_code
FNDA:0,_RNvMs7_NtCsdVUoCTQwUTs_15gungraun_macros9lib_benchNtB5_22LibraryBenchmarkConfig5ident
FNDA:0,_RNvMs8_NtCsdVUoCTQwUTs_15gungraun_macros9lib_benchNtB5_5Setup14render_as_code
FNDA:0,_RNvMs8_NtCsdVUoCTQwUTs_15gungraun_macros9lib_benchNtB5_5Setup4expr
FNDA:0,_RNvMs8_NtCsdVUoCTQwUTs_15gungraun_macros9lib_benchNtB5_5Setup7is_some
FNDA:0,_RNvMs9_NtCsdVUoCTQwUTs_15gungraun_macros9lib_benchNtB5_8Teardown14render_as_code
FNDA:0,_RNvMs_NtCsdVUoCTQwUTs_15gungraun_macros9lib_benchNtB4_5Bench14render_as_code
FNDA:0,_RNvMs_NtCsdVUoCTQwUTs_15gungraun_macros9lib_benchNtB4_5Bench16render_as_member
FNDA:0,_RNvMs_NtCsdVUoCTQwUTs_15gungraun_macros9lib_benchNtB4_5Bench21parse_bench_attribute
FNDA:0,_RNvMs_NtCsdVUoCTQwUTs_15gungraun_macros9lib_benchNtB4_5Bench23parse_benches_attribute
FNDA:0,_RNvNtCsdVUoCTQwUTs_15gungraun_macros9lib_bench14create_item_fn
FNDA:0,_RNvNtCsdVUoCTQwUTs_15gungraun_macros9lib_bench6render
FNDA:0,_RNvXNtCsdVUoCTQwUTs_15gungraun_macros9lib_benchNtB2_4ArgsNtNtCs78vtsH2YuCh_5quote9to_tokens8ToTokens9to_tokens
FNDA:0,_RNvXs1_NtCsdVUoCTQwUTs_15gungraun_macros9lib_benchNtB5_9BenchModeINtNtCs2va5m0jqTTM_4core7convert4FromNtNtB7_6common9BenchModeE4from
FNDA:0,_RNvXs3_NtCsdVUoCTQwUTs_15gungraun_macros9lib_benchNtB5_6ConstsINtNtCs2va5m0jqTTM_4core7convert4FromNtNtB7_6common6ConstsE4from
FNDA:0,_RNvXs6_NtCsdVUoCTQwUTs_15gungraun_macros9lib_benchNtB5_16LibraryBenchmarkNtNtCseSkPA7Sfx0z_3syn5parse5Parse5parse
FNDA:296,_RNCNvMs2_NtCs4VtoIICFLcm_15gungraun_macros9lib_benchNtB7_6Callee19to_caller_signature0B9_
FNDA:296,_RNCNvMs2_NtCs4VtoIICFLcm_15gungraun_macros9lib_benchNtB7_6Callee19to_caller_signatures_0B9_
FNDA:113,_RNCNvMs5_NtCs4VtoIICFLcm_15gungraun_macros9lib_benchNtB7_16LibraryBenchmark15extract_benches0B9_
FNDA:194,_RNCNvMs5_NtCs4VtoIICFLcm_15gungraun_macros9lib_benchNtB7_16LibraryBenchmark15extract_benchess_0B9_
FNDA:237,_RNCNvMs_NtCs4VtoIICFLcm_15gungraun_macros9lib_benchNtB6_5Bench23parse_benches_attribute0B8_
FNDA:341,_RNvMs0_NtCs4VtoIICFLcm_15gungraun_macros9lib_benchNtB5_11BenchConfig14render_as_code
FNDA:341,_RNvMs0_NtCs4VtoIICFLcm_15gungraun_macros9lib_benchNtB5_11BenchConfig16render_as_member
FNDA:374,_RNvMs2_NtCs4VtoIICFLcm_15gungraun_macros9lib_benchNtB5_6Callee19to_caller_signature
FNDA:96,_RNvMs4_NtCs4VtoIICFLcm_15gungraun_macros9lib_benchNtB5_4Iter10iter_ident
FNDA:96,_RNvMs4_NtCs4VtoIICFLcm_15gungraun_macros9lib_benchNtB5_4Iter11index_ident
FNDA:48,_RNvMs4_NtCs4VtoIICFLcm_15gungraun_macros9lib_benchNtB5_4Iter14render_as_code
FNDA:48,_RNvMs4_NtCs4VtoIICFLcm_15gungraun_macros9lib_benchNtB5_4Iter4expr
FNDA:229,_RNvMs5_NtCs4VtoIICFLcm_15gungraun_macros9lib_benchNtB5_16LibraryBenchmark14render_benches
FNDA:293,_RNvMs5_NtCs4VtoIICFLcm_15gungraun_macros9lib_benchNtB5_16LibraryBenchmark15extract_benches
FNDA:33,_RNvMs5_NtCs4VtoIICFLcm_15gungraun_macros9lib_benchNtB5_16LibraryBenchmark17render_standalone
FNDA:260,_RNvMs7_NtCs4VtoIICFLcm_15gungraun_macros9lib_benchNtB5_22LibraryBenchmarkConfig14render_as_code
FNDA:260,_RNvMs7_NtCs4VtoIICFLcm_15gungraun_macros9lib_benchNtB5_22LibraryBenchmarkConfig5ident
FNDA:328,_RNvMs8_NtCs4VtoIICFLcm_15gungraun_macros9lib_benchNtB5_5Setup14render_as_code
FNDA:57,_RNvMs8_NtCs4VtoIICFLcm_15gungraun_macros9lib_benchNtB5_5Setup4expr
FNDA:616,_RNvMs8_NtCs4VtoIICFLcm_15gungraun_macros9lib_benchNtB5_5Setup7is_some
FNDA:374,_RNvMs9_NtCs4VtoIICFLcm_15gungraun_macros9lib_benchNtB5_8Teardown14render_as_code
FNDA:343,_RNvMs_NtCs4VtoIICFLcm_15gungraun_macros9lib_benchNtB4_5Bench14render_as_code
FNDA:341,_RNvMs_NtCs4VtoIICFLcm_15gungraun_macros9lib_benchNtB4_5Bench16render_as_member
FNDA:113,_RNvMs_NtCs4VtoIICFLcm_15gungraun_macros9lib_benchNtB4_5Bench21parse_bench_attribute
FNDA:194,_RNvMs_NtCs4VtoIICFLcm_15gungraun_macros9lib_benchNtB4_5Bench23parse_benches_attribute
FNDA:262,_RNvNtCs4VtoIICFLcm_15gungraun_macros9lib_bench14create_item_fn
FNDA:297,_RNvNtCs4VtoIICFLcm_15gungraun_macros9lib_bench6render
FNDA:614,_RNvXNtCs4VtoIICFLcm_15gungraun_macros9lib_benchNtB2_4ArgsNtNtCs5zTqYJ1QKLS_5quote9to_tokens8ToTokens9to_tokens
FNDA:237,_RNvXs1_NtCs4VtoIICFLcm_15gungraun_macros9lib_benchNtB5_9BenchModeINtNtCs2va5m0jqTTM_4core7convert4FromNtNtB7_6common9BenchModeE4from
FNDA:92,_RNvXs3_NtCs4VtoIICFLcm_15gungraun_macros9lib_benchNtB5_6ConstsINtNtCs2va5m0jqTTM_4core7convert4FromNtNtB7_6common6ConstsE4from
FNDA:297,_RNvXs6_NtCs4VtoIICFLcm_15gungraun_macros9lib_benchNtB5_16LibraryBenchmarkNtNtCs7YDbPhiuUg2_3syn5parse5Parse5parse
FNDA:0,_RNvMs2_NtCs4VtoIICFLcm_15gungraun_macros9lib_benchNtB5_6Callee10len_inputs
FNF:35
FNH:31
DA:85,0
DA:86,614
DA:87,614
DA:91,0
DA:92,0
DA:93,0
DA:94,0
DA:95,0
DA:96,0
DA:97,0
DA:98,113
DA:99,113
DA:100,113
DA:102,112
DA:104,0
DA:105,112
DA:106,112
DA:107,112
DA:108,112
DA:109,112
DA:110,112
DA:111,75
DA:112,180
DA:113,0
DA:114,1
DA:115,0
DA:116,0
DA:117,9
DA:118,9
DA:119,9
DA:120,3
DA:121,3
DA:122,2
DA:123,2
DA:124,0
DA:125,2
DA:126,2
DA:127,2
DA:133,1
DA:137,0
DA:138,106
DA:139,106
DA:140,106
DA:141,106
DA:142,106
DA:143,106
DA:144,0
DA:145,0
DA:146,0
DA:147,0
DA:148,0
DA:149,0
DA:150,0
DA:151,0
DA:152,109
DA:154,0
DA:155,0
DA:156,0
DA:157,0
DA:158,0
DA:159,0
DA:160,0
DA:161,0
DA:162,194
DA:163,194
DA:164,194
DA:165,194
DA:167,0
DA:168,194
DA:169,194
DA:170,194
DA:171,194
DA:172,194
DA:173,194
DA:174,194
DA:175,194
DA:176,168
DA:177,429
DA:178,0
DA:179,2
DA:180,0
DA:181,1
DA:182,4
DA:183,4
DA:184,30
DA:185,30
DA:186,30
DA:187,13
DA:188,13
DA:189,0
DA:190,54
DA:191,54
DA:192,54
DA:193,0
DA:194,1
DA:195,1
DA:196,1
DA:202,25
DA:206,0
DA:207,184
DA:208,184
DA:209,184
DA:210,184
DA:211,184
DA:212,184
DA:213,184
DA:214,184
DA:215,184
DA:216,184
DA:217,184
DA:218,184
DA:219,184
DA:220,237
DA:221,237
DA:222,237
DA:223,237
DA:224,237
DA:225,237
DA:226,237
DA:227,237
DA:228,237
DA:229,184
DA:230,184
DA:231,184
DA:232,188
DA:234,0
DA:235,343
DA:236,343
DA:237,343
DA:238,343
DA:240,343
DA:243,0
DA:244,48
DA:245,48
DA:246,48
DA:247,48
DA:248,48
DA:249,48
DA:250,48
DA:251,48
DA:252,48
DA:253,0
DA:254,48
DA:255,48
DA:256,48
DA:257,48
DA:258,48
DA:259,48
DA:260,48
DA:261,48
DA:263,0
DA:264,48
DA:265,48
DA:266,48
DA:267,48
DA:268,48
DA:269,48
DA:270,48
DA:271,48
DA:272,48
DA:273,48
DA:274,48
DA:275,48
DA:276,48
DA:277,48
DA:278,48
DA:279,48
DA:280,48
DA:281,48
DA:282,48
DA:283,48
DA:284,48
DA:285,48
DA:286,48
DA:287,48
DA:288,48
DA:289,48
DA:290,48
DA:291,48
DA:292,48
DA:293,48
DA:294,48
DA:296,0
DA:297,295
DA:298,295
DA:299,295
DA:300,295
DA:301,295
DA:302,0
DA:305,295
DA:306,0
DA:307,33
DA:308,33
DA:309,33
DA:310,33
DA:311,33
DA:312,33
DA:314,0
DA:315,262
DA:316,262
DA:317,262
DA:320,0
DA:321,293
DA:322,295
DA:323,295
DA:324,295
DA:325,295
DA:327,0
DA:328,293
DA:329,293
DA:330,293
DA:331,293
DA:332,293
DA:333,293
DA:334,293
DA:335,293
DA:336,293
DA:337,293
DA:338,293
DA:339,293
DA:340,293
DA:344,0
DA:345,341
DA:346,341
DA:347,341
DA:348,341
DA:349,341
DA:351,0
DA:352,341
DA:353,341
DA:354,341
DA:355,341
DA:357,341
DA:358,0
DA:359,0
DA:360,0
DA:361,0
DA:362,0
DA:363,0
DA:364,0
DA:365,0
DA:367,0
DA:369,341
DA:370,0
DA:372,0
DA:373,273
DA:376,341
DA:377,0
DA:378,128
DA:380,0
DA:383,0
DA:384,341
DA:385,341
DA:386,341
DA:387,341
DA:388,341
DA:389,341
DA:390,341
DA:391,341
DA:392,341
DA:396,0
DA:397,341
DA:398,0
DA:399,13
DA:400,13
DA:401,13
DA:402,13
DA:403,13
DA:404,13
DA:406,0
DA:408,341
DA:410,0
DA:411,341
DA:412,0
DA:413,13
DA:415,0
DA:417,341
DA:421,0
DA:422,237
DA:423,0
DA:424,0
DA:426,237
DA:431,0
DA:432,0
DA:433,0
DA:440,0
DA:441,374
DA:442,0
DA:443,0
DA:444,374
DA:445,374
DA:446,374
DA:448,0
DA:449,0
DA:450,0
DA:451,0
DA:453,0
DA:454,296
DA:455,0
DA:456,0
DA:457,0
DA:458,0
DA:459,0
DA:460,0
DA:461,0
DA:462,0
DA:463,0
DA:464,0
DA:465,0
DA:468,374
DA:469,374
DA:470,374
DA:471,374
DA:472,296
DA:473,296
DA:474,296
DA:475,374
DA:476,374
DA:477,374
DA:478,374
DA:479,0
DA:480,0
DA:481,0
DA:482,0
DA:483,0
DA:484,0
DA:485,0
DA:486,374
DA:490,0
DA:491,92
DA:492,92
DA:496,0
DA:497,96
DA:498,96
DA:500,0
DA:501,96
DA:502,96
DA:504,0
DA:505,48
DA:506,48
DA:508,0
DA:509,48
DA:510,48
DA:511,48
DA:512,48
DA:513,48
DA:514,48
DA:515,0
DA:516,12
DA:517,12
DA:518,12
DA:519,12
DA:520,12
DA:521,12
DA:523,0
DA:524,36
DA:525,36
DA:526,36
DA:527,36
DA:528,36
DA:531,0
DA:532,48
DA:536,0
DA:537,0
DA:538,0
DA:539,0
DA:540,0
DA:541,293
DA:542,293
DA:544,573
DA:545,0
DA:546,311
DA:547,311
DA:548,114
DA:550,0
DA:551,0
DA:552,0
DA:553,0
DA:554,0
DA:555,0
DA:556,114
DA:557,114
DA:558,0
DA:559,1
DA:560,1
DA:561,1
DA:562,1
DA:564,0
DA:565,113
DA:566,113
DA:567,113
DA:568,113
DA:569,113
DA:570,113
DA:572,197
DA:573,194
DA:575,0
DA:576,0
DA:577,0
DA:578,0
DA:579,0
DA:580,0
DA:581,194
DA:582,194
DA:583,0
DA:584,0
DA:585,0
DA:586,0
DA:587,0
DA:589,0
DA:590,194
DA:591,194
DA:592,194
DA:593,194
DA:594,194
DA:595,194
DA:596,194
DA:598,0
DA:599,3
DA:600,3
DA:601,3
DA:602,3
DA:603,3
DA:604,0
DA:605,3
DA:609,0
DA:614,262
DA:615,289
DA:625,0
DA:626,33
DA:627,33
DA:628,33
DA:629,33
DA:630,33
DA:631,33
DA:632,33
DA:633,33
DA:634,33
DA:635,33
DA:636,33
DA:637,33
DA:638,33
DA:639,0
DA:640,9
DA:641,9
DA:642,9
DA:643,9
DA:644,9
DA:645,9
DA:647,0
DA:648,24
DA:649,24
DA:650,24
DA:653,0
DA:654,33
DA:655,33
DA:656,33
DA:657,33
DA:658,33
DA:660,0
DA:661,33
DA:662,33
DA:663,33
DA:664,33
DA:665,33
DA:666,33
DA:667,33
DA:668,33
DA:669,33
DA:670,33
DA:671,33
DA:672,33
DA:673,33
DA:674,33
DA:675,33
DA:676,33
DA:677,33
DA:678,33
DA:679,33
DA:680,33
DA:681,33
DA:682,33
DA:683,33
DA:684,33
DA:685,33
DA:686,33
DA:687,33
DA:688,33
DA:689,33
DA:690,33
DA:691,33
DA:692,33
DA:693,33
DA:694,33
DA:695,33
DA:696,33
DA:697,33
DA:698,33
DA:699,33
DA:700,33
DA:701,33
DA:702,33
DA:750,0
DA:751,229
DA:752,229
DA:753,229
DA:754,229
DA:755,229
DA:756,572
DA:757,343
DA:758,343
DA:759,343
DA:761,0
DA:762,229
DA:763,229
DA:764,229
DA:765,229
DA:766,229
DA:767,229
DA:768,229
DA:769,229
DA:770,229
DA:771,229
DA:772,229
DA:773,229
DA:774,229
DA:775,229
DA:776,229
DA:777,229
DA:778,229
DA:779,229
DA:780,229
DA:781,229
DA:782,227
DA:786,0
DA:787,297
DA:788,271
DA:790,0
DA:791,26
DA:792,26
DA:794,23
DA:795,53
DA:796,9
DA:797,9
DA:798,11
DA:799,11
DA:800,11
DA:801,10
DA:802,10
DA:803,0
DA:804,1
DA:805,1
DA:810,0
DA:811,0
DA:812,0
DA:813,0
DA:814,0
DA:815,0
DA:816,22
DA:818,296
DA:822,0
DA:823,260
DA:824,260
DA:826,0
DA:827,260
DA:828,260
DA:829,0
DA:830,9
DA:831,9
DA:832,9
DA:833,9
DA:834,9
DA:835,9
DA:836,9
DA:838,0
DA:839,251
DA:840,251
DA:841,251
DA:842,251
DA:843,251
DA:844,251
DA:846,260
DA:850,0
DA:851,616
DA:852,616
DA:854,0
DA:855,57
DA:856,57
DA:858,0
DA:859,328
DA:860,0
DA:862,0
DA:864,328
DA:868,0
DA:869,374
DA:870,0
DA:871,23
DA:872,23
DA:873,23
DA:874,23
DA:875,23
DA:877,351
DA:879,374
DA:883,0
DA:884,0
DA:885,0
DA:886,0
DA:895,0
DA:896,0
DA:897,0
DA:898,0
DA:899,0
DA:900,0
DA:901,0
DA:904,0
DA:905,262
DA:906,262
DA:907,0
DA:908,0
DA:909,0
DA:910,0
DA:911,0
DA:912,262
DA:914,0
DA:915,294
DA:916,294
DA:918,0
DA:919,294
DA:920,294
DA:921,0
DA:922,33
DA:924,257
DA:926,297
BRF:0
BRH:0
LF:666
LH:601
end_of_record
SF:/fast/lenny/workspace/programming/gungraun/gungraun/gungraun-runner/src/api.rs
FN:2523,_RINvMsz_NtCs5iQXrcGAeg9_15gungraun_runner3apiNtB6_4Tool9with_argsppEB8_
FN:1720,_RNvXININtCs5iQXrcGAeg9_15gungraun_runner3apis9_0pENtB5_10EntryPointINtNtCsgEmfK2I1SDS_4core7convert4FrompE4fromB7_
FN:1947,_RNvXsg_NtCs5iQXrcGAeg9_15gungraun_runner3apiINtNtCs2Htibuv8RQm_8indexmap3set8IndexSetNtB5_16CachegrindMetricEINtNtCsgEmfK2I1SDS_4core7convert4FromNtB5_17CachegrindMetricsE4from
FN:2015,_RNvXsh_NtCs5iQXrcGAeg9_15gungraun_runner3apiINtNtCs2Htibuv8RQm_8indexmap3set8IndexSetNtB5_10DhatMetricEINtNtCsgEmfK2I1SDS_4core7convert4FromNtB5_11DhatMetricsE4from
FN:2037,_RNvXsi_NtCs5iQXrcGAeg9_15gungraun_runner3apiINtNtCs2Htibuv8RQm_8indexmap3set8IndexSetNtB5_9EventKindEINtNtCsgEmfK2I1SDS_4core7convert4FromNtB5_16CallgrindMetricsE4from
FN:1399,_RINvMNtCs5iQXrcGAeg9_15gungraun_runner3apiNtB3_21BinaryBenchmarkConfig15update_from_allAINtNtCsgEmfK2I1SDS_4core6option6OptionRBE_Ej1_EB5_
FN:1399,_RINvMNtCs5iQXrcGAeg9_15gungraun_runner3apiNtB3_21BinaryBenchmarkConfig15update_from_allAINtNtCsgEmfK2I1SDS_4core6option6OptionRBE_Ej3_EB5_
FN:2568,_RINvMsA_NtCs5iQXrcGAeg9_15gungraun_runner3apiNtB6_5Tools10update_allINtNtNtNtCsgEmfK2I1SDS_4core4iter8adapters6cloned6ClonedINtNtNtB1d_5slice4iter4IterNtB6_4ToolEEEB8_
FN:2118,_RINvMsj_NtCs5iQXrcGAeg9_15gungraun_runner3apiNtB6_22LibraryBenchmarkConfig15update_from_allAINtNtCsgEmfK2I1SDS_4core6option6OptionRBH_Ej1_EB8_
FN:2118,_RINvMsj_NtCs5iQXrcGAeg9_15gungraun_runner3apiNtB6_22LibraryBenchmarkConfig15update_from_allAINtNtCsgEmfK2I1SDS_4core6option6OptionRBH_Ej2_EB8_
FN:2199,_RINvMsn_NtCs5iQXrcGAeg9_15gungraun_runner3apiNtB6_11RawToolArgs18extend_ignore_flagNtNtCslNYArtu3iFV_5alloc6string6StringINtNtNtNtCsgEmfK2I1SDS_4core4iter8adapters3map3MapINtNtNtB1n_3vec9into_iter8IntoIterB1j_ENvYB1j_INtNtB24_7convert4IntoB1j_E4intoEEB8_
FN:2199,_RINvMsn_NtCs5iQXrcGAeg9_15gungraun_runner3apiNtB6_11RawToolArgs18extend_ignore_flagNtNtCslNYArtu3iFV_5alloc6string6StringINtNtNtNtCsgEmfK2I1SDS_4core4iter8adapters3map3MapINtNtNtB24_5array4iter8IntoIterReKj1_ENvYB3e_INtNtB24_7convert4IntoB1j_E4intoEEB8_
FN:2199,_RINvMsn_NtCs5iQXrcGAeg9_15gungraun_runner3apiNtB6_11RawToolArgs18extend_ignore_flagRNtNtCslNYArtu3iFV_5alloc6string6StringINtNtNtCsgEmfK2I1SDS_4core5slice4iter4IterB1k_EEB8_
FN:2199,_RINvMsn_NtCs5iQXrcGAeg9_15gungraun_runner3apiNtB6_11RawToolArgs18extend_ignore_flagRNtNtCslNYArtu3iFV_5alloc6string6StringRAB1k_j1_EB8_
FN:2190,_RINvMsn_NtCs5iQXrcGAeg9_15gungraun_runner3apiNtB6_11RawToolArgs3newNtNtCslNYArtu3iFV_5alloc6string6StringINtNtB17_3vec3VecB13_EEB8_
FN:2190,_RINvMsn_NtCs5iQXrcGAeg9_15gungraun_runner3apiNtB6_11RawToolArgs3newReAB13_j1_EB8_
FN:2661,_RINvNtCs5iQXrcGAeg9_15gungraun_runner3api13update_optionINtNtCslNYArtu3iFV_5alloc3vec3VecNtNtBX_6string6StringEEB4_
FN:2661,_RINvNtCs5iQXrcGAeg9_15gungraun_runner3api13update_optionNtB2_10EntryPointEB4_
FN:2661,_RINvNtCs5iQXrcGAeg9_15gungraun_runner3api13update_optionNtB2_12OutputFormatEB4_
FN:2661,_RINvNtCs5iQXrcGAeg9_15gungraun_runner3api13update_optionNtB2_12ValgrindToolEB4_
FN:2661,_RINvNtCs5iQXrcGAeg9_15gungraun_runner3api13update_optionNtB2_16ToolOutputFormatEB4_
FN:2661,_RINvNtCs5iQXrcGAeg9_15gungraun_runner3api13update_optionNtB2_20ToolFlamegraphConfigEB4_
FN:2661,_RINvNtCs5iQXrcGAeg9_15gungraun_runner3api13update_optionNtB2_20ToolRegressionConfigEB4_
FN:2661,_RINvNtCs5iQXrcGAeg9_15gungraun_runner3api13update_optionNtB2_7SandboxEB4_
FN:2661,_RINvNtCs5iQXrcGAeg9_15gungraun_runner3api13update_optionNtB2_8ExitWithEB4_
FN:2661,_RINvNtCs5iQXrcGAeg9_15gungraun_runner3api13update_optionNtNtCsjrHSEGnQ3l9_3std4path7PathBufEB4_
FN:2661,_RINvNtCs5iQXrcGAeg9_15gungraun_runner3api13update_optionbEB4_
FN:2242,_RINvXso_NtCs5iQXrcGAeg9_15gungraun_runner3apiNtB6_11RawToolArgsINtNtNtNtCsgEmfK2I1SDS_4core4iter6traits7collect12FromIteratorNtNtCslNYArtu3iFV_5alloc6string6StringE9from_iterINtNtNtB16_8adapters3map3MapINtNtNtB18_5array4iter8IntoIterReKj1_ENvYB3J_INtNtB18_7convert4IntoB1Z_E4intoEEB8_
FN:2242,_RINvXso_NtCs5iQXrcGAeg9_15gungraun_runner3apiNtB6_11RawToolArgsINtNtNtNtCsgEmfK2I1SDS_4core4iter6traits7collect12FromIteratorNtNtCslNYArtu3iFV_5alloc6string6StringE9from_iterINtNtNtB16_8adapters3map3MapINtNtNtB23_3vec9into_iter8IntoIterB1Z_ENvYB1Z_INtNtB18_7convert4IntoB1Z_E4intoEEB8_
FN:2206,_RNCINvMsn_NtCs5iQXrcGAeg9_15gungraun_runner3apiNtB8_11RawToolArgs18extend_ignore_flagNtNtCslNYArtu3iFV_5alloc6string6StringINtNtNtNtCsgEmfK2I1SDS_4core4iter8adapters3map3MapINtNtNtB1p_3vec9into_iter8IntoIterB1l_ENvYB1l_INtNtB26_7convert4IntoB1l_E4intoEE0Ba_
FN:2207,_RNCINvMsn_NtCs5iQXrcGAeg9_15gungraun_runner3apiNtB8_11RawToolArgs18extend_ignore_flagNtNtCslNYArtu3iFV_5alloc6string6StringINtNtNtNtCsgEmfK2I1SDS_4core4iter8adapters3map3MapINtNtNtB1p_3vec9into_iter8IntoIterB1l_ENvYB1l_INtNtB26_7convert4IntoB1l_E4intoEEs_0Ba_
FN:2206,_RNCINvMsn_NtCs5iQXrcGAeg9_15gungraun_runner3apiNtB8_11RawToolArgs18extend_ignore_flagNtNtCslNYArtu3iFV_5alloc6string6StringINtNtNtNtCsgEmfK2I1SDS_4core4iter8adapters3map3MapINtNtNtB26_5array4iter8IntoIterReKj1_ENvYB3g_INtNtB26_7convert4IntoB1l_E4intoEE0Ba_
FN:2207,_RNCINvMsn_NtCs5iQXrcGAeg9_15gungraun_runner3apiNtB8_11RawToolArgs18extend_ignore_flagNtNtCslNYArtu3iFV_5alloc6string6StringINtNtNtNtCsgEmfK2I1SDS_4core4iter8adapters3map3MapINtNtNtB26_5array4iter8IntoIterReKj1_ENvYB3g_INtNtB26_7convert4IntoB1l_E4intoEEs_0Ba_
FN:2206,_RNCINvMsn_NtCs5iQXrcGAeg9_15gungraun_runner3apiNtB8_11RawToolArgs18extend_ignore_flagRNtNtCslNYArtu3iFV_5alloc6string6StringINtNtNtCsgEmfK2I1SDS_4core5slice4iter4IterB1m_EE0Ba_
FN:2207,_RNCINvMsn_NtCs5iQXrcGAeg9_15gungraun_runner3apiNtB8_11RawToolArgs18extend_ignore_flagRNtNtCslNYArtu3iFV_5alloc6string6StringINtNtNtCsgEmfK2I1SDS_4core5slice4iter4IterB1m_EEs_0Ba_
FN:2206,_RNCINvMsn_NtCs5iQXrcGAeg9_15gungraun_runner3apiNtB8_11RawToolArgs18extend_ignore_flagRNtNtCslNYArtu3iFV_5alloc6string6StringRAB1m_j1_E0Ba_
FN:2207,_RNCINvMsn_NtCs5iQXrcGAeg9_15gungraun_runner3apiNtB8_11RawToolArgs18extend_ignore_flagRNtNtCslNYArtu3iFV_5alloc6string6StringRAB1m_j1_Es_0Ba_
FN:2662,_RNCINvNtCs5iQXrcGAeg9_15gungraun_runner3api13update_optionINtNtCslNYArtu3iFV_5alloc3vec3VecNtNtBZ_6string6StringEE0B6_
FN:2662,_RNCINvNtCs5iQXrcGAeg9_15gungraun_runner3api13update_optionNtB4_10EntryPointE0B6_
FN:2662,_RNCINvNtCs5iQXrcGAeg9_15gungraun_runner3api13update_optionNtB4_12OutputFormatE0B6_
FN:2662,_RNCINvNtCs5iQXrcGAeg9_15gungraun_runner3api13update_optionNtB4_12ValgrindToolE0B6_
FN:2662,_RNCINvNtCs5iQXrcGAeg9_15gungraun_runner3api13update_optionNtB4_16ToolOutputFormatE0B6_
FN:2662,_RNCINvNtCs5iQXrcGAeg9_15gungraun_runner3api13update_optionNtB4_20ToolFlamegraphConfigE0B6_
FN:2662,_RNCINvNtCs5iQXrcGAeg9_15gungraun_runner3api13update_optionNtB4_20ToolRegressionConfigE0B6_
FN:2662,_RNCINvNtCs5iQXrcGAeg9_15gungraun_runner3api13update_optionNtB4_7SandboxE0B6_
FN:2662,_RNCINvNtCs5iQXrcGAeg9_15gungraun_runner3api13update_optionNtB4_8ExitWithE0B6_
FN:2662,_RNCINvNtCs5iQXrcGAeg9_15gungraun_runner3api13update_optionNtNtCsjrHSEGnQ3l9_3std4path7PathBufE0B6_
FN:2662,_RNCINvNtCs5iQXrcGAeg9_15gungraun_runner3api13update_optionbE0B6_
FN:1443,_RNCNCNvMNtCs5iQXrcGAeg9_15gungraun_runner3apiNtB6_21BinaryBenchmarkConfig12collect_envs00B8_
FN:2156,_RNCNCNvMsj_NtCs5iQXrcGAeg9_15gungraun_runner3apiNtB9_22LibraryBenchmarkConfig12collect_envs00Bb_
FN:1443,_RNCNvMNtCs5iQXrcGAeg9_15gungraun_runner3apiNtB4_21BinaryBenchmarkConfig12collect_envs0B6_
FN:2560,_RNCNvMsA_NtCs5iQXrcGAeg9_15gungraun_runner3apiNtB7_5Tools6update0B9_
FN:2587,_RNCNvMsA_NtCs5iQXrcGAeg9_15gungraun_runner3apiNtB7_5Tools7consume0B9_
FN:2588,_RNCNvMsA_NtCs5iQXrcGAeg9_15gungraun_runner3apiNtB7_5Tools7consumes_0B9_
FN:2156,_RNCNvMsj_NtCs5iQXrcGAeg9_15gungraun_runner3apiNtB7_22LibraryBenchmarkConfig12collect_envs0B9_
FN:2330,_RNCNvMsp_NtCs5iQXrcGAeg9_15gungraun_runner3apiNtB7_5Stdin5apply0B9_
FN:2339,_RNCNvMsp_NtCs5iQXrcGAeg9_15gungraun_runner3apiNtB7_5Stdin5applys_0B9_
FN:2452,_RNCNvMsu_NtCs5iQXrcGAeg9_15gungraun_runner3apiNtB7_5Stdio5apply0B9_
FN:2460,_RNCNvMsu_NtCs5iQXrcGAeg9_15gungraun_runner3apiNtB7_5Stdio5applys_0B9_
FN:1440,_RNvMNtCs5iQXrcGAeg9_15gungraun_runner3apiNtB2_21BinaryBenchmarkConfig12collect_envs
FN:1433,_RNvMNtCs5iQXrcGAeg9_15gungraun_runner3apiNtB2_21BinaryBenchmarkConfig12resolve_envs
FN:2578,_RNvMsA_NtCs5iQXrcGAeg9_15gungraun_runner3apiNtB5_5Tools17update_from_other
FN:2559,_RNvMsA_NtCs5iQXrcGAeg9_15gungraun_runner3apiNtB5_5Tools6update
FN:2584,_RNvMsA_NtCs5iQXrcGAeg9_15gungraun_runner3apiNtB5_5Tools7consume
FN:2554,_RNvMsA_NtCs5iQXrcGAeg9_15gungraun_runner3apiNtB5_5Tools8is_empty
FN:2621,_RNvMsB_NtCs5iQXrcGAeg9_15gungraun_runner3apiNtB5_12ValgrindTool14has_xleak_file
FN:2616,_RNvMsB_NtCs5iQXrcGAeg9_15gungraun_runner3apiNtB5_12ValgrindTool14has_xtree_file
FN:2608,_RNvMsB_NtCs5iQXrcGAeg9_15gungraun_runner3apiNtB5_12ValgrindTool15has_output_file
FN:2594,_RNvMsB_NtCs5iQXrcGAeg9_15gungraun_runner3apiNtB5_12ValgrindTool2id
FN:1467,_RNvMs_NtCs5iQXrcGAeg9_15gungraun_runner3apiNtB4_16CachegrindMetric10is_derived
FN:1487,_RNvMs_NtCs5iQXrcGAeg9_15gungraun_runner3apiNtB4_16CachegrindMetric7to_name
FN:1771,_RNvMsc_NtCs5iQXrcGAeg9_15gungraun_runner3apiNtB5_9EventKind10is_derived
FN:1791,_RNvMsc_NtCs5iQXrcGAeg9_15gungraun_runner3apiNtB5_9EventKind7to_name
FN:2153,_RNvMsj_NtCs5iQXrcGAeg9_15gungraun_runner3apiNtB5_22LibraryBenchmarkConfig12collect_envs
FN:2146,_RNvMsj_NtCs5iQXrcGAeg9_15gungraun_runner3apiNtB5_22LibraryBenchmarkConfig12resolve_envs
FN:2224,_RNvMsn_NtCs5iQXrcGAeg9_15gungraun_runner3apiNtB5_11RawToolArgs6update
FN:2229,_RNvMsn_NtCs5iQXrcGAeg9_15gungraun_runner3apiNtB5_11RawToolArgs7prepend
FN:2185,_RNvMsn_NtCs5iQXrcGAeg9_15gungraun_runner3apiNtB5_11RawToolArgs8as_slice
FN:2219,_RNvMsn_NtCs5iQXrcGAeg9_15gungraun_runner3apiNtB5_11RawToolArgs8is_empty
FN:2317,_RNvMsp_NtCs5iQXrcGAeg9_15gungraun_runner3apiNtB5_5Stdin5apply
FN:2434,_RNvMsu_NtCs5iQXrcGAeg9_15gungraun_runner3apiNtB5_5Stdio5apply
FN:2508,_RNvMsz_NtCs5iQXrcGAeg9_15gungraun_runner3apiNtB5_4Tool3new
FN:2534,_RNvMsz_NtCs5iQXrcGAeg9_15gungraun_runner3apiNtB5_4Tool6update
FN:1493,_RNvXs0_NtCs5iQXrcGAeg9_15gungraun_runner3apiNtB5_16CachegrindMetricNtNtCsgEmfK2I1SDS_4core3fmt7Display3fmt
FN:1550,_RNvXs1_NtCs5iQXrcGAeg9_15gungraun_runner3apiNtB5_16CachegrindMetricNtNtNtB7_6runner7metrics11TypeChecker6is_int
FN:1581,_RNvXs1_NtCs5iQXrcGAeg9_15gungraun_runner3apiNtB5_16CachegrindMetricNtNtNtB7_6runner7metrics11TypeChecker8is_float
FN:1587,_RNvXs2_NtCs5iQXrcGAeg9_15gungraun_runner3apiNtB5_17CachegrindMetricsINtNtCsgEmfK2I1SDS_4core7convert4FromNtB5_16CachegrindMetricE4from
FN:1611,_RNvXs3_NtCs5iQXrcGAeg9_15gungraun_runner3apiNtB5_16CallgrindMetricsINtNtCsgEmfK2I1SDS_4core7convert4FromNtB5_9EventKindE4from
FN:1638,_RNvXs4_NtCs5iQXrcGAeg9_15gungraun_runner3apiNtB5_9DelayKindNtNtCsgEmfK2I1SDS_4core7default7Default7default
FN:1644,_RNvXs5_NtCs5iQXrcGAeg9_15gungraun_runner3apiNtB5_10DhatMetricNtNtCsgEmfK2I1SDS_4core3fmt7Display3fmt
FN:54,_RNvXs5a_NtCs5iQXrcGAeg9_15gungraun_runner3apiNtB6_16CachegrindMetricNtNtNtCsgEmfK2I1SDS_4core3str6traits7FromStr8from_str
FN:78,_RNvXs5b_NtCs5iQXrcGAeg9_15gungraun_runner3apiNtB6_17CachegrindMetricsNtNtNtCsgEmfK2I1SDS_4core3str6traits7FromStr8from_str
FN:78,_RNvXs5c_NtCs5iQXrcGAeg9_15gungraun_runner3apiNtB6_16CallgrindMetricsNtNtNtCsgEmfK2I1SDS_4core3str6traits7FromStr8from_str
FN:54,_RNvXs5d_NtCs5iQXrcGAeg9_15gungraun_runner3apiNtB6_10DhatMetricNtNtNtCsgEmfK2I1SDS_4core3str6traits7FromStr8from_str
FN:78,_RNvXs5e_NtCs5iQXrcGAeg9_15gungraun_runner3apiNtB6_11DhatMetricsNtNtNtCsgEmfK2I1SDS_4core3str6traits7FromStr8from_str
FN:54,_RNvXs5f_NtCs5iQXrcGAeg9_15gungraun_runner3apiNtB6_11ErrorMetricNtNtNtCsgEmfK2I1SDS_4core3str6traits7FromStr8from_str
FN:54,_RNvXs5g_NtCs5iQXrcGAeg9_15gungraun_runner3apiNtB6_9EventKindNtNtNtCsgEmfK2I1SDS_4core3str6traits7FromStr8from_str
FN:1689,_RNvXs7_NtCs5iQXrcGAeg9_15gungraun_runner3apiNtB5_10DhatMetricNtNtNtB7_6runner7metrics11TypeChecker6is_int
FN:1693,_RNvXs7_NtCs5iQXrcGAeg9_15gungraun_runner3apiNtB5_10DhatMetricNtNtNtB7_6runner7metrics11TypeChecker8is_float
FN:1699,_RNvXs8_NtCs5iQXrcGAeg9_15gungraun_runner3apiNtB5_11DhatMetricsINtNtCsgEmfK2I1SDS_4core7convert4FromNtB5_10DhatMetricE4from
FN:2627,_RNvXsC_NtCs5iQXrcGAeg9_15gungraun_runner3apiNtB5_12ValgrindToolNtNtCsgEmfK2I1SDS_4core3fmt7Display3fmt
FN:2636,_RNvXsD_NtCs5iQXrcGAeg9_15gungraun_runner3apiNtB5_12ValgrindToolNtNtNtCsgEmfK2I1SDS_4core3str6traits7FromStr8from_str
FN:2645,_RNvXsE_NtCs5iQXrcGAeg9_15gungraun_runner3apiNtB5_12ValgrindToolINtNtCsgEmfK2I1SDS_4core7convert7TryFromReE8try_from
FN:1726,_RNvXsa_NtCs5iQXrcGAeg9_15gungraun_runner3apiNtB5_11ErrorMetricNtNtCsgEmfK2I1SDS_4core3fmt7Display3fmt
FN:1797,_RNvXsd_NtCs5iQXrcGAeg9_15gungraun_runner3apiNtB5_9EventKindNtNtCsgEmfK2I1SDS_4core3fmt7Display3fmt
FN:1819,_RNvXse_NtCs5iQXrcGAeg9_15gungraun_runner3apiNtB5_9EventKindINtNtCsgEmfK2I1SDS_4core7convert4FromNtB5_16CachegrindMetricE4from
FN:1898,_RNvXsf_NtCs5iQXrcGAeg9_15gungraun_runner3apiNtB5_9EventKindNtNtNtB7_6runner7metrics11TypeChecker6is_int
FN:1940,_RNvXsf_NtCs5iQXrcGAeg9_15gungraun_runner3apiNtB5_9EventKindNtNtNtB7_6runner7metrics11TypeChecker8is_float
FN:2163,_RNvXsk_NtCs5iQXrcGAeg9_15gungraun_runner3apiNtB5_5LimitINtNtCsgEmfK2I1SDS_4core7convert4FromNtNtNtB7_6runner7metrics6MetricE4from
FN:2172,_RNvXsl_NtCs5iQXrcGAeg9_15gungraun_runner3apiNtB5_5LimitINtNtCsgEmfK2I1SDS_4core7convert4FromdE4from
FN:2178,_RNvXsm_NtCs5iQXrcGAeg9_15gungraun_runner3apiNtB5_5LimitINtNtCsgEmfK2I1SDS_4core7convert4FromyE4from
FN:2352,_RNvXsq_NtCs5iQXrcGAeg9_15gungraun_runner3apiNtB5_5StdinINtNtCsgEmfK2I1SDS_4core7convert4FromNtB5_5StdioE4from
FN:2363,_RNvXsr_NtCs5iQXrcGAeg9_15gungraun_runner3apiNtB5_5StdinINtNtCsgEmfK2I1SDS_4core7convert4FromNtNtCsjrHSEGnQ3l9_3std4path7PathBufE4from
FN:2369,_RNvXss_NtCs5iQXrcGAeg9_15gungraun_runner3apiNtB5_5StdinINtNtCsgEmfK2I1SDS_4core7convert4FromRNtNtCsjrHSEGnQ3l9_3std4path7PathBufE4from
FN:2375,_RNvXst_NtCs5iQXrcGAeg9_15gungraun_runner3apiNtB5_5StdinINtNtCsgEmfK2I1SDS_4core7convert4FromRNtNtCsjrHSEGnQ3l9_3std4path4PathE4from
FN:2482,_RNvXsv_NtCs5iQXrcGAeg9_15gungraun_runner3apiNtB5_5StdioINtNtCsgEmfK2I1SDS_4core7convert4FromNtNtCsjrHSEGnQ3l9_3std4path7PathBufE4from
FN:2488,_RNvXsw_NtCs5iQXrcGAeg9_15gungraun_runner3apiNtB5_5StdioINtNtCsgEmfK2I1SDS_4core7convert4FromRNtNtCsjrHSEGnQ3l9_3std4path7PathBufE4from
FN:2494,_RNvXsx_NtCs5iQXrcGAeg9_15gungraun_runner3apiNtB5_5StdioINtNtCsgEmfK2I1SDS_4core7convert4FromRNtNtCsjrHSEGnQ3l9_3std4path4PathE4from
FN:2501,_RNvXsy_NtCs5iQXrcGAeg9_15gungraun_runner3apiNtB5_6StreamNtNtCsgEmfK2I1SDS_4core3fmt7Display3fmt
FN:2199,_RINvMsc_NtCs7FrVS94ALx1_15gungraun_runner3apiNtB6_11RawToolArgs18extend_ignore_flagRNtNtCslNYArtu3iFV_5alloc6string6StringINtNtNtCsgEmfK2I1SDS_4core5slice4iter4IterB1k_EEB8_
FN:2568,_RINvMso_NtCs7FrVS94ALx1_15gungraun_runner3apiNtB6_5Tools10update_allINtNtNtNtCsgEmfK2I1SDS_4core4iter8adapters6cloned6ClonedINtNtNtB1d_5slice4iter4IterNtB6_4ToolEEEB8_
FN:2661,_RINvNtCs7FrVS94ALx1_15gungraun_runner3api13update_optionINtNtCslNYArtu3iFV_5alloc3vec3VecNtNtBX_6string6StringEEB4_
FN:2661,_RINvNtCs7FrVS94ALx1_15gungraun_runner3api13update_optionNtB2_10EntryPointEB4_
FN:2661,_RINvNtCs7FrVS94ALx1_15gungraun_runner3api13update_optionNtB2_16ToolOutputFormatEB4_
FN:2661,_RINvNtCs7FrVS94ALx1_15gungraun_runner3api13update_optionNtB2_20ToolFlamegraphConfigEB4_
FN:2661,_RINvNtCs7FrVS94ALx1_15gungraun_runner3api13update_optionNtB2_20ToolRegressionConfigEB4_
FN:2661,_RINvNtCs7FrVS94ALx1_15gungraun_runner3api13update_optionbEB4_
FN:2206,_RNCINvMsc_NtCs7FrVS94ALx1_15gungraun_runner3apiNtB8_11RawToolArgs18extend_ignore_flagRNtNtCslNYArtu3iFV_5alloc6string6StringINtNtNtCsgEmfK2I1SDS_4core5slice4iter4IterB1m_EE0Ba_
FN:2207,_RNCINvMsc_NtCs7FrVS94ALx1_15gungraun_runner3apiNtB8_11RawToolArgs18extend_ignore_flagRNtNtCslNYArtu3iFV_5alloc6string6StringINtNtNtCsgEmfK2I1SDS_4core5slice4iter4IterB1m_EEs_0Ba_
FN:2662,_RNCINvNtCs7FrVS94ALx1_15gungraun_runner3api13update_optionINtNtCslNYArtu3iFV_5alloc3vec3VecNtNtBZ_6string6StringEE0B6_
FN:2662,_RNCINvNtCs7FrVS94ALx1_15gungraun_runner3api13update_optionNtB4_10EntryPointE0B6_
FN:2662,_RNCINvNtCs7FrVS94ALx1_15gungraun_runner3api13update_optionNtB4_16ToolOutputFormatE0B6_
FN:2662,_RNCINvNtCs7FrVS94ALx1_15gungraun_runner3api13update_optionNtB4_20ToolFlamegraphConfigE0B6_
FN:2662,_RNCINvNtCs7FrVS94ALx1_15gungraun_runner3api13update_optionNtB4_20ToolRegressionConfigE0B6_
FN:2662,_RNCINvNtCs7FrVS94ALx1_15gungraun_runner3api13update_optionbE0B6_
FN:2560,_RNCNvMso_NtCs7FrVS94ALx1_15gungraun_runner3apiNtB7_5Tools6update0B9_
FN:2587,_RNCNvMso_NtCs7FrVS94ALx1_15gungraun_runner3apiNtB7_5Tools7consume0B9_
FN:2588,_RNCNvMso_NtCs7FrVS94ALx1_15gungraun_runner3apiNtB7_5Tools7consumes_0B9_
FN:1467,_RNvMNtCs7FrVS94ALx1_15gungraun_runner3apiNtB2_16CachegrindMetric10is_derived
FN:1487,_RNvMNtCs7FrVS94ALx1_15gungraun_runner3apiNtB2_16CachegrindMetric7to_name
FN:1771,_RNvMs7_NtCs7FrVS94ALx1_15gungraun_runner3apiNtB5_9EventKind10is_derived
FN:1791,_RNvMs7_NtCs7FrVS94ALx1_15gungraun_runner3apiNtB5_9EventKind7to_name
FN:2224,_RNvMsc_NtCs7FrVS94ALx1_15gungraun_runner3apiNtB5_11RawToolArgs6update
FN:2229,_RNvMsc_NtCs7FrVS94ALx1_15gungraun_runner3apiNtB5_11RawToolArgs7prepend
FN:2185,_RNvMsc_NtCs7FrVS94ALx1_15gungraun_runner3apiNtB5_11RawToolArgs8as_slice
FN:2219,_RNvMsc_NtCs7FrVS94ALx1_15gungraun_runner3apiNtB5_11RawToolArgs8is_empty
FN:2508,_RNvMsn_NtCs7FrVS94ALx1_15gungraun_runner3apiNtB5_4Tool3new
FN:2534,_RNvMsn_NtCs7FrVS94ALx1_15gungraun_runner3apiNtB5_4Tool6update
FN:2578,_RNvMso_NtCs7FrVS94ALx1_15gungraun_runner3apiNtB5_5Tools17update_from_other
FN:2559,_RNvMso_NtCs7FrVS94ALx1_15gungraun_runner3apiNtB5_5Tools6update
FN:2584,_RNvMso_NtCs7FrVS94ALx1_15gungraun_runner3apiNtB5_5Tools7consume
FN:2554,_RNvMso_NtCs7FrVS94ALx1_15gungraun_runner3apiNtB5_5Tools8is_empty
FN:2621,_RNvMsp_NtCs7FrVS94ALx1_15gungraun_runner3apiNtB5_12ValgrindTool14has_xleak_file
FN:2616,_RNvMsp_NtCs7FrVS94ALx1_15gungraun_runner3apiNtB5_12ValgrindTool14has_xtree_file
FN:2608,_RNvMsp_NtCs7FrVS94ALx1_15gungraun_runner3apiNtB5_12ValgrindTool15has_output_file
FN:2594,_RNvMsp_NtCs7FrVS94ALx1_15gungraun_runner3apiNtB5_12ValgrindTool2id
FN:1587,_RNvXs0_NtCs7FrVS94ALx1_15gungraun_runner3apiNtB5_17CachegrindMetricsINtNtCsgEmfK2I1SDS_4core7convert4FromNtB5_16CachegrindMetricE4from
FN:1611,_RNvXs1_NtCs7FrVS94ALx1_15gungraun_runner3apiNtB5_16CallgrindMetricsINtNtCsgEmfK2I1SDS_4core7convert4FromNtB5_9EventKindE4from
FN:1638,_RNvXs2_NtCs7FrVS94ALx1_15gungraun_runner3apiNtB5_9DelayKindNtNtCsgEmfK2I1SDS_4core7default7Default7default
FN:1644,_RNvXs3_NtCs7FrVS94ALx1_15gungraun_runner3apiNtB5_10DhatMetricNtNtCsgEmfK2I1SDS_4core3fmt7Display3fmt
FN:1699,_RNvXs4_NtCs7FrVS94ALx1_15gungraun_runner3apiNtB5_11DhatMetricsINtNtCsgEmfK2I1SDS_4core7convert4FromNtB5_10DhatMetricE4from
FN:1726,_RNvXs6_NtCs7FrVS94ALx1_15gungraun_runner3apiNtB5_11ErrorMetricNtNtCsgEmfK2I1SDS_4core3fmt7Display3fmt
FN:1797,_RNvXs8_NtCs7FrVS94ALx1_15gungraun_runner3apiNtB5_9EventKindNtNtCsgEmfK2I1SDS_4core3fmt7Display3fmt
FN:1819,_RNvXs9_NtCs7FrVS94ALx1_15gungraun_runner3apiNtB5_9EventKindINtNtCsgEmfK2I1SDS_4core7convert4FromNtB5_16CachegrindMetricE4from
FN:1493,_RNvXs_NtCs7FrVS94ALx1_15gungraun_runner3apiNtB4_16CachegrindMetricNtNtCsgEmfK2I1SDS_4core3fmt7Display3fmt
FN:2172,_RNvXsa_NtCs7FrVS94ALx1_15gungraun_runner3apiNtB5_5LimitINtNtCsgEmfK2I1SDS_4core7convert4FromdE4from
FN:2178,_RNvXsb_NtCs7FrVS94ALx1_15gungraun_runner3apiNtB5_5LimitINtNtCsgEmfK2I1SDS_4core7convert4FromyE4from
FN:2352,_RNvXsf_NtCs7FrVS94ALx1_15gungraun_runner3apiNtB5_5StdinINtNtCsgEmfK2I1SDS_4core7convert4FromNtB5_5StdioE4from
FN:2363,_RNvXsg_NtCs7FrVS94ALx1_15gungraun_runner3apiNtB5_5StdinINtNtCsgEmfK2I1SDS_4core7convert4FromNtNtCsjrHSEGnQ3l9_3std4path7PathBufE4from
FN:2369,_RNvXsh_NtCs7FrVS94ALx1_15gungraun_runner3apiNtB5_5StdinINtNtCsgEmfK2I1SDS_4core7convert4FromRNtNtCsjrHSEGnQ3l9_3std4path7PathBufE4from
FN:2375,_RNvXsi_NtCs7FrVS94ALx1_15gungraun_runner3apiNtB5_5StdinINtNtCsgEmfK2I1SDS_4core7convert4FromRNtNtCsjrHSEGnQ3l9_3std4path4PathE4from
FN:2482,_RNvXsk_NtCs7FrVS94ALx1_15gungraun_runner3apiNtB5_5StdioINtNtCsgEmfK2I1SDS_4core7convert4FromNtNtCsjrHSEGnQ3l9_3std4path7PathBufE4from
FN:2488,_RNvXsl_NtCs7FrVS94ALx1_15gungraun_runner3apiNtB5_5StdioINtNtCsgEmfK2I1SDS_4core7convert4FromRNtNtCsjrHSEGnQ3l9_3std4path7PathBufE4from
FN:2494,_RNvXsm_NtCs7FrVS94ALx1_15gungraun_runner3apiNtB5_5StdioINtNtCsgEmfK2I1SDS_4core7convert4FromRNtNtCsjrHSEGnQ3l9_3std4path4PathE4from
FN:2627,_RNvXsq_NtCs7FrVS94ALx1_15gungraun_runner3apiNtB5_12ValgrindToolNtNtCsgEmfK2I1SDS_4core3fmt7Display3fmt
FN:1399,_RINvMNtCs34FkZ5Aug64_15gungraun_runner3apiNtB3_21BinaryBenchmarkConfig15update_from_allpEB5_
FN:2523,_RINvMsz_NtCs34FkZ5Aug64_15gungraun_runner3apiNtB6_4Tool9with_argsppEB8_
FN:1443,_RNCNCNvMNtCs34FkZ5Aug64_15gungraun_runner3apiNtB6_21BinaryBenchmarkConfig12collect_envs00B8_
FN:2156,_RNCNCNvMsj_NtCs34FkZ5Aug64_15gungraun_runner3apiNtB9_22LibraryBenchmarkConfig12collect_envs00Bb_
FN:1443,_RNCNvMNtCs34FkZ5Aug64_15gungraun_runner3apiNtB4_21BinaryBenchmarkConfig12collect_envs0B6_
FN:2156,_RNCNvMsj_NtCs34FkZ5Aug64_15gungraun_runner3apiNtB7_22LibraryBenchmarkConfig12collect_envs0B9_
FN:2330,_RNCNvMsp_NtCs34FkZ5Aug64_15gungraun_runner3apiNtB7_5Stdin5apply0B9_
FN:2339,_RNCNvMsp_NtCs34FkZ5Aug64_15gungraun_runner3apiNtB7_5Stdin5applys_0B9_
FN:2452,_RNCNvMsu_NtCs34FkZ5Aug64_15gungraun_runner3apiNtB7_5Stdio5apply0B9_
FN:2460,_RNCNvMsu_NtCs34FkZ5Aug64_15gungraun_runner3apiNtB7_5Stdio5applys_0B9_
FN:1440,_RNvMNtCs34FkZ5Aug64_15gungraun_runner3apiNtB2_21BinaryBenchmarkConfig12collect_envs
FN:1433,_RNvMNtCs34FkZ5Aug64_15gungraun_runner3apiNtB2_21BinaryBenchmarkConfig12resolve_envs
FN:2621,_RNvMsB_NtCs34FkZ5Aug64_15gungraun_runner3apiNtB5_12ValgrindTool14has_xleak_file
FN:2616,_RNvMsB_NtCs34FkZ5Aug64_15gungraun_runner3apiNtB5_12ValgrindTool14has_xtree_file
FN:2608,_RNvMsB_NtCs34FkZ5Aug64_15gungraun_runner3apiNtB5_12ValgrindTool15has_output_file
FN:1467,_RNvMs_NtCs34FkZ5Aug64_15gungraun_runner3apiNtB4_16CachegrindMetric10is_derived
FN:1487,_RNvMs_NtCs34FkZ5Aug64_15gungraun_runner3apiNtB4_16CachegrindMetric7to_name
FN:1771,_RNvMsc_NtCs34FkZ5Aug64_15gungraun_runner3apiNtB5_9EventKind10is_derived
FN:1791,_RNvMsc_NtCs34FkZ5Aug64_15gungraun_runner3apiNtB5_9EventKind7to_name
FN:2153,_RNvMsj_NtCs34FkZ5Aug64_15gungraun_runner3apiNtB5_22LibraryBenchmarkConfig12collect_envs
FN:2317,_RNvMsp_NtCs34FkZ5Aug64_15gungraun_runner3apiNtB5_5Stdin5apply
FN:2434,_RNvMsu_NtCs34FkZ5Aug64_15gungraun_runner3apiNtB5_5Stdio5apply
FN:1720,_RNvXININtCs34FkZ5Aug64_15gungraun_runner3apis9_0pENtB5_10EntryPointINtNtCsgEmfK2I1SDS_4core7convert4FrompE4fromB7_
FN:1587,_RNvXs2_NtCs34FkZ5Aug64_15gungraun_runner3apiNtB5_17CachegrindMetricsINtNtCsgEmfK2I1SDS_4core7convert4FromNtB5_16CachegrindMetricE4from
FN:1638,_RNvXs4_NtCs34FkZ5Aug64_15gungraun_runner3apiNtB5_9DelayKindNtNtCsgEmfK2I1SDS_4core7default7Default7default
FN:1699,_RNvXs8_NtCs34FkZ5Aug64_15gungraun_runner3apiNtB5_11DhatMetricsINtNtCsgEmfK2I1SDS_4core7convert4FromNtB5_10DhatMetricE4from
FN:1726,_RNvXsa_NtCs34FkZ5Aug64_15gungraun_runner3apiNtB5_11ErrorMetricNtNtCsgEmfK2I1SDS_4core3fmt7Display3fmt
FN:2163,_RNvXsk_NtCs34FkZ5Aug64_15gungraun_runner3apiNtB5_5LimitINtNtCsgEmfK2I1SDS_4core7convert4FromNtNtNtB7_6runner7metrics6MetricE4from
FN:2352,_RNvXsq_NtCs34FkZ5Aug64_15gungraun_runner3apiNtB5_5StdinINtNtCsgEmfK2I1SDS_4core7convert4FromNtB5_5StdioE4from
FN:2363,_RNvXsr_NtCs34FkZ5Aug64_15gungraun_runner3apiNtB5_5StdinINtNtCsgEmfK2I1SDS_4core7convert4FromNtNtCsjrHSEGnQ3l9_3std4path7PathBufE4from
FN:2369,_RNvXss_NtCs34FkZ5Aug64_15gungraun_runner3apiNtB5_5StdinINtNtCsgEmfK2I1SDS_4core7convert4FromRNtNtCsjrHSEGnQ3l9_3std4path7PathBufE4from
FN:2375,_RNvXst_NtCs34FkZ5Aug64_15gungraun_runner3apiNtB5_5StdinINtNtCsgEmfK2I1SDS_4core7convert4FromRNtNtCsjrHSEGnQ3l9_3std4path4PathE4from
FN:2482,_RNvXsv_NtCs34FkZ5Aug64_15gungraun_runner3apiNtB5_5StdioINtNtCsgEmfK2I1SDS_4core7convert4FromNtNtCsjrHSEGnQ3l9_3std4path7PathBufE4from
FN:2488,_RNvXsw_NtCs34FkZ5Aug64_15gungraun_runner3apiNtB5_5StdioINtNtCsgEmfK2I1SDS_4core7convert4FromRNtNtCsjrHSEGnQ3l9_3std4path7PathBufE4from
FN:2494,_RNvXsx_NtCs34FkZ5Aug64_15gungraun_runner3apiNtB5_5StdioINtNtCsgEmfK2I1SDS_4core7convert4FromRNtNtCsjrHSEGnQ3l9_3std4path4PathE4from
FN:2501,_RNvXsy_NtCs34FkZ5Aug64_15gungraun_runner3apiNtB5_6StreamNtNtCsgEmfK2I1SDS_4core3fmt7Display3fmt
FN:1947,_RNvXsg_NtCs34FkZ5Aug64_15gungraun_runner3apiINtNtCs2Htibuv8RQm_8indexmap3set8IndexSetNtB5_16CachegrindMetricEINtNtCsgEmfK2I1SDS_4core7convert4FromNtB5_17CachegrindMetricsE4from
FN:2015,_RNvXsh_NtCs34FkZ5Aug64_15gungraun_runner3apiINtNtCs2Htibuv8RQm_8indexmap3set8IndexSetNtB5_10DhatMetricEINtNtCsgEmfK2I1SDS_4core7convert4FromNtB5_11DhatMetricsE4from
FN:2037,_RNvXsi_NtCs34FkZ5Aug64_15gungraun_runner3apiINtNtCs2Htibuv8RQm_8indexmap3set8IndexSetNtB5_9EventKindEINtNtCsgEmfK2I1SDS_4core7convert4FromNtB5_16CallgrindMetricsE4from
FN:2911,_RNvNtNtCs34FkZ5Aug64_15gungraun_runner3api5testss_33test_tool_update_when_tools_match
FN:2684,_RNvNtNtCs34FkZ5Aug64_15gungraun_runner3api5testss_36test_event_kind_from_str_ignore_case
FN:2930,_RNvNtNtCs34FkZ5Aug64_15gungraun_runner3api5testss_37test_tool_update_when_tools_not_match
FN:2675,_RNvNtNtCs34FkZ5Aug64_15gungraun_runner3api5testss_43test_cachegrind_metric_from_str_ignore_case
FN:2693,_RNvNtNtCs34FkZ5Aug64_15gungraun_runner3api5testss_58test_library_benchmark_config_update_from_all_when_default
FN:2732,_RNvNtNtCs34FkZ5Aug64_15gungraun_runner3api5testss_65test_library_benchmark_config_update_from_all_when_tools_override
FN:2702,_RNvNtNtCs34FkZ5Aug64_15gungraun_runner3api5testss_68test_library_benchmark_config_update_from_all_when_no_tools_override
FN:2578,_RNvMsA_NtCs34FkZ5Aug64_15gungraun_runner3apiNtB5_5Tools17update_from_other
FN:2559,_RNvMsA_NtCs34FkZ5Aug64_15gungraun_runner3apiNtB5_5Tools6update
FN:2584,_RNvMsA_NtCs34FkZ5Aug64_15gungraun_runner3apiNtB5_5Tools7consume
FN:2554,_RNvMsA_NtCs34FkZ5Aug64_15gungraun_runner3apiNtB5_5Tools8is_empty
FN:2594,_RNvMsB_NtCs34FkZ5Aug64_15gungraun_runner3apiNtB5_12ValgrindTool2id
FN:2146,_RNvMsj_NtCs34FkZ5Aug64_15gungraun_runner3apiNtB5_22LibraryBenchmarkConfig12resolve_envs
FN:2224,_RNvMsn_NtCs34FkZ5Aug64_15gungraun_runner3apiNtB5_11RawToolArgs6update
FN:2229,_RNvMsn_NtCs34FkZ5Aug64_15gungraun_runner3apiNtB5_11RawToolArgs7prepend
FN:2185,_RNvMsn_NtCs34FkZ5Aug64_15gungraun_runner3apiNtB5_11RawToolArgs8as_slice
FN:2219,_RNvMsn_NtCs34FkZ5Aug64_15gungraun_runner3apiNtB5_11RawToolArgs8is_empty
FN:2508,_RNvMsz_NtCs34FkZ5Aug64_15gungraun_runner3apiNtB5_4Tool3new
FN:2534,_RNvMsz_NtCs34FkZ5Aug64_15gungraun_runner3apiNtB5_4Tool6update
FN:1493,_RNvXs0_NtCs34FkZ5Aug64_15gungraun_runner3apiNtB5_16CachegrindMetricNtNtCsgEmfK2I1SDS_4core3fmt7Display3fmt
FN:1550,_RNvXs1_NtCs34FkZ5Aug64_15gungraun_runner3apiNtB5_16CachegrindMetricNtNtNtB7_6runner7metrics11TypeChecker6is_int
FN:1581,_RNvXs1_NtCs34FkZ5Aug64_15gungraun_runner3apiNtB5_16CachegrindMetricNtNtNtB7_6runner7metrics11TypeChecker8is_float
FN:1611,_RNvXs3_NtCs34FkZ5Aug64_15gungraun_runner3apiNtB5_16CallgrindMetricsINtNtCsgEmfK2I1SDS_4core7convert4FromNtB5_9EventKindE4from
FN:1644,_RNvXs5_NtCs34FkZ5Aug64_15gungraun_runner3apiNtB5_10DhatMetricNtNtCsgEmfK2I1SDS_4core3fmt7Display3fmt
FN:54,_RNvXs5a_NtCs34FkZ5Aug64_15gungraun_runner3apiNtB6_16CachegrindMetricNtNtNtCsgEmfK2I1SDS_4core3str6traits7FromStr8from_str
FN:78,_RNvXs5b_NtCs34FkZ5Aug64_15gungraun_runner3apiNtB6_17CachegrindMetricsNtNtNtCsgEmfK2I1SDS_4core3str6traits7FromStr8from_str
FN:78,_RNvXs5c_NtCs34FkZ5Aug64_15gungraun_runner3apiNtB6_16CallgrindMetricsNtNtNtCsgEmfK2I1SDS_4core3str6traits7FromStr8from_str
FN:54,_RNvXs5d_NtCs34FkZ5Aug64_15gungraun_runner3apiNtB6_10DhatMetricNtNtNtCsgEmfK2I1SDS_4core3str6traits7FromStr8from_str
FN:78,_RNvXs5e_NtCs34FkZ5Aug64_15gungraun_runner3apiNtB6_11DhatMetricsNtNtNtCsgEmfK2I1SDS_4core3str6traits7FromStr8from_str
FN:54,_RNvXs5f_NtCs34FkZ5Aug64_15gungraun_runner3apiNtB6_11ErrorMetricNtNtNtCsgEmfK2I1SDS_4core3str6traits7FromStr8from_str
FN:54,_RNvXs5g_NtCs34FkZ5Aug64_15gungraun_runner3apiNtB6_9EventKindNtNtNtCsgEmfK2I1SDS_4core3str6traits7FromStr8from_str
FN:1689,_RNvXs7_NtCs34FkZ5Aug64_15gungraun_runner3apiNtB5_10DhatMetricNtNtNtB7_6runner7metrics11TypeChecker6is_int
FN:1693,_RNvXs7_NtCs34FkZ5Aug64_15gungraun_runner3apiNtB5_10DhatMetricNtNtNtB7_6runner7metrics11TypeChecker8is_float
FN:2627,_RNvXsC_NtCs34FkZ5Aug64_15gungraun_runner3apiNtB5_12ValgrindToolNtNtCsgEmfK2I1SDS_4core3fmt7Display3fmt
FN:2636,_RNvXsD_NtCs34FkZ5Aug64_15gungraun_runner3apiNtB5_12ValgrindToolNtNtNtCsgEmfK2I1SDS_4core3str6traits7FromStr8from_str
FN:2645,_RNvXsE_NtCs34FkZ5Aug64_15gungraun_runner3apiNtB5_12ValgrindToolINtNtCsgEmfK2I1SDS_4core7convert7TryFromReE8try_from
FN:1797,_RNvXsd_NtCs34FkZ5Aug64_15gungraun_runner3apiNtB5_9EventKindNtNtCsgEmfK2I1SDS_4core3fmt7Display3fmt
FN:1819,_RNvXse_NtCs34FkZ5Aug64_15gungraun_runner3apiNtB5_9EventKindINtNtCsgEmfK2I1SDS_4core7convert4FromNtB5_16CachegrindMetricE4from
FN:1898,_RNvXsf_NtCs34FkZ5Aug64_15gungraun_runner3apiNtB5_9EventKindNtNtNtB7_6runner7metrics11TypeChecker6is_int
FN:1940,_RNvXsf_NtCs34FkZ5Aug64_15gungraun_runner3apiNtB5_9EventKindNtNtNtB7_6runner7metrics11TypeChecker8is_float
FN:2172,_RNvXsl_NtCs34FkZ5Aug64_15gungraun_runner3apiNtB5_5LimitINtNtCsgEmfK2I1SDS_4core7convert4FromdE4from
FN:2178,_RNvXsm_NtCs34FkZ5Aug64_15gungraun_runner3apiNtB5_5LimitINtNtCsgEmfK2I1SDS_4core7convert4FromyE4from
FN:2568,_RINvMsA_NtCs34FkZ5Aug64_15gungraun_runner3apiNtB6_5Tools10update_allINtNtNtNtCsgEmfK2I1SDS_4core4iter8adapters6cloned6ClonedINtNtNtB1d_5slice4iter4IterNtB6_4ToolEEEB8_
FN:2118,_RINvMsj_NtCs34FkZ5Aug64_15gungraun_runner3apiNtB6_22LibraryBenchmarkConfig15update_from_allAINtNtCsgEmfK2I1SDS_4core6option6OptionRBH_Ej1_EB8_
FN:2199,_RINvMsn_NtCs34FkZ5Aug64_15gungraun_runner3apiNtB6_11RawToolArgs18extend_ignore_flagNtNtCslNYArtu3iFV_5alloc6string6StringINtNtNtNtCsgEmfK2I1SDS_4core4iter8adapters3map3MapIB1W_INtNtNtB24_5slice4iter4IterReENvYB3f_NtNtB1n_6borrow7ToOwned8to_ownedENvYB3f_INtNtB24_7convert4IntoB1j_E4intoEEB8_
FN:2199,_RINvMsn_NtCs34FkZ5Aug64_15gungraun_runner3apiNtB6_11RawToolArgs18extend_ignore_flagNtNtCslNYArtu3iFV_5alloc6string6StringINtNtNtNtCsgEmfK2I1SDS_4core4iter8adapters3map3MapINtNtNtB1n_3vec9into_iter8IntoIterB1j_ENvYB1j_INtNtB24_7convert4IntoB1j_E4intoEEB8_
FN:2199,_RINvMsn_NtCs34FkZ5Aug64_15gungraun_runner3apiNtB6_11RawToolArgs18extend_ignore_flagNtNtCslNYArtu3iFV_5alloc6string6StringINtNtNtNtCsgEmfK2I1SDS_4core4iter8adapters3map3MapINtNtNtB24_5array4iter8IntoIterReKj1_ENvYB3e_INtNtB24_7convert4IntoB1j_E4intoEEB8_
FN:2199,_RINvMsn_NtCs34FkZ5Aug64_15gungraun_runner3apiNtB6_11RawToolArgs18extend_ignore_flagNtNtCslNYArtu3iFV_5alloc6string6StringINtNtNtNtCsgEmfK2I1SDS_4core4iter8adapters3map3MapINtNtNtB24_5slice4iter4IterReENvYB3a_NtB1l_8ToString9to_stringEEB8_
FN:2199,_RINvMsn_NtCs34FkZ5Aug64_15gungraun_runner3apiNtB6_11RawToolArgs18extend_ignore_flagRNtNtCslNYArtu3iFV_5alloc6string6StringINtNtNtCsgEmfK2I1SDS_4core5slice4iter4IterB1k_EEB8_
FN:2199,_RINvMsn_NtCs34FkZ5Aug64_15gungraun_runner3apiNtB6_11RawToolArgs18extend_ignore_flagRNtNtCslNYArtu3iFV_5alloc6string6StringRAB1k_j1_EB8_
FN:2199,_RINvMsn_NtCs34FkZ5Aug64_15gungraun_runner3apiNtB6_11RawToolArgs18extend_ignore_flagRReRSB1k_EB8_
FN:2190,_RINvMsn_NtCs34FkZ5Aug64_15gungraun_runner3apiNtB6_11RawToolArgs3newNtNtCslNYArtu3iFV_5alloc6string6StringINtNtB17_3vec3VecB13_EEB8_
FN:2190,_RINvMsn_NtCs34FkZ5Aug64_15gungraun_runner3apiNtB6_11RawToolArgs3newReAB13_j1_EB8_
FN:2190,_RINvMsn_NtCs34FkZ5Aug64_15gungraun_runner3apiNtB6_11RawToolArgs3newReINtNtNtNtCsgEmfK2I1SDS_4core4iter8adapters3map3MapINtNtNtB1e_5slice4iter4IterB13_ENvYB13_NtNtCslNYArtu3iFV_5alloc6borrow7ToOwned8to_ownedEEB8_
FN:2661,_RINvNtCs34FkZ5Aug64_15gungraun_runner3api13update_optionINtNtCslNYArtu3iFV_5alloc3vec3VecNtNtBX_6string6StringEEB4_
FN:2661,_RINvNtCs34FkZ5Aug64_15gungraun_runner3api13update_optionNtB2_10EntryPointEB4_
FN:2661,_RINvNtCs34FkZ5Aug64_15gungraun_runner3api13update_optionNtB2_12OutputFormatEB4_
FN:2661,_RINvNtCs34FkZ5Aug64_15gungraun_runner3api13update_optionNtB2_12ValgrindToolEB4_
FN:2661,_RINvNtCs34FkZ5Aug64_15gungraun_runner3api13update_optionNtB2_16ToolOutputFormatEB4_
FN:2661,_RINvNtCs34FkZ5Aug64_15gungraun_runner3api13update_optionNtB2_20ToolFlamegraphConfigEB4_
FN:2661,_RINvNtCs34FkZ5Aug64_15gungraun_runner3api13update_optionNtB2_20ToolRegressionConfigEB4_
FN:2661,_RINvNtCs34FkZ5Aug64_15gungraun_runner3api13update_optionbEB4_
FN:2242,_RINvXso_NtCs34FkZ5Aug64_15gungraun_runner3apiNtB6_11RawToolArgsINtNtNtNtCsgEmfK2I1SDS_4core4iter6traits7collect12FromIteratorNtNtCslNYArtu3iFV_5alloc6string6StringE9from_iterINtNtNtB16_8adapters3map3MapIB2N_INtNtNtB18_5slice4iter4IterReENvYB3K_NtNtB23_6borrow7ToOwned8to_ownedENvYB3K_INtNtB18_7convert4IntoB1Z_E4intoEEB8_
FN:2242,_RINvXso_NtCs34FkZ5Aug64_15gungraun_runner3apiNtB6_11RawToolArgsINtNtNtNtCsgEmfK2I1SDS_4core4iter6traits7collect12FromIteratorNtNtCslNYArtu3iFV_5alloc6string6StringE9from_iterINtNtNtB16_8adapters3map3MapINtNtNtB18_5array4iter8IntoIterReKj1_ENvYB3J_INtNtB18_7convert4IntoB1Z_E4intoEEB8_
FN:2242,_RINvXso_NtCs34FkZ5Aug64_15gungraun_runner3apiNtB6_11RawToolArgsINtNtNtNtCsgEmfK2I1SDS_4core4iter6traits7collect12FromIteratorNtNtCslNYArtu3iFV_5alloc6string6StringE9from_iterINtNtNtB16_8adapters3map3MapINtNtNtB23_3vec9into_iter8IntoIterB1Z_ENvYB1Z_INtNtB18_7convert4IntoB1Z_E4intoEEB8_
FN:2242,_RINvXso_NtCs34FkZ5Aug64_15gungraun_runner3apiNtB6_11RawToolArgsINtNtNtNtCsgEmfK2I1SDS_4core4iter6traits7collect12FromIteratorRReE9from_iterRSB20_EB8_
FN:2206,_RNCINvMsn_NtCs34FkZ5Aug64_15gungraun_runner3apiNtB8_11RawToolArgs18extend_ignore_flagNtNtCslNYArtu3iFV_5alloc6string6StringINtNtNtNtCsgEmfK2I1SDS_4core4iter8adapters3map3MapIB1Y_INtNtNtB26_5slice4iter4IterReENvYB3h_NtNtB1p_6borrow7ToOwned8to_ownedENvYB3h_INtNtB26_7convert4IntoB1l_E4intoEE0Ba_
FN:2207,_RNCINvMsn_NtCs34FkZ5Aug64_15gungraun_runner3apiNtB8_11RawToolArgs18extend_ignore_flagNtNtCslNYArtu3iFV_5alloc6string6StringINtNtNtNtCsgEmfK2I1SDS_4core4iter8adapters3map3MapIB1Y_INtNtNtB26_5slice4iter4IterReENvYB3h_NtNtB1p_6borrow7ToOwned8to_ownedENvYB3h_INtNtB26_7convert4IntoB1l_E4intoEEs_0Ba_
FN:2206,_RNCINvMsn_NtCs34FkZ5Aug64_15gungraun_runner3apiNtB8_11RawToolArgs18extend_ignore_flagNtNtCslNYArtu3iFV_5alloc6string6StringINtNtNtNtCsgEmfK2I1SDS_4core4iter8adapters3map3MapINtNtNtB1p_3vec9into_iter8IntoIterB1l_ENvYB1l_INtNtB26_7convert4IntoB1l_E4intoEE0Ba_
FN:2207,_RNCINvMsn_NtCs34FkZ5Aug64_15gungraun_runner3apiNtB8_11RawToolArgs18extend_ignore_flagNtNtCslNYArtu3iFV_5alloc6string6StringINtNtNtNtCsgEmfK2I1SDS_4core4iter8adapters3map3MapINtNtNtB1p_3vec9into_iter8IntoIterB1l_ENvYB1l_INtNtB26_7convert4IntoB1l_E4intoEEs_0Ba_
FN:2206,_RNCINvMsn_NtCs34FkZ5Aug64_15gungraun_runner3apiNtB8_11RawToolArgs18extend_ignore_flagNtNtCslNYArtu3iFV_5alloc6string6StringINtNtNtNtCsgEmfK2I1SDS_4core4iter8adapters3map3MapINtNtNtB26_5array4iter8IntoIterReKj1_ENvYB3g_INtNtB26_7convert4IntoB1l_E4intoEE0Ba_
FN:2207,_RNCINvMsn_NtCs34FkZ5Aug64_15gungraun_runner3apiNtB8_11RawToolArgs18extend_ignore_flagNtNtCslNYArtu3iFV_5alloc6string6StringINtNtNtNtCsgEmfK2I1SDS_4core4iter8adapters3map3MapINtNtNtB26_5array4iter8IntoIterReKj1_ENvYB3g_INtNtB26_7convert4IntoB1l_E4intoEEs_0Ba_
FN:2206,_RNCINvMsn_NtCs34FkZ5Aug64_15gungraun_runner3apiNtB8_11RawToolArgs18extend_ignore_flagNtNtCslNYArtu3iFV_5alloc6string6StringINtNtNtNtCsgEmfK2I1SDS_4core4iter8adapters3map3MapINtNtNtB26_5slice4iter4IterReENvYB3c_NtB1n_8ToString9to_stringEE0Ba_
FN:2207,_RNCINvMsn_NtCs34FkZ5Aug64_15gungraun_runner3apiNtB8_11RawToolArgs18extend_ignore_flagNtNtCslNYArtu3iFV_5alloc6string6StringINtNtNtNtCsgEmfK2I1SDS_4core4iter8adapters3map3MapINtNtNtB26_5slice4iter4IterReENvYB3c_NtB1n_8ToString9to_stringEEs_0Ba_
FN:2206,_RNCINvMsn_NtCs34FkZ5Aug64_15gungraun_runner3apiNtB8_11RawToolArgs18extend_ignore_flagRNtNtCslNYArtu3iFV_5alloc6string6StringINtNtNtCsgEmfK2I1SDS_4core5slice4iter4IterB1m_EE0Ba_
FN:2207,_RNCINvMsn_NtCs34FkZ5Aug64_15gungraun_runner3apiNtB8_11RawToolArgs18extend_ignore_flagRNtNtCslNYArtu3iFV_5alloc6string6StringINtNtNtCsgEmfK2I1SDS_4core5slice4iter4IterB1m_EEs_0Ba_
FN:2206,_RNCINvMsn_NtCs34FkZ5Aug64_15gungraun_runner3apiNtB8_11RawToolArgs18extend_ignore_flagRNtNtCslNYArtu3iFV_5alloc6string6StringRAB1m_j1_E0Ba_
FN:2207,_RNCINvMsn_NtCs34FkZ5Aug64_15gungraun_runner3apiNtB8_11RawToolArgs18extend_ignore_flagRNtNtCslNYArtu3iFV_5alloc6string6StringRAB1m_j1_Es_0Ba_
FN:2206,_RNCINvMsn_NtCs34FkZ5Aug64_15gungraun_runner3apiNtB8_11RawToolArgs18extend_ignore_flagRReRSB1m_E0Ba_
FN:2207,_RNCINvMsn_NtCs34FkZ5Aug64_15gungraun_runner3apiNtB8_11RawToolArgs18extend_ignore_flagRReRSB1m_Es_0Ba_
FN:2662,_RNCINvNtCs34FkZ5Aug64_15gungraun_runner3api13update_optionINtNtCslNYArtu3iFV_5alloc3vec3VecNtNtBZ_6string6StringEE0B6_
FN:2662,_RNCINvNtCs34FkZ5Aug64_15gungraun_runner3api13update_optionNtB4_10EntryPointE0B6_
FN:2662,_RNCINvNtCs34FkZ5Aug64_15gungraun_runner3api13update_optionNtB4_12OutputFormatE0B6_
FN:2662,_RNCINvNtCs34FkZ5Aug64_15gungraun_runner3api13update_optionNtB4_12ValgrindToolE0B6_
FN:2662,_RNCINvNtCs34FkZ5Aug64_15gungraun_runner3api13update_optionNtB4_16ToolOutputFormatE0B6_
FN:2662,_RNCINvNtCs34FkZ5Aug64_15gungraun_runner3api13update_optionNtB4_20ToolFlamegraphConfigE0B6_
FN:2662,_RNCINvNtCs34FkZ5Aug64_15gungraun_runner3api13update_optionNtB4_20ToolRegressionConfigE0B6_
FN:2662,_RNCINvNtCs34FkZ5Aug64_15gungraun_runner3api13update_optionbE0B6_
FN:2560,_RNCNvMsA_NtCs34FkZ5Aug64_15gungraun_runner3apiNtB7_5Tools6update0B9_
FN:2587,_RNCNvMsA_NtCs34FkZ5Aug64_15gungraun_runner3apiNtB7_5Tools7consume0B9_
FN:2588,_RNCNvMsA_NtCs34FkZ5Aug64_15gungraun_runner3apiNtB7_5Tools7consumes_0B9_
FNDA:0,_RINvMsz_NtCs5iQXrcGAeg9_15gungraun_runner3apiNtB6_4Tool9with_argsppEB8_
FNDA:0,_RNvXININtCs5iQXrcGAeg9_15gungraun_runner3apis9_0pENtB5_10EntryPointINtNtCsgEmfK2I1SDS_4core7convert4FrompE4fromB7_
FNDA:9,_RNvXsg_NtCs5iQXrcGAeg9_15gungraun_runner3apiINtNtCs2Htibuv8RQm_8indexmap3set8IndexSetNtB5_16CachegrindMetricEINtNtCsgEmfK2I1SDS_4core7convert4FromNtB5_17CachegrindMetricsE4from
FNDA:3,_RNvXsh_NtCs5iQXrcGAeg9_15gungraun_runner3apiINtNtCs2Htibuv8RQm_8indexmap3set8IndexSetNtB5_10DhatMetricEINtNtCsgEmfK2I1SDS_4core7convert4FromNtB5_11DhatMetricsE4from
FNDA:18,_RNvXsi_NtCs5iQXrcGAeg9_15gungraun_runner3apiINtNtCs2Htibuv8RQm_8indexmap3set8IndexSetNtB5_9EventKindEINtNtCsgEmfK2I1SDS_4core7convert4FromNtB5_16CallgrindMetricsE4from
FNDA:0,_RINvMNtCs5iQXrcGAeg9_15gungraun_runner3apiNtB3_21BinaryBenchmarkConfig15update_from_allAINtNtCsgEmfK2I1SDS_4core6option6OptionRBE_Ej1_EB5_
FNDA:0,_RINvMNtCs5iQXrcGAeg9_15gungraun_runner3apiNtB3_21BinaryBenchmarkConfig15update_from_allAINtNtCsgEmfK2I1SDS_4core6option6OptionRBE_Ej3_EB5_
FNDA:0,_RINvMsA_NtCs5iQXrcGAeg9_15gungraun_runner3apiNtB6_5Tools10update_allINtNtNtNtCsgEmfK2I1SDS_4core4iter8adapters6cloned6ClonedINtNtNtB1d_5slice4iter4IterNtB6_4ToolEEEB8_
FNDA:0,_RINvMsj_NtCs5iQXrcGAeg9_15gungraun_runner3apiNtB6_22LibraryBenchmarkConfig15update_from_allAINtNtCsgEmfK2I1SDS_4core6option6OptionRBH_Ej1_EB8_
FNDA:0,_RINvMsj_NtCs5iQXrcGAeg9_15gungraun_runner3apiNtB6_22LibraryBenchmarkConfig15update_from_allAINtNtCsgEmfK2I1SDS_4core6option6OptionRBH_Ej2_EB8_
FNDA:4,_RINvMsn_NtCs5iQXrcGAeg9_15gungraun_runner3apiNtB6_11RawToolArgs18extend_ignore_flagNtNtCslNYArtu3iFV_5alloc6string6StringINtNtNtNtCsgEmfK2I1SDS_4core4iter8adapters3map3MapINtNtNtB1n_3vec9into_iter8IntoIterB1j_ENvYB1j_INtNtB24_7convert4IntoB1j_E4intoEEB8_
FNDA:0,_RINvMsn_NtCs5iQXrcGAeg9_15gungraun_runner3apiNtB6_11RawToolArgs18extend_ignore_flagNtNtCslNYArtu3iFV_5alloc6string6StringINtNtNtNtCsgEmfK2I1SDS_4core4iter8adapters3map3MapINtNtNtB24_5array4iter8IntoIterReKj1_ENvYB3e_INtNtB24_7convert4IntoB1j_E4intoEEB8_
FNDA:10,_RINvMsn_NtCs5iQXrcGAeg9_15gungraun_runner3apiNtB6_11RawToolArgs18extend_ignore_flagRNtNtCslNYArtu3iFV_5alloc6string6StringINtNtNtCsgEmfK2I1SDS_4core5slice4iter4IterB1k_EEB8_
FNDA:0,_RINvMsn_NtCs5iQXrcGAeg9_15gungraun_runner3apiNtB6_11RawToolArgs18extend_ignore_flagRNtNtCslNYArtu3iFV_5alloc6string6StringRAB1k_j1_EB8_
FNDA:4,_RINvMsn_NtCs5iQXrcGAeg9_15gungraun_runner3apiNtB6_11RawToolArgs3newNtNtCslNYArtu3iFV_5alloc6string6StringINtNtB17_3vec3VecB13_EEB8_
FNDA:0,_RINvMsn_NtCs5iQXrcGAeg9_15gungraun_runner3apiNtB6_11RawToolArgs3newReAB13_j1_EB8_
FNDA:0,_RINvNtCs5iQXrcGAeg9_15gungraun_runner3api13update_optionINtNtCslNYArtu3iFV_5alloc3vec3VecNtNtBX_6string6StringEEB4_
FNDA:0,_RINvNtCs5iQXrcGAeg9_15gungraun_runner3api13update_optionNtB2_10EntryPointEB4_
FNDA:0,_RINvNtCs5iQXrcGAeg9_15gungraun_runner3api13update_optionNtB2_12OutputFormatEB4_
FNDA:0,_RINvNtCs5iQXrcGAeg9_15gungraun_runner3api13update_optionNtB2_12ValgrindToolEB4_
FNDA:0,_RINvNtCs5iQXrcGAeg9_15gungraun_runner3api13update_optionNtB2_16ToolOutputFormatEB4_
FNDA:0,_RINvNtCs5iQXrcGAeg9_15gungraun_runner3api13update_optionNtB2_20ToolFlamegraphConfigEB4_
FNDA:0,_RINvNtCs5iQXrcGAeg9_15gungraun_runner3api13update_optionNtB2_20ToolRegressionConfigEB4_
FNDA:0,_RINvNtCs5iQXrcGAeg9_15gungraun_runner3api13update_optionNtB2_7SandboxEB4_
FNDA:0,_RINvNtCs5iQXrcGAeg9_15gungraun_runner3api13update_optionNtB2_8ExitWithEB4_
FNDA:0,_RINvNtCs5iQXrcGAeg9_15gungraun_runner3api13update_optionNtNtCsjrHSEGnQ3l9_3std4path7PathBufEB4_
FNDA:0,_RINvNtCs5iQXrcGAeg9_15gungraun_runner3api13update_optionbEB4_
FNDA:0,_RINvXso_NtCs5iQXrcGAeg9_15gungraun_runner3apiNtB6_11RawToolArgsINtNtNtNtCsgEmfK2I1SDS_4core4iter6traits7collect12FromIteratorNtNtCslNYArtu3iFV_5alloc6string6StringE9from_iterINtNtNtB16_8adapters3map3MapINtNtNtB18_5array4iter8IntoIterReKj1_ENvYB3J_INtNtB18_7convert4IntoB1Z_E4intoEEB8_
FNDA:4,_RINvXso_NtCs5iQXrcGAeg9_15gungraun_runner3apiNtB6_11RawToolArgsINtNtNtNtCsgEmfK2I1SDS_4core4iter6traits7collect12FromIteratorNtNtCslNYArtu3iFV_5alloc6string6StringE9from_iterINtNtNtB16_8adapters3map3MapINtNtNtB23_3vec9into_iter8IntoIterB1Z_ENvYB1Z_INtNtB18_7convert4IntoB1Z_E4intoEEB8_
FNDA:5,_RNCINvMsn_NtCs5iQXrcGAeg9_15gungraun_runner3apiNtB8_11RawToolArgs18extend_ignore_flagNtNtCslNYArtu3iFV_5alloc6string6StringINtNtNtNtCsgEmfK2I1SDS_4core4iter8adapters3map3MapINtNtNtB1p_3vec9into_iter8IntoIterB1l_ENvYB1l_INtNtB26_7convert4IntoB1l_E4intoEE0Ba_
FNDA:5,_RNCINvMsn_NtCs5iQXrcGAeg9_15gungraun_runner3apiNtB8_11RawToolArgs18extend_ignore_flagNtNtCslNYArtu3iFV_5alloc6string6StringINtNtNtNtCsgEmfK2I1SDS_4core4iter8adapters3map3MapINtNtNtB1p_3vec9into_iter8IntoIterB1l_ENvYB1l_INtNtB26_7convert4IntoB1l_E4intoEEs_0Ba_
FNDA:0,_RNCINvMsn_NtCs5iQXrcGAeg9_15gungraun_runner3apiNtB8_11RawToolArgs18extend_ignore_flagNtNtCslNYArtu3iFV_5alloc6string6StringINtNtNtNtCsgEmfK2I1SDS_4core4iter8adapters3map3MapINtNtNtB26_5array4iter8IntoIterReKj1_ENvYB3g_INtNtB26_7convert4IntoB1l_E4intoEE0Ba_
FNDA:0,_RNCINvMsn_NtCs5iQXrcGAeg9_15gungraun_runner3apiNtB8_11RawToolArgs18extend_ignore_flagNtNtCslNYArtu3iFV_5alloc6string6StringINtNtNtNtCsgEmfK2I1SDS_4core4iter8adapters3map3MapINtNtNtB26_5array4iter8IntoIterReKj1_ENvYB3g_INtNtB26_7convert4IntoB1l_E4intoEEs_0Ba_
FNDA:6,_RNCINvMsn_NtCs5iQXrcGAeg9_15gungraun_runner3apiNtB8_11RawToolArgs18extend_ignore_flagRNtNtCslNYArtu3iFV_5alloc6string6StringINtNtNtCsgEmfK2I1SDS_4core5slice4iter4IterB1m_EE0Ba_
FNDA:6,_RNCINvMsn_NtCs5iQXrcGAeg9_15gungraun_runner3apiNtB8_11RawToolArgs18extend_ignore_flagRNtNtCslNYArtu3iFV_5alloc6string6StringINtNtNtCsgEmfK2I1SDS_4core5slice4iter4IterB1m_EEs_0Ba_
FNDA:0,_RNCINvMsn_NtCs5iQXrcGAeg9_15gungraun_runner3apiNtB8_11RawToolArgs18extend_ignore_flagRNtNtCslNYArtu3iFV_5alloc6string6StringRAB1m_j1_E0Ba_
FNDA:0,_RNCINvMsn_NtCs5iQXrcGAeg9_15gungraun_runner3apiNtB8_11RawToolArgs18extend_ignore_flagRNtNtCslNYArtu3iFV_5alloc6string6StringRAB1m_j1_Es_0Ba_
FNDA:0,_RNCINvNtCs5iQXrcGAeg9_15gungraun_runner3api13update_optionINtNtCslNYArtu3iFV_5alloc3vec3VecNtNtBZ_6string6StringEE0B6_
FNDA:0,_RNCINvNtCs5iQXrcGAeg9_15gungraun_runner3api13update_optionNtB4_10EntryPointE0B6_
FNDA:0,_RNCINvNtCs5iQXrcGAeg9_15gungraun_runner3api13update_optionNtB4_12OutputFormatE0B6_
FNDA:0,_RNCINvNtCs5iQXrcGAeg9_15gungraun_runner3api13update_optionNtB4_12ValgrindToolE0B6_
FNDA:0,_RNCINvNtCs5iQXrcGAeg9_15gungraun_runner3api13update_optionNtB4_16ToolOutputFormatE0B6_
FNDA:0,_RNCINvNtCs5iQXrcGAeg9_15gungraun_runner3api13update_optionNtB4_20ToolFlamegraphConfigE0B6_
FNDA:0,_RNCINvNtCs5iQXrcGAeg9_15gungraun_runner3api13update_optionNtB4_20ToolRegressionConfigE0B6_
FNDA:0,_RNCINvNtCs5iQXrcGAeg9_15gungraun_runner3api13update_optionNtB4_7SandboxE0B6_
FNDA:0,_RNCINvNtCs5iQXrcGAeg9_15gungraun_runner3api13update_optionNtB4_8ExitWithE0B6_
FNDA:0,_RNCINvNtCs5iQXrcGAeg9_15gungraun_runner3api13update_optionNtNtCsjrHSEGnQ3l9_3std4path7PathBufE0B6_
FNDA:0,_RNCINvNtCs5iQXrcGAeg9_15gungraun_runner3api13update_optionbE0B6_
FNDA:0,_RNCNCNvMNtCs5iQXrcGAeg9_15gungraun_runner3apiNtB6_21BinaryBenchmarkConfig12collect_envs00B8_
FNDA:0,_RNCNCNvMsj_NtCs5iQXrcGAeg9_15gungraun_runner3apiNtB9_22LibraryBenchmarkConfig12collect_envs00Bb_
FNDA:0,_RNCNvMNtCs5iQXrcGAeg9_15gungraun_runner3apiNtB4_21BinaryBenchmarkConfig12collect_envs0B6_
FNDA:0,_RNCNvMsA_NtCs5iQXrcGAeg9_15gungraun_runner3apiNtB7_5Tools6update0B9_
FNDA:1,_RNCNvMsA_NtCs5iQXrcGAeg9_15gungraun_runner3apiNtB7_5Tools7consume0B9_
FNDA:0,_RNCNvMsA_NtCs5iQXrcGAeg9_15gungraun_runner3apiNtB7_5Tools7consumes_0B9_
FNDA:0,_RNCNvMsj_NtCs5iQXrcGAeg9_15gungraun_runner3apiNtB7_22LibraryBenchmarkConfig12collect_envs0B9_
FNDA:0,_RNCNvMsp_NtCs5iQXrcGAeg9_15gungraun_runner3apiNtB7_5Stdin5apply0B9_
FNDA:0,_RNCNvMsp_NtCs5iQXrcGAeg9_15gungraun_runner3apiNtB7_5Stdin5applys_0B9_
FNDA:0,_RNCNvMsu_NtCs5iQXrcGAeg9_15gungraun_runner3apiNtB7_5Stdio5apply0B9_
FNDA:0,_RNCNvMsu_NtCs5iQXrcGAeg9_15gungraun_runner3apiNtB7_5Stdio5applys_0B9_
FNDA:0,_RNvMNtCs5iQXrcGAeg9_15gungraun_runner3apiNtB2_21BinaryBenchmarkConfig12collect_envs
FNDA:0,_RNvMNtCs5iQXrcGAeg9_15gungraun_runner3apiNtB2_21BinaryBenchmarkConfig12resolve_envs
FNDA:0,_RNvMsA_NtCs5iQXrcGAeg9_15gungraun_runner3apiNtB5_5Tools17update_from_other
FNDA:0,_RNvMsA_NtCs5iQXrcGAeg9_15gungraun_runner3apiNtB5_5Tools6update
FNDA:3,_RNvMsA_NtCs5iQXrcGAeg9_15gungraun_runner3apiNtB5_5Tools7consume
FNDA:0,_RNvMsA_NtCs5iQXrcGAeg9_15gungraun_runner3apiNtB5_5Tools8is_empty
FNDA:6,_RNvMsB_NtCs5iQXrcGAeg9_15gungraun_runner3apiNtB5_12ValgrindTool14has_xleak_file
FNDA:6,_RNvMsB_NtCs5iQXrcGAeg9_15gungraun_runner3apiNtB5_12ValgrindTool14has_xtree_file
FNDA:6,_RNvMsB_NtCs5iQXrcGAeg9_15gungraun_runner3apiNtB5_12ValgrindTool15has_output_file
FNDA:310,_RNvMsB_NtCs5iQXrcGAeg9_15gungraun_runner3apiNtB5_12ValgrindTool2id
FNDA:0,_RNvMs_NtCs5iQXrcGAeg9_15gungraun_runner3apiNtB4_16CachegrindMetric10is_derived
FNDA:0,_RNvMs_NtCs5iQXrcGAeg9_15gungraun_runner3apiNtB4_16CachegrindMetric7to_name
FNDA:0,_RNvMsc_NtCs5iQXrcGAeg9_15gungraun_runner3apiNtB5_9EventKind10is_derived
FNDA:0,_RNvMsc_NtCs5iQXrcGAeg9_15gungraun_runner3apiNtB5_9EventKind7to_name
FNDA:0,_RNvMsj_NtCs5iQXrcGAeg9_15gungraun_runner3apiNtB5_22LibraryBenchmarkConfig12collect_envs
FNDA:0,_RNvMsj_NtCs5iQXrcGAeg9_15gungraun_runner3apiNtB5_22LibraryBenchmarkConfig12resolve_envs
FNDA:10,_RNvMsn_NtCs5iQXrcGAeg9_15gungraun_runner3apiNtB5_11RawToolArgs6update
FNDA:0,_RNvMsn_NtCs5iQXrcGAeg9_15gungraun_runner3apiNtB5_11RawToolArgs7prepend
FNDA:4,_RNvMsn_NtCs5iQXrcGAeg9_15gungraun_runner3apiNtB5_11RawToolArgs8as_slice
FNDA:0,_RNvMsn_NtCs5iQXrcGAeg9_15gungraun_runner3apiNtB5_11RawToolArgs8is_empty
FNDA:0,_RNvMsp_NtCs5iQXrcGAeg9_15gungraun_runner3apiNtB5_5Stdin5apply
FNDA:0,_RNvMsu_NtCs5iQXrcGAeg9_15gungraun_runner3apiNtB5_5Stdio5apply
FNDA:1,_RNvMsz_NtCs5iQXrcGAeg9_15gungraun_runner3apiNtB5_4Tool3new
FNDA:0,_RNvMsz_NtCs5iQXrcGAeg9_15gungraun_runner3apiNtB5_4Tool6update
FNDA:0,_RNvXs0_NtCs5iQXrcGAeg9_15gungraun_runner3apiNtB5_16CachegrindMetricNtNtCsgEmfK2I1SDS_4core3fmt7Display3fmt
FNDA:0,_RNvXs1_NtCs5iQXrcGAeg9_15gungraun_runner3apiNtB5_16CachegrindMetricNtNtNtB7_6runner7metrics11TypeChecker6is_int
FNDA:0,_RNvXs1_NtCs5iQXrcGAeg9_15gungraun_runner3apiNtB5_16CachegrindMetricNtNtNtB7_6runner7metrics11TypeChecker8is_float
FNDA:0,_RNvXs2_NtCs5iQXrcGAeg9_15gungraun_runner3apiNtB5_17CachegrindMetricsINtNtCsgEmfK2I1SDS_4core7convert4FromNtB5_16CachegrindMetricE4from
FNDA:0,_RNvXs3_NtCs5iQXrcGAeg9_15gungraun_runner3apiNtB5_16CallgrindMetricsINtNtCsgEmfK2I1SDS_4core7convert4FromNtB5_9EventKindE4from
FNDA:0,_RNvXs4_NtCs5iQXrcGAeg9_15gungraun_runner3apiNtB5_9DelayKindNtNtCsgEmfK2I1SDS_4core7default7Default7default
FNDA:0,_RNvXs5_NtCs5iQXrcGAeg9_15gungraun_runner3apiNtB5_10DhatMetricNtNtCsgEmfK2I1SDS_4core3fmt7Display3fmt
FNDA:0,_RNvXs5a_NtCs5iQXrcGAeg9_15gungraun_runner3apiNtB6_16CachegrindMetricNtNtNtCsgEmfK2I1SDS_4core3str6traits7FromStr8from_str
FNDA:0,_RNvXs5b_NtCs5iQXrcGAeg9_15gungraun_runner3apiNtB6_17CachegrindMetricsNtNtNtCsgEmfK2I1SDS_4core3str6traits7FromStr8from_str
FNDA:0,_RNvXs5c_NtCs5iQXrcGAeg9_15gungraun_runner3apiNtB6_16CallgrindMetricsNtNtNtCsgEmfK2I1SDS_4core3str6traits7FromStr8from_str
FNDA:0,_RNvXs5d_NtCs5iQXrcGAeg9_15gungraun_runner3apiNtB6_10DhatMetricNtNtNtCsgEmfK2I1SDS_4core3str6traits7FromStr8from_str
FNDA:0,_RNvXs5e_NtCs5iQXrcGAeg9_15gungraun_runner3apiNtB6_11DhatMetricsNtNtNtCsgEmfK2I1SDS_4core3str6traits7FromStr8from_str
FNDA:0,_RNvXs5f_NtCs5iQXrcGAeg9_15gungraun_runner3apiNtB6_11ErrorMetricNtNtNtCsgEmfK2I1SDS_4core3str6traits7FromStr8from_str
FNDA:99,_RNvXs5g_NtCs5iQXrcGAeg9_15gungraun_runner3apiNtB6_9EventKindNtNtNtCsgEmfK2I1SDS_4core3str6traits7FromStr8from_str
FNDA:0,_RNvXs7_NtCs5iQXrcGAeg9_15gungraun_runner3apiNtB5_10DhatMetricNtNtNtB7_6runner7metrics11TypeChecker6is_int
FNDA:0,_RNvXs7_NtCs5iQXrcGAeg9_15gungraun_runner3apiNtB5_10DhatMetricNtNtNtB7_6runner7metrics11TypeChecker8is_float
FNDA:0,_RNvXs8_NtCs5iQXrcGAeg9_15gungraun_runner3apiNtB5_11DhatMetricsINtNtCsgEmfK2I1SDS_4core7convert4FromNtB5_10DhatMetricE4from
FNDA:19,_RNvXsC_NtCs5iQXrcGAeg9_15gungraun_runner3apiNtB5_12ValgrindToolNtNtCsgEmfK2I1SDS_4core3fmt7Display3fmt
FNDA:0,_RNvXsD_NtCs5iQXrcGAeg9_15gungraun_runner3apiNtB5_12ValgrindToolNtNtNtCsgEmfK2I1SDS_4core3str6traits7FromStr8from_str
FNDA:0,_RNvXsE_NtCs5iQXrcGAeg9_15gungraun_runner3apiNtB5_12ValgrindToolINtNtCsgEmfK2I1SDS_4core7convert7TryFromReE8try_from
FNDA:0,_RNvXsa_NtCs5iQXrcGAeg9_15gungraun_runner3apiNtB5_11ErrorMetricNtNtCsgEmfK2I1SDS_4core3fmt7Display3fmt
FNDA:0,_RNvXsd_NtCs5iQXrcGAeg9_15gungraun_runner3apiNtB5_9EventKindNtNtCsgEmfK2I1SDS_4core3fmt7Display3fmt
FNDA:0,_RNvXse_NtCs5iQXrcGAeg9_15gungraun_runner3apiNtB5_9EventKindINtNtCsgEmfK2I1SDS_4core7convert4FromNtB5_16CachegrindMetricE4from
FNDA:0,_RNvXsf_NtCs5iQXrcGAeg9_15gungraun_runner3apiNtB5_9EventKindNtNtNtB7_6runner7metrics11TypeChecker6is_int
FNDA:0,_RNvXsf_NtCs5iQXrcGAeg9_15gungraun_runner3apiNtB5_9EventKindNtNtNtB7_6runner7metrics11TypeChecker8is_float
FNDA:0,_RNvXsk_NtCs5iQXrcGAeg9_15gungraun_runner3apiNtB5_5LimitINtNtCsgEmfK2I1SDS_4core7convert4FromNtNtNtB7_6runner7metrics6MetricE4from
FNDA:0,_RNvXsl_NtCs5iQXrcGAeg9_15gungraun_runner3apiNtB5_5LimitINtNtCsgEmfK2I1SDS_4core7convert4FromdE4from
FNDA:0,_RNvXsm_NtCs5iQXrcGAeg9_15gungraun_runner3apiNtB5_5LimitINtNtCsgEmfK2I1SDS_4core7convert4FromyE4from
FNDA:0,_RNvXsq_NtCs5iQXrcGAeg9_15gungraun_runner3apiNtB5_5StdinINtNtCsgEmfK2I1SDS_4core7convert4FromNtB5_5StdioE4from
FNDA:0,_RNvXsr_NtCs5iQXrcGAeg9_15gungraun_runner3apiNtB5_5StdinINtNtCsgEmfK2I1SDS_4core7convert4FromNtNtCsjrHSEGnQ3l9_3std4path7PathBufE4from
FNDA:0,_RNvXss_NtCs5iQXrcGAeg9_15gungraun_runner3apiNtB5_5StdinINtNtCsgEmfK2I1SDS_4core7convert4FromRNtNtCsjrHSEGnQ3l9_3std4path7PathBufE4from
FNDA:0,_RNvXst_NtCs5iQXrcGAeg9_15gungraun_runner3apiNtB5_5StdinINtNtCsgEmfK2I1SDS_4core7convert4FromRNtNtCsjrHSEGnQ3l9_3std4path4PathE4from
FNDA:0,_RNvXsv_NtCs5iQXrcGAeg9_15gungraun_runner3apiNtB5_5StdioINtNtCsgEmfK2I1SDS_4core7convert4FromNtNtCsjrHSEGnQ3l9_3std4path7PathBufE4from
FNDA:0,_RNvXsw_NtCs5iQXrcGAeg9_15gungraun_runner3apiNtB5_5StdioINtNtCsgEmfK2I1SDS_4core7convert4FromRNtNtCsjrHSEGnQ3l9_3std4path7PathBufE4from
FNDA:0,_RNvXsx_NtCs5iQXrcGAeg9_15gungraun_runner3apiNtB5_5StdioINtNtCsgEmfK2I1SDS_4core7convert4FromRNtNtCsjrHSEGnQ3l9_3std4path4PathE4from
FNDA:0,_RNvXsy_NtCs5iQXrcGAeg9_15gungraun_runner3apiNtB5_6StreamNtNtCsgEmfK2I1SDS_4core3fmt7Display3fmt
FNDA:0,_RINvMsc_NtCs7FrVS94ALx1_15gungraun_runner3apiNtB6_11RawToolArgs18extend_ignore_flagRNtNtCslNYArtu3iFV_5alloc6string6StringINtNtNtCsgEmfK2I1SDS_4core5slice4iter4IterB1k_EEB8_
FNDA:0,_RINvMso_NtCs7FrVS94ALx1_15gungraun_runner3apiNtB6_5Tools10update_allINtNtNtNtCsgEmfK2I1SDS_4core4iter8adapters6cloned6ClonedINtNtNtB1d_5slice4iter4IterNtB6_4ToolEEEB8_
FNDA:0,_RINvNtCs7FrVS94ALx1_15gungraun_runner3api13update_optionINtNtCslNYArtu3iFV_5alloc3vec3VecNtNtBX_6string6StringEEB4_
FNDA:0,_RINvNtCs7FrVS94ALx1_15gungraun_runner3api13update_optionNtB2_10EntryPointEB4_
FNDA:0,_RINvNtCs7FrVS94ALx1_15gungraun_runner3api13update_optionNtB2_16ToolOutputFormatEB4_
FNDA:0,_RINvNtCs7FrVS94ALx1_15gungraun_runner3api13update_optionNtB2_20ToolFlamegraphConfigEB4_
FNDA:0,_RINvNtCs7FrVS94ALx1_15gungraun_runner3api13update_optionNtB2_20ToolRegressionConfigEB4_
FNDA:0,_RINvNtCs7FrVS94ALx1_15gungraun_runner3api13update_optionbEB4_
FNDA:0,_RNCINvMsc_NtCs7FrVS94ALx1_15gungraun_runner3apiNtB8_11RawToolArgs18extend_ignore_flagRNtNtCslNYArtu3iFV_5alloc6string6StringINtNtNtCsgEmfK2I1SDS_4core5slice4iter4IterB1m_EE0Ba_
FNDA:0,_RNCINvMsc_NtCs7FrVS94ALx1_15gungraun_runner3apiNtB8_11RawToolArgs18extend_ignore_flagRNtNtCslNYArtu3iFV_5alloc6string6StringINtNtNtCsgEmfK2I1SDS_4core5slice4iter4IterB1m_EEs_0Ba_
FNDA:0,_RNCINvNtCs7FrVS94ALx1_15gungraun_runner3api13update_optionINtNtCslNYArtu3iFV_5alloc3vec3VecNtNtBZ_6string6StringEE0B6_
FNDA:0,_RNCINvNtCs7FrVS94ALx1_15gungraun_runner3api13update_optionNtB4_10EntryPointE0B6_
FNDA:0,_RNCINvNtCs7FrVS94ALx1_15gungraun_runner3api13update_optionNtB4_16ToolOutputFormatE0B6_
FNDA:0,_RNCINvNtCs7FrVS94ALx1_15gungraun_runner3api13update_optionNtB4_20ToolFlamegraphConfigE0B6_
FNDA:0,_RNCINvNtCs7FrVS94ALx1_15gungraun_runner3api13update_optionNtB4_20ToolRegressionConfigE0B6_
FNDA:0,_RNCINvNtCs7FrVS94ALx1_15gungraun_runner3api13update_optionbE0B6_
FNDA:0,_RNCNvMso_NtCs7FrVS94ALx1_15gungraun_runner3apiNtB7_5Tools6update0B9_
FNDA:0,_RNCNvMso_NtCs7FrVS94ALx1_15gungraun_runner3apiNtB7_5Tools7consume0B9_
FNDA:0,_RNCNvMso_NtCs7FrVS94ALx1_15gungraun_runner3apiNtB7_5Tools7consumes_0B9_
FNDA:0,_RNvMNtCs7FrVS94ALx1_15gungraun_runner3apiNtB2_16CachegrindMetric10is_derived
FNDA:0,_RNvMNtCs7FrVS94ALx1_15gungraun_runner3apiNtB2_16CachegrindMetric7to_name
FNDA:0,_RNvMs7_NtCs7FrVS94ALx1_15gungraun_runner3apiNtB5_9EventKind10is_derived
FNDA:0,_RNvMs7_NtCs7FrVS94ALx1_15gungraun_runner3apiNtB5_9EventKind7to_name
FNDA:0,_RNvMsc_NtCs7FrVS94ALx1_15gungraun_runner3apiNtB5_11RawToolArgs6update
FNDA:0,_RNvMsc_NtCs7FrVS94ALx1_15gungraun_runner3apiNtB5_11RawToolArgs7prepend
FNDA:0,_RNvMsc_NtCs7FrVS94ALx1_15gungraun_runner3apiNtB5_11RawToolArgs8as_slice
FNDA:0,_RNvMsc_NtCs7FrVS94ALx1_15gungraun_runner3apiNtB5_11RawToolArgs8is_empty
FNDA:0,_RNvMsn_NtCs7FrVS94ALx1_15gungraun_runner3apiNtB5_4Tool3new
FNDA:0,_RNvMsn_NtCs7FrVS94ALx1_15gungraun_runner3apiNtB5_4Tool6update
FNDA:0,_RNvMso_NtCs7FrVS94ALx1_15gungraun_runner3apiNtB5_5Tools17update_from_other
FNDA:0,_RNvMso_NtCs7FrVS94ALx1_15gungraun_runner3apiNtB5_5Tools6update
FNDA:0,_RNvMso_NtCs7FrVS94ALx1_15gungraun_runner3apiNtB5_5Tools7consume
FNDA:0,_RNvMso_NtCs7FrVS94ALx1_15gungraun_runner3apiNtB5_5Tools8is_empty
FNDA:0,_RNvMsp_NtCs7FrVS94ALx1_15gungraun_runner3apiNtB5_12ValgrindTool14has_xleak_file
FNDA:0,_RNvMsp_NtCs7FrVS94ALx1_15gungraun_runner3apiNtB5_12ValgrindTool14has_xtree_file
FNDA:0,_RNvMsp_NtCs7FrVS94ALx1_15gungraun_runner3apiNtB5_12ValgrindTool15has_output_file
FNDA:0,_RNvMsp_NtCs7FrVS94ALx1_15gungraun_runner3apiNtB5_12ValgrindTool2id
FNDA:0,_RNvXs0_NtCs7FrVS94ALx1_15gungraun_runner3apiNtB5_17CachegrindMetricsINtNtCsgEmfK2I1SDS_4core7convert4FromNtB5_16CachegrindMetricE4from
FNDA:0,_RNvXs1_NtCs7FrVS94ALx1_15gungraun_runner3apiNtB5_16CallgrindMetricsINtNtCsgEmfK2I1SDS_4core7convert4FromNtB5_9EventKindE4from
FNDA:0,_RNvXs2_NtCs7FrVS94ALx1_15gungraun_runner3apiNtB5_9DelayKindNtNtCsgEmfK2I1SDS_4core7default7Default7default
FNDA:0,_RNvXs3_NtCs7FrVS94ALx1_15gungraun_runner3apiNtB5_10DhatMetricNtNtCsgEmfK2I1SDS_4core3fmt7Display3fmt
FNDA:0,_RNvXs4_NtCs7FrVS94ALx1_15gungraun_runner3apiNtB5_11DhatMetricsINtNtCsgEmfK2I1SDS_4core7convert4FromNtB5_10DhatMetricE4from
FNDA:0,_RNvXs6_NtCs7FrVS94ALx1_15gungraun_runner3apiNtB5_11ErrorMetricNtNtCsgEmfK2I1SDS_4core3fmt7Display3fmt
FNDA:0,_RNvXs8_NtCs7FrVS94ALx1_15gungraun_runner3apiNtB5_9EventKindNtNtCsgEmfK2I1SDS_4core3fmt7Display3fmt
FNDA:0,_RNvXs9_NtCs7FrVS94ALx1_15gungraun_runner3apiNtB5_9EventKindINtNtCsgEmfK2I1SDS_4core7convert4FromNtB5_16CachegrindMetricE4from
FNDA:0,_RNvXs_NtCs7FrVS94ALx1_15gungraun_runner3apiNtB4_16CachegrindMetricNtNtCsgEmfK2I1SDS_4core3fmt7Display3fmt
FNDA:0,_RNvXsa_NtCs7FrVS94ALx1_15gungraun_runner3apiNtB5_5LimitINtNtCsgEmfK2I1SDS_4core7convert4FromdE4from
FNDA:0,_RNvXsb_NtCs7FrVS94ALx1_15gungraun_runner3apiNtB5_5LimitINtNtCsgEmfK2I1SDS_4core7convert4FromyE4from
FNDA:0,_RNvXsf_NtCs7FrVS94ALx1_15gungraun_runner3apiNtB5_5StdinINtNtCsgEmfK2I1SDS_4core7convert4FromNtB5_5StdioE4from
FNDA:0,_RNvXsg_NtCs7FrVS94ALx1_15gungraun_runner3apiNtB5_5StdinINtNtCsgEmfK2I1SDS_4core7convert4FromNtNtCsjrHSEGnQ3l9_3std4path7PathBufE4from
FNDA:0,_RNvXsh_NtCs7FrVS94ALx1_15gungraun_runner3apiNtB5_5StdinINtNtCsgEmfK2I1SDS_4core7convert4FromRNtNtCsjrHSEGnQ3l9_3std4path7PathBufE4from
FNDA:0,_RNvXsi_NtCs7FrVS94ALx1_15gungraun_runner3apiNtB5_5StdinINtNtCsgEmfK2I1SDS_4core7convert4FromRNtNtCsjrHSEGnQ3l9_3std4path4PathE4from
FNDA:0,_RNvXsk_NtCs7FrVS94ALx1_15gungraun_runner3apiNtB5_5StdioINtNtCsgEmfK2I1SDS_4core7convert4FromNtNtCsjrHSEGnQ3l9_3std4path7PathBufE4from
FNDA:0,_RNvXsl_NtCs7FrVS94ALx1_15gungraun_runner3apiNtB5_5StdioINtNtCsgEmfK2I1SDS_4core7convert4FromRNtNtCsjrHSEGnQ3l9_3std4path7PathBufE4from
FNDA:0,_RNvXsm_NtCs7FrVS94ALx1_15gungraun_runner3apiNtB5_5StdioINtNtCsgEmfK2I1SDS_4core7convert4FromRNtNtCsjrHSEGnQ3l9_3std4path4PathE4from
FNDA:0,_RNvXsq_NtCs7FrVS94ALx1_15gungraun_runner3apiNtB5_12ValgrindToolNtNtCsgEmfK2I1SDS_4core3fmt7Display3fmt
FNDA:0,_RINvMNtCs34FkZ5Aug64_15gungraun_runner3apiNtB3_21BinaryBenchmarkConfig15update_from_allpEB5_
FNDA:0,_RINvMsz_NtCs34FkZ5Aug64_15gungraun_runner3apiNtB6_4Tool9with_argsppEB8_
FNDA:0,_RNCNCNvMNtCs34FkZ5Aug64_15gungraun_runner3apiNtB6_21BinaryBenchmarkConfig12collect_envs00B8_
FNDA:0,_RNCNCNvMsj_NtCs34FkZ5Aug64_15gungraun_runner3apiNtB9_22LibraryBenchmarkConfig12collect_envs00Bb_
FNDA:0,_RNCNvMNtCs34FkZ5Aug64_15gungraun_runner3apiNtB4_21BinaryBenchmarkConfig12collect_envs0B6_
FNDA:0,_RNCNvMsj_NtCs34FkZ5Aug64_15gungraun_runner3apiNtB7_22LibraryBenchmarkConfig12collect_envs0B9_
FNDA:0,_RNCNvMsp_NtCs34FkZ5Aug64_15gungraun_runner3apiNtB7_5Stdin5apply0B9_
FNDA:0,_RNCNvMsp_NtCs34FkZ5Aug64_15gungraun_runner3apiNtB7_5Stdin5applys_0B9_
FNDA:0,_RNCNvMsu_NtCs34FkZ5Aug64_15gungraun_runner3apiNtB7_5Stdio5apply0B9_
FNDA:0,_RNCNvMsu_NtCs34FkZ5Aug64_15gungraun_runner3apiNtB7_5Stdio5applys_0B9_
FNDA:0,_RNvMNtCs34FkZ5Aug64_15gungraun_runner3apiNtB2_21BinaryBenchmarkConfig12collect_envs
FNDA:0,_RNvMNtCs34FkZ5Aug64_15gungraun_runner3apiNtB2_21BinaryBenchmarkConfig12resolve_envs
FNDA:0,_RNvMsB_NtCs34FkZ5Aug64_15gungraun_runner3apiNtB5_12ValgrindTool14has_xleak_file
FNDA:0,_RNvMsB_NtCs34FkZ5Aug64_15gungraun_runner3apiNtB5_12ValgrindTool14has_xtree_file
FNDA:0,_RNvMsB_NtCs34FkZ5Aug64_15gungraun_runner3apiNtB5_12ValgrindTool15has_output_file
FNDA:0,_RNvMs_NtCs34FkZ5Aug64_15gungraun_runner3apiNtB4_16CachegrindMetric10is_derived
FNDA:0,_RNvMs_NtCs34FkZ5Aug64_15gungraun_runner3apiNtB4_16CachegrindMetric7to_name
FNDA:0,_RNvMsc_NtCs34FkZ5Aug64_15gungraun_runner3apiNtB5_9EventKind10is_derived
FNDA:0,_RNvMsc_NtCs34FkZ5Aug64_15gungraun_runner3apiNtB5_9EventKind7to_name
FNDA:0,_RNvMsj_NtCs34FkZ5Aug64_15gungraun_runner3apiNtB5_22LibraryBenchmarkConfig12collect_envs
FNDA:0,_RNvMsp_NtCs34FkZ5Aug64_15gungraun_runner3apiNtB5_5Stdin5apply
FNDA:0,_RNvMsu_NtCs34FkZ5Aug64_15gungraun_runner3apiNtB5_5Stdio5apply
FNDA:0,_RNvXININtCs34FkZ5Aug64_15gungraun_runner3apis9_0pENtB5_10EntryPointINtNtCsgEmfK2I1SDS_4core7convert4FrompE4fromB7_
FNDA:0,_RNvXs2_NtCs34FkZ5Aug64_15gungraun_runner3apiNtB5_17CachegrindMetricsINtNtCsgEmfK2I1SDS_4core7convert4FromNtB5_16CachegrindMetricE4from
FNDA:0,_RNvXs4_NtCs34FkZ5Aug64_15gungraun_runner3apiNtB5_9DelayKindNtNtCsgEmfK2I1SDS_4core7default7Default7default
FNDA:0,_RNvXs8_NtCs34FkZ5Aug64_15gungraun_runner3apiNtB5_11DhatMetricsINtNtCsgEmfK2I1SDS_4core7convert4FromNtB5_10DhatMetricE4from
FNDA:0,_RNvXsa_NtCs34FkZ5Aug64_15gungraun_runner3apiNtB5_11ErrorMetricNtNtCsgEmfK2I1SDS_4core3fmt7Display3fmt
FNDA:0,_RNvXsk_NtCs34FkZ5Aug64_15gungraun_runner3apiNtB5_5LimitINtNtCsgEmfK2I1SDS_4core7convert4FromNtNtNtB7_6runner7metrics6MetricE4from
FNDA:0,_RNvXsq_NtCs34FkZ5Aug64_15gungraun_runner3apiNtB5_5StdinINtNtCsgEmfK2I1SDS_4core7convert4FromNtB5_5StdioE4from
FNDA:0,_RNvXsr_NtCs34FkZ5Aug64_15gungraun_runner3apiNtB5_5StdinINtNtCsgEmfK2I1SDS_4core7convert4FromNtNtCsjrHSEGnQ3l9_3std4path7PathBufE4from
FNDA:0,_RNvXss_NtCs34FkZ5Aug64_15gungraun_runner3apiNtB5_5StdinINtNtCsgEmfK2I1SDS_4core7convert4FromRNtNtCsjrHSEGnQ3l9_3std4path7PathBufE4from
FNDA:0,_RNvXst_NtCs34FkZ5Aug64_15gungraun_runner3apiNtB5_5StdinINtNtCsgEmfK2I1SDS_4core7convert4FromRNtNtCsjrHSEGnQ3l9_3std4path4PathE4from
FNDA:0,_RNvXsv_NtCs34FkZ5Aug64_15gungraun_runner3apiNtB5_5StdioINtNtCsgEmfK2I1SDS_4core7convert4FromNtNtCsjrHSEGnQ3l9_3std4path7PathBufE4from
FNDA:0,_RNvXsw_NtCs34FkZ5Aug64_15gungraun_runner3apiNtB5_5StdioINtNtCsgEmfK2I1SDS_4core7convert4FromRNtNtCsjrHSEGnQ3l9_3std4path7PathBufE4from
FNDA:0,_RNvXsx_NtCs34FkZ5Aug64_15gungraun_runner3apiNtB5_5StdioINtNtCsgEmfK2I1SDS_4core7convert4FromRNtNtCsjrHSEGnQ3l9_3std4path4PathE4from
FNDA:0,_RNvXsy_NtCs34FkZ5Aug64_15gungraun_runner3apiNtB5_6StreamNtNtCsgEmfK2I1SDS_4core3fmt7Display3fmt
FNDA:197,_RNvXsg_NtCs34FkZ5Aug64_15gungraun_runner3apiINtNtCs2Htibuv8RQm_8indexmap3set8IndexSetNtB5_16CachegrindMetricEINtNtCsgEmfK2I1SDS_4core7convert4FromNtB5_17CachegrindMetricsE4from
FNDA:63,_RNvXsh_NtCs34FkZ5Aug64_15gungraun_runner3apiINtNtCs2Htibuv8RQm_8indexmap3set8IndexSetNtB5_10DhatMetricEINtNtCsgEmfK2I1SDS_4core7convert4FromNtB5_11DhatMetricsE4from
FNDA:445,_RNvXsi_NtCs34FkZ5Aug64_15gungraun_runner3apiINtNtCs2Htibuv8RQm_8indexmap3set8IndexSetNtB5_9EventKindEINtNtCsgEmfK2I1SDS_4core7convert4FromNtB5_16CallgrindMetricsE4from
FNDA:1,_RNvNtNtCs34FkZ5Aug64_15gungraun_runner3api5testss_33test_tool_update_when_tools_match
FNDA:1,_RNvNtNtCs34FkZ5Aug64_15gungraun_runner3api5testss_36test_event_kind_from_str_ignore_case
FNDA:1,_RNvNtNtCs34FkZ5Aug64_15gungraun_runner3api5testss_37test_tool_update_when_tools_not_match
FNDA:1,_RNvNtNtCs34FkZ5Aug64_15gungraun_runner3api5testss_43test_cachegrind_metric_from_str_ignore_case
FNDA:1,_RNvNtNtCs34FkZ5Aug64_15gungraun_runner3api5testss_58test_library_benchmark_config_update_from_all_when_default
FNDA:1,_RNvNtNtCs34FkZ5Aug64_15gungraun_runner3api5testss_65test_library_benchmark_config_update_from_all_when_tools_override
FNDA:1,_RNvNtNtCs34FkZ5Aug64_15gungraun_runner3api5testss_68test_library_benchmark_config_update_from_all_when_no_tools_override
FNDA:1,_RNvMsA_NtCs34FkZ5Aug64_15gungraun_runner3apiNtB5_5Tools17update_from_other
FNDA:1,_RNvMsA_NtCs34FkZ5Aug64_15gungraun_runner3apiNtB5_5Tools6update
FNDA:1,_RNvMsA_NtCs34FkZ5Aug64_15gungraun_runner3apiNtB5_5Tools7consume
FNDA:3,_RNvMsA_NtCs34FkZ5Aug64_15gungraun_runner3apiNtB5_5Tools8is_empty
FNDA:35,_RNvMsB_NtCs34FkZ5Aug64_15gungraun_runner3apiNtB5_12ValgrindTool2id
FNDA:1,_RNvMsj_NtCs34FkZ5Aug64_15gungraun_runner3apiNtB5_22LibraryBenchmarkConfig12resolve_envs
FNDA:4,_RNvMsn_NtCs34FkZ5Aug64_15gungraun_runner3apiNtB5_11RawToolArgs6update
FNDA:5,_RNvMsn_NtCs34FkZ5Aug64_15gungraun_runner3apiNtB5_11RawToolArgs7prepend
FNDA:33,_RNvMsn_NtCs34FkZ5Aug64_15gungraun_runner3apiNtB5_11RawToolArgs8as_slice
FNDA:5,_RNvMsn_NtCs34FkZ5Aug64_15gungraun_runner3apiNtB5_11RawToolArgs8is_empty
FNDA:2,_RNvMsz_NtCs34FkZ5Aug64_15gungraun_runner3apiNtB5_4Tool3new
FNDA:2,_RNvMsz_NtCs34FkZ5Aug64_15gungraun_runner3apiNtB5_4Tool6update
FNDA:0,_RNvXs0_NtCs34FkZ5Aug64_15gungraun_runner3apiNtB5_16CachegrindMetricNtNtCsgEmfK2I1SDS_4core3fmt7Display3fmt
FNDA:0,_RNvXs1_NtCs34FkZ5Aug64_15gungraun_runner3apiNtB5_16CachegrindMetricNtNtNtB7_6runner7metrics11TypeChecker6is_int
FNDA:0,_RNvXs1_NtCs34FkZ5Aug64_15gungraun_runner3apiNtB5_16CachegrindMetricNtNtNtB7_6runner7metrics11TypeChecker8is_float
FNDA:14,_RNvXs3_NtCs34FkZ5Aug64_15gungraun_runner3apiNtB5_16CallgrindMetricsINtNtCsgEmfK2I1SDS_4core7convert4FromNtB5_9EventKindE4from
FNDA:0,_RNvXs5_NtCs34FkZ5Aug64_15gungraun_runner3apiNtB5_10DhatMetricNtNtCsgEmfK2I1SDS_4core3fmt7Display3fmt
FNDA:29,_RNvXs5a_NtCs34FkZ5Aug64_15gungraun_runner3apiNtB6_16CachegrindMetricNtNtNtCsgEmfK2I1SDS_4core3str6traits7FromStr8from_str
FNDA:5,_RNvXs5b_NtCs34FkZ5Aug64_15gungraun_runner3apiNtB6_17CachegrindMetricsNtNtNtCsgEmfK2I1SDS_4core3str6traits7FromStr8from_str
FNDA:41,_RNvXs5c_NtCs34FkZ5Aug64_15gungraun_runner3apiNtB6_16CallgrindMetricsNtNtNtCsgEmfK2I1SDS_4core3str6traits7FromStr8from_str
FNDA:3,_RNvXs5d_NtCs34FkZ5Aug64_15gungraun_runner3apiNtB6_10DhatMetricNtNtNtCsgEmfK2I1SDS_4core3str6traits7FromStr8from_str
FNDA:5,_RNvXs5e_NtCs34FkZ5Aug64_15gungraun_runner3apiNtB6_11DhatMetricsNtNtNtCsgEmfK2I1SDS_4core3str6traits7FromStr8from_str
FNDA:9,_RNvXs5f_NtCs34FkZ5Aug64_15gungraun_runner3apiNtB6_11ErrorMetricNtNtNtCsgEmfK2I1SDS_4core3str6traits7FromStr8from_str
FNDA:67,_RNvXs5g_NtCs34FkZ5Aug64_15gungraun_runner3apiNtB6_9EventKindNtNtNtCsgEmfK2I1SDS_4core3str6traits7FromStr8from_str
FNDA:0,_RNvXs7_NtCs34FkZ5Aug64_15gungraun_runner3apiNtB5_10DhatMetricNtNtNtB7_6runner7metrics11TypeChecker6is_int
FNDA:0,_RNvXs7_NtCs34FkZ5Aug64_15gungraun_runner3apiNtB5_10DhatMetricNtNtNtB7_6runner7metrics11TypeChecker8is_float
FNDA:0,_RNvXsC_NtCs34FkZ5Aug64_15gungraun_runner3apiNtB5_12ValgrindToolNtNtCsgEmfK2I1SDS_4core3fmt7Display3fmt
FNDA:3,_RNvXsD_NtCs34FkZ5Aug64_15gungraun_runner3apiNtB5_12ValgrindToolNtNtNtCsgEmfK2I1SDS_4core3str6traits7FromStr8from_str
FNDA:3,_RNvXsE_NtCs34FkZ5Aug64_15gungraun_runner3apiNtB5_12ValgrindToolINtNtCsgEmfK2I1SDS_4core7convert7TryFromReE8try_from
FNDA:94,_RNvXsd_NtCs34FkZ5Aug64_15gungraun_runner3apiNtB5_9EventKindNtNtCsgEmfK2I1SDS_4core3fmt7Display3fmt
FNDA:0,_RNvXse_NtCs34FkZ5Aug64_15gungraun_runner3apiNtB5_9EventKindINtNtCsgEmfK2I1SDS_4core7convert4FromNtB5_16CachegrindMetricE4from
FNDA:101,_RNvXsf_NtCs34FkZ5Aug64_15gungraun_runner3apiNtB5_9EventKindNtNtNtB7_6runner7metrics11TypeChecker6is_int
FNDA:24,_RNvXsf_NtCs34FkZ5Aug64_15gungraun_runner3apiNtB5_9EventKindNtNtNtB7_6runner7metrics11TypeChecker8is_float
FNDA:1,_RNvXsl_NtCs34FkZ5Aug64_15gungraun_runner3apiNtB5_5LimitINtNtCsgEmfK2I1SDS_4core7convert4FromdE4from
FNDA:11,_RNvXsm_NtCs34FkZ5Aug64_15gungraun_runner3apiNtB5_5LimitINtNtCsgEmfK2I1SDS_4core7convert4FromyE4from
FNDA:1,_RINvMsA_NtCs34FkZ5Aug64_15gungraun_runner3apiNtB6_5Tools10update_allINtNtNtNtCsgEmfK2I1SDS_4core4iter8adapters6cloned6ClonedINtNtNtB1d_5slice4iter4IterNtB6_4ToolEEEB8_
FNDA:4,_RINvMsj_NtCs34FkZ5Aug64_15gungraun_runner3apiNtB6_22LibraryBenchmarkConfig15update_from_allAINtNtCsgEmfK2I1SDS_4core6option6OptionRBH_Ej1_EB8_
FNDA:22,_RINvMsn_NtCs34FkZ5Aug64_15gungraun_runner3apiNtB6_11RawToolArgs18extend_ignore_flagNtNtCslNYArtu3iFV_5alloc6string6StringINtNtNtNtCsgEmfK2I1SDS_4core4iter8adapters3map3MapIB1W_INtNtNtB24_5slice4iter4IterReENvYB3f_NtNtB1n_6borrow7ToOwned8to_ownedENvYB3f_INtNtB24_7convert4IntoB1j_E4intoEEB8_
FNDA:16,_RINvMsn_NtCs34FkZ5Aug64_15gungraun_runner3apiNtB6_11RawToolArgs18extend_ignore_flagNtNtCslNYArtu3iFV_5alloc6string6StringINtNtNtNtCsgEmfK2I1SDS_4core4iter8adapters3map3MapINtNtNtB1n_3vec9into_iter8IntoIterB1j_ENvYB1j_INtNtB24_7convert4IntoB1j_E4intoEEB8_
FNDA:2,_RINvMsn_NtCs34FkZ5Aug64_15gungraun_runner3apiNtB6_11RawToolArgs18extend_ignore_flagNtNtCslNYArtu3iFV_5alloc6string6StringINtNtNtNtCsgEmfK2I1SDS_4core4iter8adapters3map3MapINtNtNtB24_5array4iter8IntoIterReKj1_ENvYB3e_INtNtB24_7convert4IntoB1j_E4intoEEB8_
FNDA:5,_RINvMsn_NtCs34FkZ5Aug64_15gungraun_runner3apiNtB6_11RawToolArgs18extend_ignore_flagNtNtCslNYArtu3iFV_5alloc6string6StringINtNtNtNtCsgEmfK2I1SDS_4core4iter8adapters3map3MapINtNtNtB24_5slice4iter4IterReENvYB3a_NtB1l_8ToString9to_stringEEB8_
FNDA:9,_RINvMsn_NtCs34FkZ5Aug64_15gungraun_runner3apiNtB6_11RawToolArgs18extend_ignore_flagRNtNtCslNYArtu3iFV_5alloc6string6StringINtNtNtCsgEmfK2I1SDS_4core5slice4iter4IterB1k_EEB8_
FNDA:1,_RINvMsn_NtCs34FkZ5Aug64_15gungraun_runner3apiNtB6_11RawToolArgs18extend_ignore_flagRNtNtCslNYArtu3iFV_5alloc6string6StringRAB1k_j1_EB8_
FNDA:37,_RINvMsn_NtCs34FkZ5Aug64_15gungraun_runner3apiNtB6_11RawToolArgs18extend_ignore_flagRReRSB1k_EB8_
FNDA:16,_RINvMsn_NtCs34FkZ5Aug64_15gungraun_runner3apiNtB6_11RawToolArgs3newNtNtCslNYArtu3iFV_5alloc6string6StringINtNtB17_3vec3VecB13_EEB8_
FNDA:2,_RINvMsn_NtCs34FkZ5Aug64_15gungraun_runner3apiNtB6_11RawToolArgs3newReAB13_j1_EB8_
FNDA:22,_RINvMsn_NtCs34FkZ5Aug64_15gungraun_runner3apiNtB6_11RawToolArgs3newReINtNtNtNtCsgEmfK2I1SDS_4core4iter8adapters3map3MapINtNtNtB1e_5slice4iter4IterB13_ENvYB13_NtNtCslNYArtu3iFV_5alloc6borrow7ToOwned8to_ownedEEB8_
FNDA:1,_RINvNtCs34FkZ5Aug64_15gungraun_runner3api13update_optionINtNtCslNYArtu3iFV_5alloc3vec3VecNtNtBX_6string6StringEEB4_
FNDA:1,_RINvNtCs34FkZ5Aug64_15gungraun_runner3api13update_optionNtB2_10EntryPointEB4_
FNDA:4,_RINvNtCs34FkZ5Aug64_15gungraun_runner3api13update_optionNtB2_12OutputFormatEB4_
FNDA:4,_RINvNtCs34FkZ5Aug64_15gungraun_runner3api13update_optionNtB2_12ValgrindToolEB4_
FNDA:1,_RINvNtCs34FkZ5Aug64_15gungraun_runner3api13update_optionNtB2_16ToolOutputFormatEB4_
FNDA:1,_RINvNtCs34FkZ5Aug64_15gungraun_runner3api13update_optionNtB2_20ToolFlamegraphConfigEB4_
FNDA:1,_RINvNtCs34FkZ5Aug64_15gungraun_runner3api13update_optionNtB2_20ToolRegressionConfigEB4_
FNDA:11,_RINvNtCs34FkZ5Aug64_15gungraun_runner3api13update_optionbEB4_
FNDA:22,_RINvXso_NtCs34FkZ5Aug64_15gungraun_runner3apiNtB6_11RawToolArgsINtNtNtNtCsgEmfK2I1SDS_4core4iter6traits7collect12FromIteratorNtNtCslNYArtu3iFV_5alloc6string6StringE9from_iterINtNtNtB16_8adapters3map3MapIB2N_INtNtNtB18_5slice4iter4IterReENvYB3K_NtNtB23_6borrow7ToOwned8to_ownedENvYB3K_INtNtB18_7convert4IntoB1Z_E4intoEEB8_
FNDA:2,_RINvXso_NtCs34FkZ5Aug64_15gungraun_runner3apiNtB6_11RawToolArgsINtNtNtNtCsgEmfK2I1SDS_4core4iter6traits7collect12FromIteratorNtNtCslNYArtu3iFV_5alloc6string6StringE9from_iterINtNtNtB16_8adapters3map3MapINtNtNtB18_5array4iter8IntoIterReKj1_ENvYB3J_INtNtB18_7convert4IntoB1Z_E4intoEEB8_
FNDA:16,_RINvXso_NtCs34FkZ5Aug64_15gungraun_runner3apiNtB6_11RawToolArgsINtNtNtNtCsgEmfK2I1SDS_4core4iter6traits7collect12FromIteratorNtNtCslNYArtu3iFV_5alloc6string6StringE9from_iterINtNtNtB16_8adapters3map3MapINtNtNtB23_3vec9into_iter8IntoIterB1Z_ENvYB1Z_INtNtB18_7convert4IntoB1Z_E4intoEEB8_
FNDA:37,_RINvXso_NtCs34FkZ5Aug64_15gungraun_runner3apiNtB6_11RawToolArgsINtNtNtNtCsgEmfK2I1SDS_4core4iter6traits7collect12FromIteratorRReE9from_iterRSB20_EB8_
FNDA:21,_RNCINvMsn_NtCs34FkZ5Aug64_15gungraun_runner3apiNtB8_11RawToolArgs18extend_ignore_flagNtNtCslNYArtu3iFV_5alloc6string6StringINtNtNtNtCsgEmfK2I1SDS_4core4iter8adapters3map3MapIB1Y_INtNtNtB26_5slice4iter4IterReENvYB3h_NtNtB1p_6borrow7ToOwned8to_ownedENvYB3h_INtNtB26_7convert4IntoB1l_E4intoEE0Ba_
FNDA:21,_RNCINvMsn_NtCs34FkZ5Aug64_15gungraun_runner3apiNtB8_11RawToolArgs18extend_ignore_flagNtNtCslNYArtu3iFV_5alloc6string6StringINtNtNtNtCsgEmfK2I1SDS_4core4iter8adapters3map3MapIB1Y_INtNtNtB26_5slice4iter4IterReENvYB3h_NtNtB1p_6borrow7ToOwned8to_ownedENvYB3h_INtNtB26_7convert4IntoB1l_E4intoEEs_0Ba_
FNDA:20,_RNCINvMsn_NtCs34FkZ5Aug64_15gungraun_runner3apiNtB8_11RawToolArgs18extend_ignore_flagNtNtCslNYArtu3iFV_5alloc6string6StringINtNtNtNtCsgEmfK2I1SDS_4core4iter8adapters3map3MapINtNtNtB1p_3vec9into_iter8IntoIterB1l_ENvYB1l_INtNtB26_7convert4IntoB1l_E4intoEE0Ba_
FNDA:20,_RNCINvMsn_NtCs34FkZ5Aug64_15gungraun_runner3apiNtB8_11RawToolArgs18extend_ignore_flagNtNtCslNYArtu3iFV_5alloc6string6StringINtNtNtNtCsgEmfK2I1SDS_4core4iter8adapters3map3MapINtNtNtB1p_3vec9into_iter8IntoIterB1l_ENvYB1l_INtNtB26_7convert4IntoB1l_E4intoEEs_0Ba_
FNDA:2,_RNCINvMsn_NtCs34FkZ5Aug64_15gungraun_runner3apiNtB8_11RawToolArgs18extend_ignore_flagNtNtCslNYArtu3iFV_5alloc6string6StringINtNtNtNtCsgEmfK2I1SDS_4core4iter8adapters3map3MapINtNtNtB26_5array4iter8IntoIterReKj1_ENvYB3g_INtNtB26_7convert4IntoB1l_E4intoEE0Ba_
FNDA:2,_RNCINvMsn_NtCs34FkZ5Aug64_15gungraun_runner3apiNtB8_11RawToolArgs18extend_ignore_flagNtNtCslNYArtu3iFV_5alloc6string6StringINtNtNtNtCsgEmfK2I1SDS_4core4iter8adapters3map3MapINtNtNtB26_5array4iter8IntoIterReKj1_ENvYB3g_INtNtB26_7convert4IntoB1l_E4intoEEs_0Ba_
FNDA:4,_RNCINvMsn_NtCs34FkZ5Aug64_15gungraun_runner3apiNtB8_11RawToolArgs18extend_ignore_flagNtNtCslNYArtu3iFV_5alloc6string6StringINtNtNtNtCsgEmfK2I1SDS_4core4iter8adapters3map3MapINtNtNtB26_5slice4iter4IterReENvYB3c_NtB1n_8ToString9to_stringEE0Ba_
FNDA:4,_RNCINvMsn_NtCs34FkZ5Aug64_15gungraun_runner3apiNtB8_11RawToolArgs18extend_ignore_flagNtNtCslNYArtu3iFV_5alloc6string6StringINtNtNtNtCsgEmfK2I1SDS_4core4iter8adapters3map3MapINtNtNtB26_5slice4iter4IterReENvYB3c_NtB1n_8ToString9to_stringEEs_0Ba_
FNDA:5,_RNCINvMsn_NtCs34FkZ5Aug64_15gungraun_runner3apiNtB8_11RawToolArgs18extend_ignore_flagRNtNtCslNYArtu3iFV_5alloc6string6StringINtNtNtCsgEmfK2I1SDS_4core5slice4iter4IterB1m_EE0Ba_
FNDA:5,_RNCINvMsn_NtCs34FkZ5Aug64_15gungraun_runner3apiNtB8_11RawToolArgs18extend_ignore_flagRNtNtCslNYArtu3iFV_5alloc6string6StringINtNtNtCsgEmfK2I1SDS_4core5slice4iter4IterB1m_EEs_0Ba_
FNDA:1,_RNCINvMsn_NtCs34FkZ5Aug64_15gungraun_runner3apiNtB8_11RawToolArgs18extend_ignore_flagRNtNtCslNYArtu3iFV_5alloc6string6StringRAB1m_j1_E0Ba_
FNDA:1,_RNCINvMsn_NtCs34FkZ5Aug64_15gungraun_runner3apiNtB8_11RawToolArgs18extend_ignore_flagRNtNtCslNYArtu3iFV_5alloc6string6StringRAB1m_j1_Es_0Ba_
FNDA:39,_RNCINvMsn_NtCs34FkZ5Aug64_15gungraun_runner3apiNtB8_11RawToolArgs18extend_ignore_flagRReRSB1m_E0Ba_
FNDA:39,_RNCINvMsn_NtCs34FkZ5Aug64_15gungraun_runner3apiNtB8_11RawToolArgs18extend_ignore_flagRReRSB1m_Es_0Ba_
FNDA:0,_RNCINvNtCs34FkZ5Aug64_15gungraun_runner3api13update_optionINtNtCslNYArtu3iFV_5alloc3vec3VecNtNtBZ_6string6StringEE0B6_
FNDA:0,_RNCINvNtCs34FkZ5Aug64_15gungraun_runner3api13update_optionNtB4_10EntryPointE0B6_
FNDA:3,_RNCINvNtCs34FkZ5Aug64_15gungraun_runner3api13update_optionNtB4_12OutputFormatE0B6_
FNDA:2,_RNCINvNtCs34FkZ5Aug64_15gungraun_runner3api13update_optionNtB4_12ValgrindToolE0B6_
FNDA:0,_RNCINvNtCs34FkZ5Aug64_15gungraun_runner3api13update_optionNtB4_16ToolOutputFormatE0B6_
FNDA:0,_RNCINvNtCs34FkZ5Aug64_15gungraun_runner3api13update_optionNtB4_20ToolFlamegraphConfigE0B6_
FNDA:0,_RNCINvNtCs34FkZ5Aug64_15gungraun_runner3api13update_optionNtB4_20ToolRegressionConfigE0B6_
FNDA:3,_RNCINvNtCs34FkZ5Aug64_15gungraun_runner3api13update_optionbE0B6_
FNDA:0,_RNCNvMsA_NtCs34FkZ5Aug64_15gungraun_runner3apiNtB7_5Tools6update0B9_
FNDA:0,_RNCNvMsA_NtCs34FkZ5Aug64_15gungraun_runner3apiNtB7_5Tools7consume0B9_
FNDA:0,_RNCNvMsA_NtCs34FkZ5Aug64_15gungraun_runner3apiNtB7_5Tools7consumes_0B9_
FNF:88
FNH:46
DA:54,207
DA:55,207
DA:56,207
DA:57,2
DA:58,8
DA:60,199
DA:61,207
DA:78,51
DA:79,51
DA:80,51
DA:81,15
DA:82,8
DA:83,3
DA:85,36
DA:87,51
DA:1399,0
DA:1400,0
DA:1401,0
DA:1403,0
DA:1404,0
DA:1405,0
DA:1406,0
DA:1407,0
DA:1409,0
DA:1410,0
DA:1412,0
DA:1414,0
DA:1415,0
DA:1416,0
DA:1417,0
DA:1418,0
DA:1419,0
DA:1420,0
DA:1422,0
DA:1423,0
DA:1424,0
DA:1426,0
DA:1427,0
DA:1433,0
DA:1434,0
DA:1435,0
DA:1440,0
DA:1441,0
DA:1442,0
DA:1443,0
DA:1444,0
DA:1445,0
DA:1467,0
DA:1468,0
DA:1469,0
DA:1484,0
DA:1487,0
DA:1488,0
DA:1489,0
DA:1493,0
DA:1494,0
DA:1495,0
DA:1508,0
DA:1509,0
DA:1511,0
DA:1550,0
DA:1551,0
DA:1569,0
DA:1577,0
DA:1579,0
DA:1581,0
DA:1582,0
DA:1583,0
DA:1587,0
DA:1588,0
DA:1589,0
DA:1611,14
DA:1612,14
DA:1613,14
DA:1638,0
DA:1639,0
DA:1640,0
DA:1644,0
DA:1645,0
DA:1646,0
DA:1647,0
DA:1648,0
DA:1649,0
DA:1650,0
DA:1651,0
DA:1652,0
DA:1653,0
DA:1654,0
DA:1655,0
DA:1656,0
DA:1657,0
DA:1658,0
DA:1660,0
DA:1689,0
DA:1690,0
DA:1691,0
DA:1693,0
DA:1694,0
DA:1695,0
DA:1699,0
DA:1700,0
DA:1701,0
DA:1720,0
DA:1721,0
DA:1722,0
DA:1726,0
DA:1727,0
DA:1728,0
DA:1729,0
DA:1730,0
DA:1731,0
DA:1733,0
DA:1771,0
DA:1772,0
DA:1773,0
DA:1788,0
DA:1791,0
DA:1792,0
DA:1793,0
DA:1797,94
DA:1798,94
DA:1799,47
DA:1800,0
DA:1801,0
DA:1802,0
DA:1803,0
DA:1804,0
DA:1805,0
DA:1806,0
DA:1807,0
DA:1808,0
DA:1809,0
DA:1810,0
DA:1811,0
DA:1812,0
DA:1813,47
DA:1815,94
DA:1819,0
DA:1820,0
DA:1821,0
DA:1822,0
DA:1823,0
DA:1824,0
DA:1825,0
DA:1826,0
DA:1827,0
DA:1828,0
DA:1829,0
DA:1830,0
DA:1831,0
DA:1832,0
DA:1833,0
DA:1834,0
DA:1835,0
DA:1836,0
DA:1837,0
DA:1838,0
DA:1839,0
DA:1840,0
DA:1841,0
DA:1842,0
DA:1843,0
DA:1844,0
DA:1845,0
DA:1846,0
DA:1848,0
DA:1898,101
DA:1899,101
DA:1928,51
DA:1936,50
DA:1938,101
DA:1940,24
DA:1941,24
DA:1942,24
DA:1947,206
DA:1948,206
DA:1949,206
DA:1950,1
DA:1951,3
DA:1952,63
DA:1953,63
DA:1954,63
DA:1955,63
DA:1956,63
DA:1957,63
DA:1958,2
DA:1959,2
DA:1960,2
DA:1961,2
DA:1962,2
DA:1963,2
DA:1964,2
DA:1965,2
DA:1966,2
DA:1967,2
DA:1968,2
DA:1969,2
DA:1970,2
DA:1971,2
DA:1972,2
DA:1973,65
DA:1974,65
DA:1975,65
DA:1976,65
DA:1977,65
DA:1978,65
DA:1979,65
DA:1980,2
DA:1981,2
DA:1982,2
DA:1983,2
DA:1984,2
DA:1985,2
DA:1986,2
DA:1987,1
DA:1988,1
DA:1989,1
DA:1990,1
DA:1991,1
DA:1992,1
DA:1993,1
DA:1994,1
DA:1995,1
DA:1996,64
DA:1997,64
DA:1998,64
DA:1999,64
DA:2000,64
DA:2001,64
DA:2002,64
DA:2003,64
DA:2004,3
DA:2005,3
DA:2006,3
DA:2009,206
DA:2010,206
DA:2015,66
DA:2017,66
DA:2018,2
DA:2019,62
DA:2020,62
DA:2021,62
DA:2022,62
DA:2023,62
DA:2024,62
DA:2025,62
DA:2026,62
DA:2027,62
DA:2028,62
DA:2029,62
DA:2030,2
DA:2032,66
DA:2037,463
DA:2038,463
DA:2039,463
DA:2040,1
DA:2041,4
DA:2042,63
DA:2043,63
DA:2044,63
DA:2045,63
DA:2046,63
DA:2047,63
DA:2048,63
DA:2049,63
DA:2050,63
DA:2051,63
DA:2052,4
DA:2053,4
DA:2054,4
DA:2055,4
DA:2056,4
DA:2057,4
DA:2058,4
DA:2059,4
DA:2060,4
DA:2061,4
DA:2062,4
DA:2063,4
DA:2064,4
DA:2065,4
DA:2066,4
DA:2067,67
DA:2068,67
DA:2069,67
DA:2070,8
DA:2071,8
DA:2072,8
DA:2073,8
DA:2074,8
DA:2075,8
DA:2076,8
DA:2077,3
DA:2078,3
DA:2079,3
DA:2080,3
DA:2081,3
DA:2082,3
DA:2083,3
DA:2084,3
DA:2085,3
DA:2086,64
DA:2087,64
DA:2088,64
DA:2089,64
DA:2090,64
DA:2091,64
DA:2092,64
DA:2093,64
DA:2094,64
DA:2095,64
DA:2096,64
DA:2097,64
DA:2098,64
DA:2099,64
DA:2100,64
DA:2101,64
DA:2102,75
DA:2103,75
DA:2104,75
DA:2105,42
DA:2106,42
DA:2107,42
DA:2110,463
DA:2111,463
DA:2118,4
DA:2119,4
DA:2120,4
DA:2122,4
DA:2123,4
DA:2124,4
DA:2126,4
DA:2127,4
DA:2129,4
DA:2130,4
DA:2131,1
DA:2132,3
DA:2133,1
DA:2134,2
DA:2135,2
DA:2136,2
DA:2138,4
DA:2140,4
DA:2141,4
DA:2146,1
DA:2147,1
DA:2148,1
DA:2153,0
DA:2154,0
DA:2155,0
DA:2156,0
DA:2157,0
DA:2158,0
DA:2163,0
DA:2164,0
DA:2165,0
DA:2166,0
DA:2168,0
DA:2172,1
DA:2173,1
DA:2174,1
DA:2178,11
DA:2179,11
DA:2180,11
DA:2185,37
DA:2186,37
DA:2187,37
DA:2190,44
DA:2191,44
DA:2192,44
DA:2193,44
DA:2195,44
DA:2196,44
DA:2199,106
DA:2200,106
DA:2201,106
DA:2202,106
DA:2204,106
DA:2205,106
DA:2206,106
DA:2207,106
DA:2208,103
DA:2209,103
DA:2210,97
DA:2212,6
DA:2214,103
DA:2216,106
DA:2219,5
DA:2220,5
DA:2221,5
DA:2224,14
DA:2225,14
DA:2226,14
DA:2229,5
DA:2230,5
DA:2231,3
DA:2232,3
DA:2233,3
DA:2234,3
DA:2235,5
DA:2242,81
DA:2243,81
DA:2244,81
DA:2245,81
DA:2246,81
DA:2317,0
DA:2318,0
DA:2319,0
DA:2320,0
DA:2321,0
DA:2322,0
DA:2323,0
DA:2324,0
DA:2325,0
DA:2326,0
DA:2327,0
DA:2328,0
DA:2329,0
DA:2330,0
DA:2332,0
DA:2334,0
DA:2335,0
DA:2336,0
DA:2337,0
DA:2338,0
DA:2339,0
DA:2341,0
DA:2343,0
DA:2344,0
DA:2345,0
DA:2346,0
DA:2348,0
DA:2352,0
DA:2353,0
DA:2354,0
DA:2355,0
DA:2356,0
DA:2357,0
DA:2359,0
DA:2363,0
DA:2364,0
DA:2365,0
DA:2369,0
DA:2370,0
DA:2371,0
DA:2375,0
DA:2376,0
DA:2377,0
DA:2434,0
DA:2435,0
DA:2436,0
DA:2437,0
DA:2438,0
DA:2439,0
DA:2440,0
DA:2441,0
DA:2442,0
DA:2443,0
DA:2444,0
DA:2445,0
DA:2446,0
DA:2448,0
DA:2450,0
DA:2452,0
DA:2453,0
DA:2455,0
DA:2457,0
DA:2460,0
DA:2461,0
DA:2463,0
DA:2465,0
DA:2471,0
DA:2472,0
DA:2473,0
DA:2474,0
DA:2477,0
DA:2478,0
DA:2482,0
DA:2483,0
DA:2484,0
DA:2488,0
DA:2489,0
DA:2490,0
DA:2494,0
DA:2495,0
DA:2496,0
DA:2501,0
DA:2502,0
DA:2503,0
DA:2508,3
DA:2509,3
DA:2510,3
DA:2511,3
DA:2512,3
DA:2513,3
DA:2514,3
DA:2515,3
DA:2516,3
DA:2517,3
DA:2518,3
DA:2519,3
DA:2520,3
DA:2523,0
DA:2524,0
DA:2525,0
DA:2526,0
DA:2528,0
DA:2529,0
DA:2530,0
DA:2531,0
DA:2534,2
DA:2535,2
DA:2536,1
DA:2537,1
DA:2538,1
DA:2539,1
DA:2540,1
DA:2541,1
DA:2542,1
DA:2543,1
DA:2544,1
DA:2545,1
DA:2546,1
DA:2547,1
DA:2548,1
DA:2549,2
DA:2554,3
DA:2555,3
DA:2556,3
DA:2559,1
DA:2560,1
DA:2561,0
DA:2562,1
DA:2563,1
DA:2564,1
DA:2565,1
DA:2568,1
DA:2569,1
DA:2570,1
DA:2572,1
DA:2573,1
DA:2574,1
DA:2575,1
DA:2578,1
DA:2579,1
DA:2580,1
DA:2584,4
DA:2585,4
DA:2586,4
DA:2587,4
DA:2588,4
DA:2589,4
DA:2594,345
DA:2595,345
DA:2596,1
DA:2597,264
DA:2598,44
DA:2599,0
DA:2600,30
DA:2601,0
DA:2602,6
DA:2603,0
DA:2605,345
DA:2608,6
DA:2609,0
DA:2610,6
DA:2613,6
DA:2616,6
DA:2617,6
DA:2618,6
DA:2621,6
DA:2622,6
DA:2623,6
DA:2627,19
DA:2628,19
DA:2629,19
DA:2636,3
DA:2637,3
DA:2638,3
DA:2645,3
DA:2646,3
DA:2647,3
DA:2648,2
DA:2649,2
DA:2650,2
DA:2651,2
DA:2652,2
DA:2653,0
DA:2654,0
DA:2655,0
DA:2657,3
DA:2661,24
DA:2662,24
DA:2663,24
DA:2675,1
DA:2676,26
DA:2677,26
DA:2678,26
DA:2679,26
DA:2681,1
DA:2684,1
DA:2685,37
DA:2686,37
DA:2687,37
DA:2688,37
DA:2690,1
DA:2693,1
DA:2694,1
DA:2695,1
DA:2696,1
DA:2697,1
DA:2699,1
DA:2702,1
DA:2703,1
DA:2704,1
DA:2705,1
DA:2706,1
DA:2707,1
DA:2708,1
DA:2709,1
DA:2710,1
DA:2711,1
DA:2712,1
DA:2713,1
DA:2714,1
DA:2715,1
DA:2716,1
DA:2717,1
DA:2718,1
DA:2719,1
DA:2720,1
DA:2721,1
DA:2722,1
DA:2723,1
DA:2724,1
DA:2725,1
DA:2726,1
DA:2728,1
DA:2729,1
DA:2732,1
DA:2733,1
DA:2734,1
DA:2735,1
DA:2736,1
DA:2737,1
DA:2738,1
DA:2739,1
DA:2740,1
DA:2741,1
DA:2742,1
DA:2743,1
DA:2744,1
DA:2745,1
DA:2746,1
DA:2747,1
DA:2748,1
DA:2749,1
DA:2750,1
DA:2751,1
DA:2752,1
DA:2753,1
DA:2754,1
DA:2755,1
DA:2756,1
DA:2757,1
DA:2758,1
DA:2759,1
DA:2760,1
DA:2761,1
DA:2763,1
DA:2764,1
DA:2911,1
DA:2912,1
DA:2913,1
DA:2914,1
DA:2915,1
DA:2916,1
DA:2917,1
DA:2918,1
DA:2919,1
DA:2920,1
DA:2921,1
DA:2922,1
DA:2923,1
DA:2924,1
DA:2925,1
DA:2926,1
DA:2927,1
DA:2930,1
DA:2931,1
DA:2932,1
DA:2933,1
DA:2934,1
DA:2935,1
DA:2936,1
DA:2937,1
DA:2938,1
DA:2939,1
DA:2940,1
DA:2941,1
DA:2942,1
DA:2944,1
DA:2945,1
DA:2947,1
DA:2948,1
BRF:0
BRH:0
LF:721
LH:454
end_of_record
SF:/fast/lenny/workspace/programming/gungraun/gungraun/gungraun-runner/src/error.rs
FN:88,_RNvMNtCs5iQXrcGAeg9_15gungraun_runner5errorNtB2_5Error17new_process_error
FN:98,_RNvXs_NtCs5iQXrcGAeg9_15gungraun_runner5errorNtB4_5ErrorNtNtCsgEmfK2I1SDS_4core3fmt7Display3fmt
FN:88,_RNvMNtCs34FkZ5Aug64_15gungraun_runner5errorNtB2_5Error17new_process_error
FN:98,_RNvXs_NtCs34FkZ5Aug64_15gungraun_runner5errorNtB4_5ErrorNtNtCsgEmfK2I1SDS_4core3fmt7Display3fmt
FNDA:5,_RNvMNtCs5iQXrcGAeg9_15gungraun_runner5errorNtB2_5Error17new_process_error
FNDA:3,_RNvXs_NtCs5iQXrcGAeg9_15gungraun_runner5errorNtB4_5ErrorNtNtCsgEmfK2I1SDS_4core3fmt7Display3fmt
FNDA:0,_RNvMNtCs34FkZ5Aug64_15gungraun_runner5errorNtB2_5Error17new_process_error
FNDA:0,_RNvXs_NtCs34FkZ5Aug64_15gungraun_runner5errorNtB4_5ErrorNtNtCsgEmfK2I1SDS_4core3fmt7Display3fmt
FNF:2
FNH:2
DA:88,5
DA:89,5
DA:90,5
DA:91,5
DA:92,5
DA:93,5
DA:94,5
DA:98,3
DA:99,3
DA:100,0
DA:101,0
DA:102,0
DA:103,0
DA:111,0
DA:112,0
DA:113,0
DA:118,0
DA:119,0
DA:124,0
DA:125,0
DA:130,0
DA:132,0
DA:133,0
DA:135,0
DA:136,0
DA:137,0
DA:138,0
DA:139,0
DA:141,0
DA:142,0
DA:143,0
DA:144,0
DA:145,0
DA:149,0
DA:152,0
DA:153,0
DA:154,0
DA:158,3
DA:159,3
DA:161,0
DA:162,0
DA:163,0
DA:164,0
DA:168,0
DA:171,0
DA:172,0
DA:174,0
DA:175,0
DA:177,0
DA:178,0
DA:179,0
DA:181,0
DA:182,0
DA:183,0
DA:184,0
DA:187,0
DA:190,3
BRF:0
BRH:0
LF:57
LH:12
end_of_record
SF:/fast/lenny/workspace/programming/gungraun/gungraun/gungraun-runner/src/main.rs
FN:46,_RNCNCNvCs2V5gJA89egr_15gungraun_runner4mains1_00B5_
FN:21,_RNCNvCs2V5gJA89egr_15gungraun_runner4main0B3_
FN:40,_RNCNvCs2V5gJA89egr_15gungraun_runner4mains1_0B3_
FN:77,_RNvCs2V5gJA89egr_15gungraun_runner14print_warnings
FN:16,_RNvCs2V5gJA89egr_15gungraun_runner4main
FNDA:0,_RNCNCNvCs2V5gJA89egr_15gungraun_runner4mains1_00B5_
FNDA:0,_RNCNvCs2V5gJA89egr_15gungraun_runner4main0B3_
FNDA:0,_RNCNvCs2V5gJA89egr_15gungraun_runner4mains1_0B3_
FNDA:0,_RNvCs2V5gJA89egr_15gungraun_runner14print_warnings
FNDA:0,_RNvCs2V5gJA89egr_15gungraun_runner4main
FNF:5
FNH:0
DA:16,0
DA:18,0
DA:19,0
DA:20,0
DA:21,0
DA:23,0
DA:24,0
DA:25,0
DA:26,0
DA:27,0
DA:28,0
DA:29,0
DA:30,0
DA:33,0
DA:34,0
DA:35,0
DA:36,0
DA:37,0
DA:40,0
DA:41,0
DA:42,0
DA:44,0
DA:45,0
DA:46,0
DA:47,0
DA:48,0
DA:49,0
DA:50,0
DA:51,0
DA:52,0
DA:54,0
DA:56,0
DA:57,0
DA:59,0
DA:60,0
DA:61,0
DA:62,0
DA:63,0
DA:64,0
DA:65,0
DA:66,0
DA:67,0
DA:69,0
DA:70,0
DA:74,0
DA:77,0
DA:78,0
DA:79,0
DA:80,0
DA:82,0
DA:83,0
DA:84,0
DA:86,0
DA:87,0
DA:91,0
DA:93,0
DA:94,0
DA:95,0
DA:96,0
DA:97,0
DA:98,0
DA:99,0
DA:100,0
DA:101,0
DA:102,0
DA:103,0
DA:104,0
DA:105,0
DA:106,0
DA:107,0
DA:108,0
DA:109,0
DA:110,0
DA:111,0
DA:112,0
DA:113,0
DA:114,0
DA:115,0
DA:116,0
DA:117,0
DA:118,0
DA:119,0
DA:120,0
DA:121,0
DA:122,0
DA:123,0
DA:124,0
DA:125,0
DA:126,0
DA:127,0
DA:128,0
DA:129,0
DA:130,0
DA:131,0
DA:132,0
DA:133,0
DA:134,0
DA:135,0
DA:136,0
DA:137,0
DA:138,0
DA:139,0
DA:143,0
DA:144,0
DA:146,0
BRF:0
BRH:0
LF:108
LH:0
end_of_record
SF:/fast/lenny/workspace/programming/gungraun/gungraun/gungraun-runner/src/runner/args.rs
FN:1528,_RNvXs1_NtNtCs5iQXrcGAeg9_15gungraun_runner6runner4argsINtNtCsgEmfK2I1SDS_4core6option6OptionjEINtNtBV_7convert4FromNtB5_19TruncateDescriptionE4from
FN:1466,_RNvMNtNtCs5iQXrcGAeg9_15gungraun_runner6runner4argsNtB2_15BenchmarkFilter5apply
FN:1482,_RNvMs0_NtNtCs5iQXrcGAeg9_15gungraun_runner6runner4argsNtB5_9NoCapture5apply
FN:1548,_RNvMs2_NtNtCs5iQXrcGAeg9_15gungraun_runner6runner4argsNtB5_7RawArgs3len
FN:1538,_RNvMs2_NtNtCs5iQXrcGAeg9_15gungraun_runner6runner4argsNtB5_7RawArgs8as_slice
FN:1543,_RNvMs2_NtNtCs5iQXrcGAeg9_15gungraun_runner6runner4argsNtB5_7RawArgs8is_empty
FN:1678,_RNvNtNtCs5iQXrcGAeg9_15gungraun_runner6runner4args10parse_envs
FN:1807,_RNvNtNtCs5iQXrcGAeg9_15gungraun_runner6runner4args14parse_parallel
FN:1828,_RNvNtNtCs5iQXrcGAeg9_15gungraun_runner6runner4args14parse_raw_args
FN:1786,_RNvNtNtCs5iQXrcGAeg9_15gungraun_runner6runner4args15parse_nocapture
FN:1847,_RNvNtNtCs5iQXrcGAeg9_15gungraun_runner6runner4args15parse_tool_args
FN:1643,_RNvNtNtCs5iQXrcGAeg9_15gungraun_runner6runner4args17parse_dhat_limits
FN:1673,_RNvNtNtCs5iQXrcGAeg9_15gungraun_runner6runner4args17parse_drd_metrics
FN:1664,_RNvNtNtCs5iQXrcGAeg9_15gungraun_runner6runner4args18parse_dhat_metrics
FN:1707,_RNvNtNtCs5iQXrcGAeg9_15gungraun_runner6runner4args19parse_error_metrics
FN:1823,_RNvNtNtCs5iQXrcGAeg9_15gungraun_runner6runner4args19parse_path_resolved
FN:1613,_RNvNtNtCs5iQXrcGAeg9_15gungraun_runner6runner4args22parse_callgrind_limits
FN:1726,_RNvNtNtCs5iQXrcGAeg9_15gungraun_runner6runner4args22parse_helgrind_metrics
FN:1781,_RNvNtNtCs5iQXrcGAeg9_15gungraun_runner6runner4args22parse_memcheck_metrics
FN:1577,_RNvNtNtCs5iQXrcGAeg9_15gungraun_runner6runner4args23parse_cachegrind_limits
FN:1634,_RNvNtNtCs5iQXrcGAeg9_15gungraun_runner6runner4args23parse_callgrind_metrics
FN:1598,_RNvNtNtCs5iQXrcGAeg9_15gungraun_runner6runner4args24parse_cachegrind_metrics
FN:1872,_RNvNtNtCs5iQXrcGAeg9_15gungraun_runner6runner4args26parse_truncate_description
FN:1475,_RNvXs_NtNtCs5iQXrcGAeg9_15gungraun_runner6runner4argsNtB4_15BenchmarkFilterNtNtNtCsgEmfK2I1SDS_4core3str6traits7FromStr8from_str
FN:1730,_RINvNtNtCs5iQXrcGAeg9_15gungraun_runner6runner4args12parse_limitsNtNtB6_3api10DhatMetricEB6_
FN:1730,_RINvNtNtCs5iQXrcGAeg9_15gungraun_runner6runner4args12parse_limitsNtNtB6_3api16CachegrindMetricEB6_
FN:1730,_RINvNtNtCs5iQXrcGAeg9_15gungraun_runner6runner4args12parse_limitsNtNtB6_3api9EventKindEB6_
FN:1556,_RINvNtNtCs5iQXrcGAeg9_15gungraun_runner6runner4args14convert_metricNtNtB6_3api10DhatMetricEB6_
FN:1556,_RINvNtNtCs5iQXrcGAeg9_15gungraun_runner6runner4args14convert_metricNtNtB6_3api16CachegrindMetricEB6_
FN:1556,_RINvNtNtCs5iQXrcGAeg9_15gungraun_runner6runner4args14convert_metricNtNtB6_3api9EventKindEB6_
FN:1852,_RINvNtNtCs5iQXrcGAeg9_15gungraun_runner6runner4args18parse_tool_metricsNtNtB6_3api10DhatMetricEB6_
FN:1852,_RINvNtNtCs5iQXrcGAeg9_15gungraun_runner6runner4args18parse_tool_metricsNtNtB6_3api11ErrorMetricEB6_
FN:1852,_RINvNtNtCs5iQXrcGAeg9_15gungraun_runner6runner4args18parse_tool_metricsNtNtB6_3api16CachegrindMetricEB6_
FN:1852,_RINvNtNtCs5iQXrcGAeg9_15gungraun_runner6runner4args18parse_tool_metricsNtNtB6_3api9EventKindEB6_
FN:1751,_RNCINvNtNtCs5iQXrcGAeg9_15gungraun_runner6runner4args12parse_limitsNtNtB8_3api10DhatMetricE0B8_
FN:1759,_RNCINvNtNtCs5iQXrcGAeg9_15gungraun_runner6runner4args12parse_limitsNtNtB8_3api10DhatMetricEs_0B8_
FN:1751,_RNCINvNtNtCs5iQXrcGAeg9_15gungraun_runner6runner4args12parse_limitsNtNtB8_3api16CachegrindMetricE0B8_
FN:1759,_RNCINvNtNtCs5iQXrcGAeg9_15gungraun_runner6runner4args12parse_limitsNtNtB8_3api16CachegrindMetricEs_0B8_
FN:1751,_RNCINvNtNtCs5iQXrcGAeg9_15gungraun_runner6runner4args12parse_limitsNtNtB8_3api9EventKindE0B8_
FN:1759,_RNCINvNtNtCs5iQXrcGAeg9_15gungraun_runner6runner4args12parse_limitsNtNtB8_3api9EventKindEs_0B8_
FN:1563,_RNCINvNtNtCs5iQXrcGAeg9_15gungraun_runner6runner4args14convert_metricNtNtB8_3api10DhatMetricE0B8_
FN:1570,_RNCINvNtNtCs5iQXrcGAeg9_15gungraun_runner6runner4args14convert_metricNtNtB8_3api10DhatMetricEs_0B8_
FN:1563,_RNCINvNtNtCs5iQXrcGAeg9_15gungraun_runner6runner4args14convert_metricNtNtB8_3api16CachegrindMetricE0B8_
FN:1570,_RNCINvNtNtCs5iQXrcGAeg9_15gungraun_runner6runner4args14convert_metricNtNtB8_3api16CachegrindMetricEs_0B8_
FN:1563,_RNCINvNtNtCs5iQXrcGAeg9_15gungraun_runner6runner4args14convert_metricNtNtB8_3api9EventKindE0B8_
FN:1570,_RNCINvNtNtCs5iQXrcGAeg9_15gungraun_runner6runner4args14convert_metricNtNtB8_3api9EventKindEs_0B8_
FN:1683,_RNCNCNvNtNtCs5iQXrcGAeg9_15gungraun_runner6runner4args10parse_envss_00B9_
FN:1647,_RNCNCNvNtNtCs5iQXrcGAeg9_15gungraun_runner6runner4args17parse_dhat_limits00B9_
FN:1650,_RNCNCNvNtNtCs5iQXrcGAeg9_15gungraun_runner6runner4args17parse_dhat_limits0s_0B9_
FN:1668,_RNCNCNvNtNtCs5iQXrcGAeg9_15gungraun_runner6runner4args18parse_dhat_metrics00B9_
FN:1617,_RNCNCNvNtNtCs5iQXrcGAeg9_15gungraun_runner6runner4args22parse_callgrind_limits00B9_
FN:1620,_RNCNCNvNtNtCs5iQXrcGAeg9_15gungraun_runner6runner4args22parse_callgrind_limits0s_0B9_
FN:1581,_RNCNCNvNtNtCs5iQXrcGAeg9_15gungraun_runner6runner4args23parse_cachegrind_limits00B9_
FN:1584,_RNCNCNvNtNtCs5iQXrcGAeg9_15gungraun_runner6runner4args23parse_cachegrind_limits0s_0B9_
FN:1638,_RNCNCNvNtNtCs5iQXrcGAeg9_15gungraun_runner6runner4args23parse_callgrind_metrics00B9_
FN:1602,_RNCNCNvNtNtCs5iQXrcGAeg9_15gungraun_runner6runner4args24parse_cachegrind_metrics00B9_
FN:1682,_RNCNvNtNtCs5iQXrcGAeg9_15gungraun_runner6runner4args10parse_envs0B7_
FN:1687,_RNCNvNtNtCs5iQXrcGAeg9_15gungraun_runner6runner4args10parse_envss0_0B7_
FN:1683,_RNCNvNtNtCs5iQXrcGAeg9_15gungraun_runner6runner4args10parse_envss_0B7_
FN:1841,_RNCNvNtNtCs5iQXrcGAeg9_15gungraun_runner6runner4args14parse_raw_args0B7_
FN:1848,_RNCNvNtNtCs5iQXrcGAeg9_15gungraun_runner6runner4args15parse_tool_args0B7_
FN:1644,_RNCNvNtNtCs5iQXrcGAeg9_15gungraun_runner6runner4args17parse_dhat_limits0B7_
FN:1665,_RNCNvNtNtCs5iQXrcGAeg9_15gungraun_runner6runner4args18parse_dhat_metrics0B7_
FN:1710,_RNCNvNtNtCs5iQXrcGAeg9_15gungraun_runner6runner4args19parse_error_metrics0B7_
FN:1720,_RNCNvNtNtCs5iQXrcGAeg9_15gungraun_runner6runner4args19parse_error_metricss_0B7_
FN:1824,_RNCNvNtNtCs5iQXrcGAeg9_15gungraun_runner6runner4args19parse_path_resolved0B7_
FN:1614,_RNCNvNtNtCs5iQXrcGAeg9_15gungraun_runner6runner4args22parse_callgrind_limits0B7_
FN:1578,_RNCNvNtNtCs5iQXrcGAeg9_15gungraun_runner6runner4args23parse_cachegrind_limits0B7_
FN:1635,_RNCNvNtNtCs5iQXrcGAeg9_15gungraun_runner6runner4args23parse_callgrind_metrics0B7_
FN:1599,_RNCNvNtNtCs5iQXrcGAeg9_15gungraun_runner6runner4args24parse_cachegrind_metrics0B7_
FN:1482,_RNvMs0_NtNtCs34FkZ5Aug64_15gungraun_runner6runner4argsNtB5_9NoCapture5apply
FN:1548,_RNvMs2_NtNtCs34FkZ5Aug64_15gungraun_runner6runner4argsNtB5_7RawArgs3len
FN:1538,_RNvMs2_NtNtCs34FkZ5Aug64_15gungraun_runner6runner4argsNtB5_7RawArgs8as_slice
FN:1543,_RNvMs2_NtNtCs34FkZ5Aug64_15gungraun_runner6runner4argsNtB5_7RawArgs8is_empty
FN:2146,_RNvNtNtNtCs34FkZ5Aug64_15gungraun_runner6runner4args5testss_13test_home_cli
FN:2863,_RNvNtNtNtCs34FkZ5Aug64_15gungraun_runner6runner4args5testss_21test_envs_arg_unicode
FN:2893,_RNvNtNtNtCs34FkZ5Aug64_15gungraun_runner6runner4args5testss_21test_parse_envs_empty
FN:2553,_RNvNtNtNtCs34FkZ5Aug64_15gungraun_runner6runner4args5testss_24test_arg_valgrind_runner
FN:2681,_RNvNtNtNtCs34FkZ5Aug64_15gungraun_runner6runner4args5testss_26test_envs_arg_empty_string
FN:2706,_RNvNtNtNtCs34FkZ5Aug64_15gungraun_runner6runner4args5testss_29test_envs_arg_missing_env_var
FN:2779,_RNvNtNtNtCs34FkZ5Aug64_15gungraun_runner6runner4args5testss_30test_envs_arg_path_with_colons
FN:2735,_RNvNtNtNtCs34FkZ5Aug64_15gungraun_runner6runner4args5testss_32test_envs_arg_multiple_delimited
FN:2748,_RNvNtNtNtCs34FkZ5Aug64_15gungraun_runner6runner4args5testss_34test_envs_arg_multiple_invocations
FN:2609,_RNvNtNtNtCs34FkZ5Aug64_15gungraun_runner6runner4args5testss_36test_valgrind_runner_args_when_twice
FN:2152,_RNvNtNtNtCs34FkZ5Aug64_15gungraun_runner6runner4args5testss_38test_home_cli_when_no_value_then_error
FN:2378,_RNvNtNtNtCs34FkZ5Aug64_15gungraun_runner6runner4args5testss_42test_arg_drd_metrics_when_empty_then_error
FN:1918,_RNvNtNtNtCs34FkZ5Aug64_15gungraun_runner6runner4args5testss_42test_parse_tool_args_when_empty_then_error
FN:2340,_RNvNtNtNtCs34FkZ5Aug64_15gungraun_runner6runner4args5testss_43test_arg_dhat_metrics_when_empty_then_error
FN:2454,_RNvNtNtNtCs34FkZ5Aug64_15gungraun_runner6runner4args5testss_47test_arg_helgrind_metrics_when_empty_then_error
FN:2416,_RNvNtNtNtCs34FkZ5Aug64_15gungraun_runner6runner4args5testss_47test_arg_memcheck_metrics_when_empty_then_error
FN:2270,_RNvNtNtNtCs34FkZ5Aug64_15gungraun_runner6runner4args5testss_48test_arg_callgrind_metrics_when_empty_then_error
FN:2307,_RNvNtNtNtCs34FkZ5Aug64_15gungraun_runner6runner4args5testss_49test_arg_cachegrind_metrics_when_empty_then_error
FN:2568,_RNvNtNtNtCs34FkZ5Aug64_15gungraun_runner6runner4args5testss_50test_arg_valgrind_runner_when_directory_then_error
FN:2578,_RNvNtNtNtCs34FkZ5Aug64_15gungraun_runner6runner4args5testss_55test_arg_valgrind_runner_when_not_executable_then_error
FN:2600,_RNCNvNtNtNtCs34FkZ5Aug64_15gungraun_runner6runner4args5tests25test_valgrind_runner_args0B9_
FN:2136,_RNCNvNtNtNtCs34FkZ5Aug64_15gungraun_runner6runner4args5testss_13test_home_env0B9_
FN:2638,_RNCNvNtNtNtCs34FkZ5Aug64_15gungraun_runner6runner4args5testss_18test_env_clear_env0B9_
FN:2174,_RNCNvNtNtNtCs34FkZ5Aug64_15gungraun_runner6runner4args5testss_18test_nocapture_env0B9_
FN:2088,_RNCNvNtNtNtCs34FkZ5Aug64_15gungraun_runner6runner4args5testss_19test_allow_aslr_env0B9_
FN:2064,_RNCNvNtNtNtCs34FkZ5Aug64_15gungraun_runner6runner4args5testss_21test_save_summary_env0B9_
FN:2627,_RNCNvNtNtNtCs34FkZ5Aug64_15gungraun_runner6runner4args5testss_22test_env_clear_default0B9_
FN:2017,_RNCNvNtNtNtCs34FkZ5Aug64_15gungraun_runner6runner4args5testss_23test_callgrind_args_env0B9_
FN:2112,_RNCNvNtNtNtCs34FkZ5Aug64_15gungraun_runner6runner4args5testss_25test_separate_targets_env0B9_
FN:2522,_RNCNvNtNtNtCs34FkZ5Aug64_15gungraun_runner6runner4args5testss_27test_arg_show_grid_when_env0B9_
FN:2482,_RNCNvNtNtNtCs34FkZ5Aug64_15gungraun_runner6runner4args5testss_27test_arg_tolerance_when_env0B9_
FN:2873,_RNCNvNtNtNtCs34FkZ5Aug64_15gungraun_runner6runner4args5testss_27test_parse_env_from_env_var0B9_
FN:2384,_RNCNvNtNtNtCs34FkZ5Aug64_15gungraun_runner6runner4args5testss_29test_arg_drd_metrics_when_env0B9_
FN:2689,_RNCNvNtNtNtCs34FkZ5Aug64_15gungraun_runner6runner4args5testss_29test_envs_arg_from_config_env0B9_
FN:2761,_RNCNvNtNtNtCs34FkZ5Aug64_15gungraun_runner6runner4args5testss_29test_envs_arg_partial_resolve0B9_
FN:2346,_RNCNvNtNtNtCs34FkZ5Aug64_15gungraun_runner6runner4args5testss_30test_arg_dhat_metrics_when_env0B9_
FN:2672,_RNCNvNtNtNtCs34FkZ5Aug64_15gungraun_runner6runner4args5testss_30test_envs_arg_all_missing_vars0B9_
FN:2713,_RNCNvNtNtNtCs34FkZ5Aug64_15gungraun_runner6runner4args5testss_30test_envs_arg_mixed_resolution0B9_
FN:2789,_RNCNvNtNtNtCs34FkZ5Aug64_15gungraun_runner6runner4args5testss_30test_envs_arg_resolve_from_env0B9_
FN:2900,_RNCNvNtNtNtCs34FkZ5Aug64_15gungraun_runner6runner4args5testss_31test_parse_envs_missing_env_var0B9_
FN:2460,_RNCNvNtNtNtCs34FkZ5Aug64_15gungraun_runner6runner4args5testss_34test_arg_helgrind_metrics_when_env0B9_
FN:2422,_RNCNvNtNtNtCs34FkZ5Aug64_15gungraun_runner6runner4args5testss_34test_arg_memcheck_metrics_when_env0B9_
FN:2276,_RNCNvNtNtNtCs34FkZ5Aug64_15gungraun_runner6runner4args5testss_35test_arg_callgrind_metrics_when_env0B9_
FN:2502,_RNCNvNtNtNtCs34FkZ5Aug64_15gungraun_runner6runner4args5testss_35test_arg_show_intermediate_when_env0B9_
FN:2313,_RNCNvNtNtNtCs34FkZ5Aug64_15gungraun_runner6runner4args5testss_36test_arg_cachegrind_metrics_when_env0B9_
FN:2543,_RNCNvNtNtNtCs34FkZ5Aug64_15gungraun_runner6runner4args5testss_38test_arg_truncate_description_when_env0B9_
FN:2048,_RNCNvNtNtNtCs34FkZ5Aug64_15gungraun_runner6runner4args5testss_49test_callgrind_args_cli_takes_precedence_over_env0B9_
FN:1466,_RNvMNtNtCs34FkZ5Aug64_15gungraun_runner6runner4argsNtB2_15BenchmarkFilter5apply
FN:1678,_RNvNtNtCs34FkZ5Aug64_15gungraun_runner6runner4args10parse_envs
FN:1807,_RNvNtNtCs34FkZ5Aug64_15gungraun_runner6runner4args14parse_parallel
FN:1828,_RNvNtNtCs34FkZ5Aug64_15gungraun_runner6runner4args14parse_raw_args
FN:1786,_RNvNtNtCs34FkZ5Aug64_15gungraun_runner6runner4args15parse_nocapture
FN:1847,_RNvNtNtCs34FkZ5Aug64_15gungraun_runner6runner4args15parse_tool_args
FN:1643,_RNvNtNtCs34FkZ5Aug64_15gungraun_runner6runner4args17parse_dhat_limits
FN:1673,_RNvNtNtCs34FkZ5Aug64_15gungraun_runner6runner4args17parse_drd_metrics
FN:1664,_RNvNtNtCs34FkZ5Aug64_15gungraun_runner6runner4args18parse_dhat_metrics
FN:1707,_RNvNtNtCs34FkZ5Aug64_15gungraun_runner6runner4args19parse_error_metrics
FN:1823,_RNvNtNtCs34FkZ5Aug64_15gungraun_runner6runner4args19parse_path_resolved
FN:1613,_RNvNtNtCs34FkZ5Aug64_15gungraun_runner6runner4args22parse_callgrind_limits
FN:1726,_RNvNtNtCs34FkZ5Aug64_15gungraun_runner6runner4args22parse_helgrind_metrics
FN:1781,_RNvNtNtCs34FkZ5Aug64_15gungraun_runner6runner4args22parse_memcheck_metrics
FN:1577,_RNvNtNtCs34FkZ5Aug64_15gungraun_runner6runner4args23parse_cachegrind_limits
FN:1634,_RNvNtNtCs34FkZ5Aug64_15gungraun_runner6runner4args23parse_callgrind_metrics
FN:1598,_RNvNtNtCs34FkZ5Aug64_15gungraun_runner6runner4args24parse_cachegrind_metrics
FN:1872,_RNvNtNtCs34FkZ5Aug64_15gungraun_runner6runner4args26parse_truncate_description
FN:1475,_RNvXs_NtNtCs34FkZ5Aug64_15gungraun_runner6runner4argsNtB4_15BenchmarkFilterNtNtNtCsgEmfK2I1SDS_4core3str6traits7FromStr8from_str
FN:1730,_RINvNtNtCs34FkZ5Aug64_15gungraun_runner6runner4args12parse_limitsNtNtB6_3api10DhatMetricEB6_
FN:1730,_RINvNtNtCs34FkZ5Aug64_15gungraun_runner6runner4args12parse_limitsNtNtB6_3api16CachegrindMetricEB6_
FN:1730,_RINvNtNtCs34FkZ5Aug64_15gungraun_runner6runner4args12parse_limitsNtNtB6_3api9EventKindEB6_
FN:1556,_RINvNtNtCs34FkZ5Aug64_15gungraun_runner6runner4args14convert_metricNtNtB6_3api10DhatMetricEB6_
FN:1556,_RINvNtNtCs34FkZ5Aug64_15gungraun_runner6runner4args14convert_metricNtNtB6_3api16CachegrindMetricEB6_
FN:1556,_RINvNtNtCs34FkZ5Aug64_15gungraun_runner6runner4args14convert_metricNtNtB6_3api9EventKindEB6_
FN:1852,_RINvNtNtCs34FkZ5Aug64_15gungraun_runner6runner4args18parse_tool_metricsNtNtB6_3api10DhatMetricEB6_
FN:1852,_RINvNtNtCs34FkZ5Aug64_15gungraun_runner6runner4args18parse_tool_metricsNtNtB6_3api11ErrorMetricEB6_
FN:1852,_RINvNtNtCs34FkZ5Aug64_15gungraun_runner6runner4args18parse_tool_metricsNtNtB6_3api16CachegrindMetricEB6_
FN:1852,_RINvNtNtCs34FkZ5Aug64_15gungraun_runner6runner4args18parse_tool_metricsNtNtB6_3api9EventKindEB6_
FN:1751,_RNCINvNtNtCs34FkZ5Aug64_15gungraun_runner6runner4args12parse_limitsNtNtB8_3api10DhatMetricE0B8_
FN:1759,_RNCINvNtNtCs34FkZ5Aug64_15gungraun_runner6runner4args12parse_limitsNtNtB8_3api10DhatMetricEs_0B8_
FN:1751,_RNCINvNtNtCs34FkZ5Aug64_15gungraun_runner6runner4args12parse_limitsNtNtB8_3api16CachegrindMetricE0B8_
FN:1759,_RNCINvNtNtCs34FkZ5Aug64_15gungraun_runner6runner4args12parse_limitsNtNtB8_3api16CachegrindMetricEs_0B8_
FN:1751,_RNCINvNtNtCs34FkZ5Aug64_15gungraun_runner6runner4args12parse_limitsNtNtB8_3api9EventKindE0B8_
FN:1759,_RNCINvNtNtCs34FkZ5Aug64_15gungraun_runner6runner4args12parse_limitsNtNtB8_3api9EventKindEs_0B8_
FN:1563,_RNCINvNtNtCs34FkZ5Aug64_15gungraun_runner6runner4args14convert_metricNtNtB8_3api10DhatMetricE0B8_
FN:1570,_RNCINvNtNtCs34FkZ5Aug64_15gungraun_runner6runner4args14convert_metricNtNtB8_3api10DhatMetricEs_0B8_
FN:1563,_RNCINvNtNtCs34FkZ5Aug64_15gungraun_runner6runner4args14convert_metricNtNtB8_3api16CachegrindMetricE0B8_
FN:1570,_RNCINvNtNtCs34FkZ5Aug64_15gungraun_runner6runner4args14convert_metricNtNtB8_3api16CachegrindMetricEs_0B8_
FN:1563,_RNCINvNtNtCs34FkZ5Aug64_15gungraun_runner6runner4args14convert_metricNtNtB8_3api9EventKindE0B8_
FN:1570,_RNCINvNtNtCs34FkZ5Aug64_15gungraun_runner6runner4args14convert_metricNtNtB8_3api9EventKindEs_0B8_
FN:1683,_RNCNCNvNtNtCs34FkZ5Aug64_15gungraun_runner6runner4args10parse_envss_00B9_
FN:1647,_RNCNCNvNtNtCs34FkZ5Aug64_15gungraun_runner6runner4args17parse_dhat_limits00B9_
FN:1650,_RNCNCNvNtNtCs34FkZ5Aug64_15gungraun_runner6runner4args17parse_dhat_limits0s_0B9_
FN:1668,_RNCNCNvNtNtCs34FkZ5Aug64_15gungraun_runner6runner4args18parse_dhat_metrics00B9_
FN:1617,_RNCNCNvNtNtCs34FkZ5Aug64_15gungraun_runner6runner4args22parse_callgrind_limits00B9_
FN:1620,_RNCNCNvNtNtCs34FkZ5Aug64_15gungraun_runner6runner4args22parse_callgrind_limits0s_0B9_
FN:1581,_RNCNCNvNtNtCs34FkZ5Aug64_15gungraun_runner6runner4args23parse_cachegrind_limits00B9_
FN:1584,_RNCNCNvNtNtCs34FkZ5Aug64_15gungraun_runner6runner4args23parse_cachegrind_limits0s_0B9_
FN:1638,_RNCNCNvNtNtCs34FkZ5Aug64_15gungraun_runner6runner4args23parse_callgrind_metrics00B9_
FN:1602,_RNCNCNvNtNtCs34FkZ5Aug64_15gungraun_runner6runner4args24parse_cachegrind_metrics00B9_
FN:1682,_RNCNvNtNtCs34FkZ5Aug64_15gungraun_runner6runner4args10parse_envs0B7_
FN:1687,_RNCNvNtNtCs34FkZ5Aug64_15gungraun_runner6runner4args10parse_envss0_0B7_
FN:1683,_RNCNvNtNtCs34FkZ5Aug64_15gungraun_runner6runner4args10parse_envss_0B7_
FN:1841,_RNCNvNtNtCs34FkZ5Aug64_15gungraun_runner6runner4args14parse_raw_args0B7_
FN:1848,_RNCNvNtNtCs34FkZ5Aug64_15gungraun_runner6runner4args15parse_tool_args0B7_
FN:1644,_RNCNvNtNtCs34FkZ5Aug64_15gungraun_runner6runner4args17parse_dhat_limits0B7_
FN:1665,_RNCNvNtNtCs34FkZ5Aug64_15gungraun_runner6runner4args18parse_dhat_metrics0B7_
FN:1710,_RNCNvNtNtCs34FkZ5Aug64_15gungraun_runner6runner4args19parse_error_metrics0B7_
FN:1720,_RNCNvNtNtCs34FkZ5Aug64_15gungraun_runner6runner4args19parse_error_metricss_0B7_
FN:1824,_RNCNvNtNtCs34FkZ5Aug64_15gungraun_runner6runner4args19parse_path_resolved0B7_
FN:1614,_RNCNvNtNtCs34FkZ5Aug64_15gungraun_runner6runner4args22parse_callgrind_limits0B7_
FN:1578,_RNCNvNtNtCs34FkZ5Aug64_15gungraun_runner6runner4args23parse_cachegrind_limits0B7_
FN:1635,_RNCNvNtNtCs34FkZ5Aug64_15gungraun_runner6runner4args23parse_callgrind_metrics0B7_
FN:1599,_RNCNvNtNtCs34FkZ5Aug64_15gungraun_runner6runner4args24parse_cachegrind_metrics0B7_
FN:1528,_RNvXs1_NtNtCs34FkZ5Aug64_15gungraun_runner6runner4argsINtNtCsgEmfK2I1SDS_4core6option6OptionjEINtNtBV_7convert4FromNtB5_19TruncateDescriptionE4from
FNDA:0,_RNvXs1_NtNtCs5iQXrcGAeg9_15gungraun_runner6runner4argsINtNtCsgEmfK2I1SDS_4core6option6OptionjEINtNtBV_7convert4FromNtB5_19TruncateDescriptionE4from
FNDA:0,_RNvMNtNtCs5iQXrcGAeg9_15gungraun_runner6runner4argsNtB2_15BenchmarkFilter5apply
FNDA:8,_RNvMs0_NtNtCs5iQXrcGAeg9_15gungraun_runner6runner4argsNtB5_9NoCapture5apply
FNDA:0,_RNvMs2_NtNtCs5iQXrcGAeg9_15gungraun_runner6runner4argsNtB5_7RawArgs3len
FNDA:0,_RNvMs2_NtNtCs5iQXrcGAeg9_15gungraun_runner6runner4argsNtB5_7RawArgs8as_slice
FNDA:0,_RNvMs2_NtNtCs5iQXrcGAeg9_15gungraun_runner6runner4argsNtB5_7RawArgs8is_empty
FNDA:0,_RNvNtNtCs5iQXrcGAeg9_15gungraun_runner6runner4args10parse_envs
FNDA:16,_RNvNtNtCs5iQXrcGAeg9_15gungraun_runner6runner4args14parse_parallel
FNDA:4,_RNvNtNtCs5iQXrcGAeg9_15gungraun_runner6runner4args14parse_raw_args
FNDA:16,_RNvNtNtCs5iQXrcGAeg9_15gungraun_runner6runner4args15parse_nocapture
FNDA:4,_RNvNtNtCs5iQXrcGAeg9_15gungraun_runner6runner4args15parse_tool_args
FNDA:0,_RNvNtNtCs5iQXrcGAeg9_15gungraun_runner6runner4args17parse_dhat_limits
FNDA:0,_RNvNtNtCs5iQXrcGAeg9_15gungraun_runner6runner4args17parse_drd_metrics
FNDA:0,_RNvNtNtCs5iQXrcGAeg9_15gungraun_runner6runner4args18parse_dhat_metrics
FNDA:0,_RNvNtNtCs5iQXrcGAeg9_15gungraun_runner6runner4args19parse_error_metrics
FNDA:0,_RNvNtNtCs5iQXrcGAeg9_15gungraun_runner6runner4args19parse_path_resolved
FNDA:0,_RNvNtNtCs5iQXrcGAeg9_15gungraun_runner6runner4args22parse_callgrind_limits
FNDA:0,_RNvNtNtCs5iQXrcGAeg9_15gungraun_runner6runner4args22parse_helgrind_metrics
FNDA:0,_RNvNtNtCs5iQXrcGAeg9_15gungraun_runner6runner4args22parse_memcheck_metrics
FNDA:0,_RNvNtNtCs5iQXrcGAeg9_15gungraun_runner6runner4args23parse_cachegrind_limits
FNDA:0,_RNvNtNtCs5iQXrcGAeg9_15gungraun_runner6runner4args23parse_callgrind_metrics
FNDA:0,_RNvNtNtCs5iQXrcGAeg9_15gungraun_runner6runner4args24parse_cachegrind_metrics
FNDA:0,_RNvNtNtCs5iQXrcGAeg9_15gungraun_runner6runner4args26parse_truncate_description
FNDA:0,_RNvXs_NtNtCs5iQXrcGAeg9_15gungraun_runner6runner4argsNtB4_15BenchmarkFilterNtNtNtCsgEmfK2I1SDS_4core3str6traits7FromStr8from_str
FNDA:0,_RINvNtNtCs5iQXrcGAeg9_15gungraun_runner6runner4args12parse_limitsNtNtB6_3api10DhatMetricEB6_
FNDA:0,_RINvNtNtCs5iQXrcGAeg9_15gungraun_runner6runner4args12parse_limitsNtNtB6_3api16CachegrindMetricEB6_
FNDA:0,_RINvNtNtCs5iQXrcGAeg9_15gungraun_runner6runner4args12parse_limitsNtNtB6_3api9EventKindEB6_
FNDA:0,_RINvNtNtCs5iQXrcGAeg9_15gungraun_runner6runner4args14convert_metricNtNtB6_3api10DhatMetricEB6_
FNDA:0,_RINvNtNtCs5iQXrcGAeg9_15gungraun_runner6runner4args14convert_metricNtNtB6_3api16CachegrindMetricEB6_
FNDA:0,_RINvNtNtCs5iQXrcGAeg9_15gungraun_runner6runner4args14convert_metricNtNtB6_3api9EventKindEB6_
FNDA:0,_RINvNtNtCs5iQXrcGAeg9_15gungraun_runner6runner4args18parse_tool_metricsNtNtB6_3api10DhatMetricEB6_
FNDA:0,_RINvNtNtCs5iQXrcGAeg9_15gungraun_runner6runner4args18parse_tool_metricsNtNtB6_3api11ErrorMetricEB6_
FNDA:0,_RINvNtNtCs5iQXrcGAeg9_15gungraun_runner6runner4args18parse_tool_metricsNtNtB6_3api16CachegrindMetricEB6_
FNDA:0,_RINvNtNtCs5iQXrcGAeg9_15gungraun_runner6runner4args18parse_tool_metricsNtNtB6_3api9EventKindEB6_
FNDA:0,_RNCINvNtNtCs5iQXrcGAeg9_15gungraun_runner6runner4args12parse_limitsNtNtB8_3api10DhatMetricE0B8_
FNDA:0,_RNCINvNtNtCs5iQXrcGAeg9_15gungraun_runner6runner4args12parse_limitsNtNtB8_3api10DhatMetricEs_0B8_
FNDA:0,_RNCINvNtNtCs5iQXrcGAeg9_15gungraun_runner6runner4args12parse_limitsNtNtB8_3api16CachegrindMetricE0B8_
FNDA:0,_RNCINvNtNtCs5iQXrcGAeg9_15gungraun_runner6runner4args12parse_limitsNtNtB8_3api16CachegrindMetricEs_0B8_
FNDA:0,_RNCINvNtNtCs5iQXrcGAeg9_15gungraun_runner6runner4args12parse_limitsNtNtB8_3api9EventKindE0B8_
FNDA:0,_RNCINvNtNtCs5iQXrcGAeg9_15gungraun_runner6runner4args12parse_limitsNtNtB8_3api9EventKindEs_0B8_
FNDA:0,_RNCINvNtNtCs5iQXrcGAeg9_15gungraun_runner6runner4args14convert_metricNtNtB8_3api10DhatMetricE0B8_
FNDA:0,_RNCINvNtNtCs5iQXrcGAeg9_15gungraun_runner6runner4args14convert_metricNtNtB8_3api10DhatMetricEs_0B8_
FNDA:0,_RNCINvNtNtCs5iQXrcGAeg9_15gungraun_runner6runner4args14convert_metricNtNtB8_3api16CachegrindMetricE0B8_
FNDA:0,_RNCINvNtNtCs5iQXrcGAeg9_15gungraun_runner6runner4args14convert_metricNtNtB8_3api16CachegrindMetricEs_0B8_
FNDA:0,_RNCINvNtNtCs5iQXrcGAeg9_15gungraun_runner6runner4args14convert_metricNtNtB8_3api9EventKindE0B8_
FNDA:0,_RNCINvNtNtCs5iQXrcGAeg9_15gungraun_runner6runner4args14convert_metricNtNtB8_3api9EventKindEs_0B8_
FNDA:0,_RNCNCNvNtNtCs5iQXrcGAeg9_15gungraun_runner6runner4args10parse_envss_00B9_
FNDA:0,_RNCNCNvNtNtCs5iQXrcGAeg9_15gungraun_runner6runner4args17parse_dhat_limits00B9_
FNDA:0,_RNCNCNvNtNtCs5iQXrcGAeg9_15gungraun_runner6runner4args17parse_dhat_limits0s_0B9_
FNDA:0,_RNCNCNvNtNtCs5iQXrcGAeg9_15gungraun_runner6runner4args18parse_dhat_metrics00B9_
FNDA:0,_RNCNCNvNtNtCs5iQXrcGAeg9_15gungraun_runner6runner4args22parse_callgrind_limits00B9_
FNDA:0,_RNCNCNvNtNtCs5iQXrcGAeg9_15gungraun_runner6runner4args22parse_callgrind_limits0s_0B9_
FNDA:0,_RNCNCNvNtNtCs5iQXrcGAeg9_15gungraun_runner6runner4args23parse_cachegrind_limits00B9_
FNDA:0,_RNCNCNvNtNtCs5iQXrcGAeg9_15gungraun_runner6runner4args23parse_cachegrind_limits0s_0B9_
FNDA:0,_RNCNCNvNtNtCs5iQXrcGAeg9_15gungraun_runner6runner4args23parse_callgrind_metrics00B9_
FNDA:0,_RNCNCNvNtNtCs5iQXrcGAeg9_15gungraun_runner6runner4args24parse_cachegrind_metrics00B9_
FNDA:0,_RNCNvNtNtCs5iQXrcGAeg9_15gungraun_runner6runner4args10parse_envs0B7_
FNDA:0,_RNCNvNtNtCs5iQXrcGAeg9_15gungraun_runner6runner4args10parse_envss0_0B7_
FNDA:0,_RNCNvNtNtCs5iQXrcGAeg9_15gungraun_runner6runner4args10parse_envss_0B7_
FNDA:0,_RNCNvNtNtCs5iQXrcGAeg9_15gungraun_runner6runner4args14parse_raw_args0B7_
FNDA:4,_RNCNvNtNtCs5iQXrcGAeg9_15gungraun_runner6runner4args15parse_tool_args0B7_
FNDA:0,_RNCNvNtNtCs5iQXrcGAeg9_15gungraun_runner6runner4args17parse_dhat_limits0B7_
FNDA:0,_RNCNvNtNtCs5iQXrcGAeg9_15gungraun_runner6runner4args18parse_dhat_metrics0B7_
FNDA:0,_RNCNvNtNtCs5iQXrcGAeg9_15gungraun_runner6runner4args19parse_error_metrics0B7_
FNDA:0,_RNCNvNtNtCs5iQXrcGAeg9_15gungraun_runner6runner4args19parse_error_metricss_0B7_
FNDA:0,_RNCNvNtNtCs5iQXrcGAeg9_15gungraun_runner6runner4args19parse_path_resolved0B7_
FNDA:0,_RNCNvNtNtCs5iQXrcGAeg9_15gungraun_runner6runner4args22parse_callgrind_limits0B7_
FNDA:0,_RNCNvNtNtCs5iQXrcGAeg9_15gungraun_runner6runner4args23parse_cachegrind_limits0B7_
FNDA:0,_RNCNvNtNtCs5iQXrcGAeg9_15gungraun_runner6runner4args23parse_callgrind_metrics0B7_
FNDA:0,_RNCNvNtNtCs5iQXrcGAeg9_15gungraun_runner6runner4args24parse_cachegrind_metrics0B7_
FNDA:0,_RNvMs0_NtNtCs34FkZ5Aug64_15gungraun_runner6runner4argsNtB5_9NoCapture5apply
FNDA:0,_RNvMs2_NtNtCs34FkZ5Aug64_15gungraun_runner6runner4argsNtB5_7RawArgs3len
FNDA:0,_RNvMs2_NtNtCs34FkZ5Aug64_15gungraun_runner6runner4argsNtB5_7RawArgs8as_slice
FNDA:0,_RNvMs2_NtNtCs34FkZ5Aug64_15gungraun_runner6runner4argsNtB5_7RawArgs8is_empty
FNDA:1,_RNvNtNtNtCs34FkZ5Aug64_15gungraun_runner6runner4args5testss_13test_home_cli
FNDA:1,_RNvNtNtNtCs34FkZ5Aug64_15gungraun_runner6runner4args5testss_21test_envs_arg_unicode
FNDA:1,_RNvNtNtNtCs34FkZ5Aug64_15gungraun_runner6runner4args5testss_21test_parse_envs_empty
FNDA:1,_RNvNtNtNtCs34FkZ5Aug64_15gungraun_runner6runner4args5testss_24test_arg_valgrind_runner
FNDA:1,_RNvNtNtNtCs34FkZ5Aug64_15gungraun_runner6runner4args5testss_26test_envs_arg_empty_string
FNDA:1,_RNvNtNtNtCs34FkZ5Aug64_15gungraun_runner6runner4args5testss_29test_envs_arg_missing_env_var
FNDA:1,_RNvNtNtNtCs34FkZ5Aug64_15gungraun_runner6runner4args5testss_30test_envs_arg_path_with_colons
FNDA:1,_RNvNtNtNtCs34FkZ5Aug64_15gungraun_runner6runner4args5testss_32test_envs_arg_multiple_delimited
FNDA:1,_RNvNtNtNtCs34FkZ5Aug64_15gungraun_runner6runner4args5testss_34test_envs_arg_multiple_invocations
FNDA:1,_RNvNtNtNtCs34FkZ5Aug64_15gungraun_runner6runner4args5testss_36test_valgrind_runner_args_when_twice
FNDA:1,_RNvNtNtNtCs34FkZ5Aug64_15gungraun_runner6runner4args5testss_38test_home_cli_when_no_value_then_error
FNDA:1,_RNvNtNtNtCs34FkZ5Aug64_15gungraun_runner6runner4args5testss_42test_arg_drd_metrics_when_empty_then_error
FNDA:1,_RNvNtNtNtCs34FkZ5Aug64_15gungraun_runner6runner4args5testss_42test_parse_tool_args_when_empty_then_error
FNDA:1,_RNvNtNtNtCs34FkZ5Aug64_15gungraun_runner6runner4args5testss_43test_arg_dhat_metrics_when_empty_then_error
FNDA:1,_RNvNtNtNtCs34FkZ5Aug64_15gungraun_runner6runner4args5testss_47test_arg_helgrind_metrics_when_empty_then_error
FNDA:1,_RNvNtNtNtCs34FkZ5Aug64_15gungraun_runner6runner4args5testss_47test_arg_memcheck_metrics_when_empty_then_error
FNDA:1,_RNvNtNtNtCs34FkZ5Aug64_15gungraun_runner6runner4args5testss_48test_arg_callgrind_metrics_when_empty_then_error
FNDA:1,_RNvNtNtNtCs34FkZ5Aug64_15gungraun_runner6runner4args5testss_49test_arg_cachegrind_metrics_when_empty_then_error
FNDA:1,_RNvNtNtNtCs34FkZ5Aug64_15gungraun_runner6runner4args5testss_50test_arg_valgrind_runner_when_directory_then_error
FNDA:1,_RNvNtNtNtCs34FkZ5Aug64_15gungraun_runner6runner4args5testss_55test_arg_valgrind_runner_when_not_executable_then_error
FNDA:0,_RNCNvNtNtNtCs34FkZ5Aug64_15gungraun_runner6runner4args5tests25test_valgrind_runner_args0B9_
FNDA:1,_RNCNvNtNtNtCs34FkZ5Aug64_15gungraun_runner6runner4args5testss_13test_home_env0B9_
FNDA:1,_RNCNvNtNtNtCs34FkZ5Aug64_15gungraun_runner6runner4args5testss_18test_env_clear_env0B9_
FNDA:1,_RNCNvNtNtNtCs34FkZ5Aug64_15gungraun_runner6runner4args5testss_18test_nocapture_env0B9_
FNDA:1,_RNCNvNtNtNtCs34FkZ5Aug64_15gungraun_runner6runner4args5testss_19test_allow_aslr_env0B9_
FNDA:1,_RNCNvNtNtNtCs34FkZ5Aug64_15gungraun_runner6runner4args5testss_21test_save_summary_env0B9_
FNDA:1,_RNCNvNtNtNtCs34FkZ5Aug64_15gungraun_runner6runner4args5testss_22test_env_clear_default0B9_
FNDA:1,_RNCNvNtNtNtCs34FkZ5Aug64_15gungraun_runner6runner4args5testss_23test_callgrind_args_env0B9_
FNDA:1,_RNCNvNtNtNtCs34FkZ5Aug64_15gungraun_runner6runner4args5testss_25test_separate_targets_env0B9_
FNDA:1,_RNCNvNtNtNtCs34FkZ5Aug64_15gungraun_runner6runner4args5testss_27test_arg_show_grid_when_env0B9_
FNDA:1,_RNCNvNtNtNtCs34FkZ5Aug64_15gungraun_runner6runner4args5testss_27test_arg_tolerance_when_env0B9_
FNDA:1,_RNCNvNtNtNtCs34FkZ5Aug64_15gungraun_runner6runner4args5testss_27test_parse_env_from_env_var0B9_
FNDA:1,_RNCNvNtNtNtCs34FkZ5Aug64_15gungraun_runner6runner4args5testss_29test_arg_drd_metrics_when_env0B9_
FNDA:1,_RNCNvNtNtNtCs34FkZ5Aug64_15gungraun_runner6runner4args5testss_29test_envs_arg_from_config_env0B9_
FNDA:1,_RNCNvNtNtNtCs34FkZ5Aug64_15gungraun_runner6runner4args5testss_29test_envs_arg_partial_resolve0B9_
FNDA:1,_RNCNvNtNtNtCs34FkZ5Aug64_15gungraun_runner6runner4args5testss_30test_arg_dhat_metrics_when_env0B9_
FNDA:1,_RNCNvNtNtNtCs34FkZ5Aug64_15gungraun_runner6runner4args5testss_30test_envs_arg_all_missing_vars0B9_
FNDA:1,_RNCNvNtNtNtCs34FkZ5Aug64_15gungraun_runner6runner4args5testss_30test_envs_arg_mixed_resolution0B9_
FNDA:1,_RNCNvNtNtNtCs34FkZ5Aug64_15gungraun_runner6runner4args5testss_30test_envs_arg_resolve_from_env0B9_
FNDA:1,_RNCNvNtNtNtCs34FkZ5Aug64_15gungraun_runner6runner4args5testss_31test_parse_envs_missing_env_var0B9_
FNDA:1,_RNCNvNtNtNtCs34FkZ5Aug64_15gungraun_runner6runner4args5testss_34test_arg_helgrind_metrics_when_env0B9_
FNDA:1,_RNCNvNtNtNtCs34FkZ5Aug64_15gungraun_runner6runner4args5testss_34test_arg_memcheck_metrics_when_env0B9_
FNDA:1,_RNCNvNtNtNtCs34FkZ5Aug64_15gungraun_runner6runner4args5testss_35test_arg_callgrind_metrics_when_env0B9_
FNDA:1,_RNCNvNtNtNtCs34FkZ5Aug64_15gungraun_runner6runner4args5testss_35test_arg_show_intermediate_when_env0B9_
FNDA:1,_RNCNvNtNtNtCs34FkZ5Aug64_15gungraun_runner6runner4args5testss_36test_arg_cachegrind_metrics_when_env0B9_
FNDA:1,_RNCNvNtNtNtCs34FkZ5Aug64_15gungraun_runner6runner4args5testss_38test_arg_truncate_description_when_env0B9_
FNDA:1,_RNCNvNtNtNtCs34FkZ5Aug64_15gungraun_runner6runner4args5testss_49test_callgrind_args_cli_takes_precedence_over_env0B9_
FNDA:0,_RNvMNtNtCs34FkZ5Aug64_15gungraun_runner6runner4argsNtB2_15BenchmarkFilter5apply
FNDA:37,_RNvNtNtCs34FkZ5Aug64_15gungraun_runner6runner4args10parse_envs
FNDA:107,_RNvNtNtCs34FkZ5Aug64_15gungraun_runner6runner4args14parse_parallel
FNDA:23,_RNvNtNtCs34FkZ5Aug64_15gungraun_runner6runner4args14parse_raw_args
FNDA:107,_RNvNtNtCs34FkZ5Aug64_15gungraun_runner6runner4args15parse_nocapture
FNDA:15,_RNvNtNtCs34FkZ5Aug64_15gungraun_runner6runner4args15parse_tool_args
FNDA:0,_RNvNtNtCs34FkZ5Aug64_15gungraun_runner6runner4args17parse_dhat_limits
FNDA:5,_RNvNtNtCs34FkZ5Aug64_15gungraun_runner6runner4args17parse_drd_metrics
FNDA:5,_RNvNtNtCs34FkZ5Aug64_15gungraun_runner6runner4args18parse_dhat_metrics
FNDA:15,_RNvNtNtCs34FkZ5Aug64_15gungraun_runner6runner4args19parse_error_metrics
FNDA:10,_RNvNtNtCs34FkZ5Aug64_15gungraun_runner6runner4args19parse_path_resolved
FNDA:21,_RNvNtNtCs34FkZ5Aug64_15gungraun_runner6runner4args22parse_callgrind_limits
FNDA:5,_RNvNtNtCs34FkZ5Aug64_15gungraun_runner6runner4args22parse_helgrind_metrics
FNDA:5,_RNvNtNtCs34FkZ5Aug64_15gungraun_runner6runner4args22parse_memcheck_metrics
FNDA:0,_RNvNtNtCs34FkZ5Aug64_15gungraun_runner6runner4args23parse_cachegrind_limits
FNDA:14,_RNvNtNtCs34FkZ5Aug64_15gungraun_runner6runner4args23parse_callgrind_metrics
FNDA:5,_RNvNtNtCs34FkZ5Aug64_15gungraun_runner6runner4args24parse_cachegrind_metrics
FNDA:5,_RNvNtNtCs34FkZ5Aug64_15gungraun_runner6runner4args26parse_truncate_description
FNDA:0,_RNvXs_NtNtCs34FkZ5Aug64_15gungraun_runner6runner4argsNtB4_15BenchmarkFilterNtNtNtCsgEmfK2I1SDS_4core3str6traits7FromStr8from_str
FNDA:0,_RINvNtNtCs34FkZ5Aug64_15gungraun_runner6runner4args12parse_limitsNtNtB6_3api10DhatMetricEB6_
FNDA:0,_RINvNtNtCs34FkZ5Aug64_15gungraun_runner6runner4args12parse_limitsNtNtB6_3api16CachegrindMetricEB6_
FNDA:21,_RINvNtNtCs34FkZ5Aug64_15gungraun_runner6runner4args12parse_limitsNtNtB6_3api9EventKindEB6_
FNDA:0,_RINvNtNtCs34FkZ5Aug64_15gungraun_runner6runner4args14convert_metricNtNtB6_3api10DhatMetricEB6_
FNDA:0,_RINvNtNtCs34FkZ5Aug64_15gungraun_runner6runner4args14convert_metricNtNtB6_3api16CachegrindMetricEB6_
FNDA:33,_RINvNtNtCs34FkZ5Aug64_15gungraun_runner6runner4args14convert_metricNtNtB6_3api9EventKindEB6_
FNDA:5,_RINvNtNtCs34FkZ5Aug64_15gungraun_runner6runner4args18parse_tool_metricsNtNtB6_3api10DhatMetricEB6_
FNDA:15,_RINvNtNtCs34FkZ5Aug64_15gungraun_runner6runner4args18parse_tool_metricsNtNtB6_3api11ErrorMetricEB6_
FNDA:5,_RINvNtNtCs34FkZ5Aug64_15gungraun_runner6runner4args18parse_tool_metricsNtNtB6_3api16CachegrindMetricEB6_
FNDA:14,_RINvNtNtCs34FkZ5Aug64_15gungraun_runner6runner4args18parse_tool_metricsNtNtB6_3api9EventKindEB6_
FNDA:0,_RNCINvNtNtCs34FkZ5Aug64_15gungraun_runner6runner4args12parse_limitsNtNtB8_3api10DhatMetricE0B8_
FNDA:0,_RNCINvNtNtCs34FkZ5Aug64_15gungraun_runner6runner4args12parse_limitsNtNtB8_3api10DhatMetricEs_0B8_
FNDA:0,_RNCINvNtNtCs34FkZ5Aug64_15gungraun_runner6runner4args12parse_limitsNtNtB8_3api16CachegrindMetricE0B8_
FNDA:0,_RNCINvNtNtCs34FkZ5Aug64_15gungraun_runner6runner4args12parse_limitsNtNtB8_3api16CachegrindMetricEs_0B8_
FNDA:1,_RNCINvNtNtCs34FkZ5Aug64_15gungraun_runner6runner4args12parse_limitsNtNtB8_3api9EventKindE0B8_
FNDA:1,_RNCINvNtNtCs34FkZ5Aug64_15gungraun_runner6runner4args12parse_limitsNtNtB8_3api9EventKindEs_0B8_
FNDA:0,_RNCINvNtNtCs34FkZ5Aug64_15gungraun_runner6runner4args14convert_metricNtNtB8_3api10DhatMetricE0B8_
FNDA:0,_RNCINvNtNtCs34FkZ5Aug64_15gungraun_runner6runner4args14convert_metricNtNtB8_3api10DhatMetricEs_0B8_
FNDA:0,_RNCINvNtNtCs34FkZ5Aug64_15gungraun_runner6runner4args14convert_metricNtNtB8_3api16CachegrindMetricE0B8_
FNDA:0,_RNCINvNtNtCs34FkZ5Aug64_15gungraun_runner6runner4args14convert_metricNtNtB8_3api16CachegrindMetricEs_0B8_
FNDA:1,_RNCINvNtNtCs34FkZ5Aug64_15gungraun_runner6runner4args14convert_metricNtNtB8_3api9EventKindE0B8_
FNDA:13,_RNCINvNtNtCs34FkZ5Aug64_15gungraun_runner6runner4args14convert_metricNtNtB8_3api9EventKindEs_0B8_
FNDA:3,_RNCNCNvNtNtCs34FkZ5Aug64_15gungraun_runner6runner4args10parse_envss_00B9_
FNDA:0,_RNCNCNvNtNtCs34FkZ5Aug64_15gungraun_runner6runner4args17parse_dhat_limits00B9_
FNDA:0,_RNCNCNvNtNtCs34FkZ5Aug64_15gungraun_runner6runner4args17parse_dhat_limits0s_0B9_
FNDA:2,_RNCNCNvNtNtCs34FkZ5Aug64_15gungraun_runner6runner4args18parse_dhat_metrics00B9_
FNDA:1,_RNCNCNvNtNtCs34FkZ5Aug64_15gungraun_runner6runner4args22parse_callgrind_limits00B9_
FNDA:33,_RNCNCNvNtNtCs34FkZ5Aug64_15gungraun_runner6runner4args22parse_callgrind_limits0s_0B9_
FNDA:0,_RNCNCNvNtNtCs34FkZ5Aug64_15gungraun_runner6runner4args23parse_cachegrind_limits00B9_
FNDA:0,_RNCNCNvNtNtCs34FkZ5Aug64_15gungraun_runner6runner4args23parse_cachegrind_limits0s_0B9_
FNDA:3,_RNCNCNvNtNtCs34FkZ5Aug64_15gungraun_runner6runner4args23parse_callgrind_metrics00B9_
FNDA:2,_RNCNCNvNtNtCs34FkZ5Aug64_15gungraun_runner6runner4args24parse_cachegrind_metrics00B9_
FNDA:7,_RNCNvNtNtCs34FkZ5Aug64_15gungraun_runner6runner4args10parse_envs0B7_
FNDA:1,_RNCNvNtNtCs34FkZ5Aug64_15gungraun_runner6runner4args10parse_envss0_0B7_
FNDA:30,_RNCNvNtNtCs34FkZ5Aug64_15gungraun_runner6runner4args10parse_envss_0B7_
FNDA:0,_RNCNvNtNtCs34FkZ5Aug64_15gungraun_runner6runner4args14parse_raw_args0B7_
FNDA:14,_RNCNvNtNtCs34FkZ5Aug64_15gungraun_runner6runner4args15parse_tool_args0B7_
FNDA:0,_RNCNvNtNtCs34FkZ5Aug64_15gungraun_runner6runner4args17parse_dhat_limits0B7_
FNDA:5,_RNCNvNtNtCs34FkZ5Aug64_15gungraun_runner6runner4args18parse_dhat_metrics0B7_
FNDA:12,_RNCNvNtNtCs34FkZ5Aug64_15gungraun_runner6runner4args19parse_error_metrics0B7_
FNDA:3,_RNCNvNtNtCs34FkZ5Aug64_15gungraun_runner6runner4args19parse_error_metricss_0B7_
FNDA:2,_RNCNvNtNtCs34FkZ5Aug64_15gungraun_runner6runner4args19parse_path_resolved0B7_
FNDA:24,_RNCNvNtNtCs34FkZ5Aug64_15gungraun_runner6runner4args22parse_callgrind_limits0B7_
FNDA:0,_RNCNvNtNtCs34FkZ5Aug64_15gungraun_runner6runner4args23parse_cachegrind_limits0B7_
FNDA:17,_RNCNvNtNtCs34FkZ5Aug64_15gungraun_runner6runner4args23parse_callgrind_metrics0B7_
FNDA:5,_RNCNvNtNtCs34FkZ5Aug64_15gungraun_runner6runner4args24parse_cachegrind_metrics0B7_
FNDA:0,_RNvXs1_NtNtCs34FkZ5Aug64_15gungraun_runner6runner4argsINtNtCsgEmfK2I1SDS_4core6option6OptionjEINtNtBV_7convert4FromNtB5_19TruncateDescriptionE4from
FNF:102
FNH:86
DA:1466,0
DA:1467,0
DA:1468,0
DA:1469,0
DA:1475,0
DA:1476,0
DA:1477,0
DA:1482,8
DA:1483,8
DA:1484,8
DA:1485,8
DA:1486,8
DA:1487,8
DA:1488,0
DA:1490,0
DA:1491,0
DA:1492,0
DA:1494,0
DA:1495,0
DA:1496,0
DA:1497,0
DA:1499,0
DA:1500,0
DA:1501,0
DA:1502,0
DA:1504,0
DA:1505,0
DA:1506,0
DA:1507,0
DA:1509,0
DA:1510,0
DA:1511,0
DA:1512,8
DA:1513,8
DA:1514,8
DA:1515,0
DA:1516,0
DA:1517,0
DA:1518,0
DA:1519,0
DA:1520,0
DA:1523,8
DA:1524,8
DA:1528,0
DA:1529,0
DA:1530,0
DA:1531,0
DA:1533,0
DA:1538,0
DA:1539,0
DA:1540,0
DA:1543,0
DA:1544,0
DA:1545,0
DA:1548,0
DA:1549,0
DA:1550,0
DA:1556,33
DA:1557,33
DA:1558,33
DA:1559,33
DA:1560,33
DA:1561,14
DA:1562,14
DA:1563,14
DA:1564,1
DA:1569,1
DA:1570,14
DA:1572,19
DA:1574,33
DA:1577,0
DA:1578,0
DA:1579,0
DA:1580,0
DA:1581,0
DA:1582,0
DA:1583,0
DA:1584,0
DA:1585,0
DA:1586,0
DA:1588,0
DA:1589,0
DA:1590,0
DA:1591,0
DA:1592,0
DA:1594,0
DA:1595,0
DA:1598,5
DA:1599,5
DA:1600,5
DA:1601,5
DA:1602,5
DA:1603,5
DA:1604,5
DA:1613,21
DA:1614,24
DA:1615,24
DA:1616,24
DA:1617,24
DA:1618,23
DA:1619,23
DA:1620,33
DA:1621,23
DA:1622,24
DA:1624,15
DA:1625,15
DA:1626,15
DA:1627,15
DA:1628,15
DA:1630,15
DA:1631,21
DA:1634,14
DA:1635,17
DA:1636,17
DA:1637,17
DA:1638,17
DA:1639,17
DA:1640,14
DA:1643,0
DA:1644,0
DA:1645,0
DA:1646,0
DA:1647,0
DA:1648,0
DA:1649,0
DA:1650,0
DA:1651,0
DA:1652,0
DA:1654,0
DA:1655,0
DA:1656,0
DA:1657,0
DA:1658,0
DA:1660,0
DA:1661,0
DA:1664,5
DA:1665,5
DA:1666,5
DA:1667,5
DA:1668,5
DA:1669,5
DA:1670,5
DA:1673,5
DA:1674,5
DA:1675,5
DA:1678,37
DA:1679,37
DA:1680,37
DA:1681,37
DA:1682,37
DA:1683,37
DA:1684,37
DA:1686,37
DA:1687,37
DA:1689,36
DA:1690,43
DA:1691,43
DA:1692,32
DA:1693,2
DA:1694,30
DA:1696,30
DA:1697,11
DA:1698,4
DA:1699,7
DA:1700,7
DA:1701,7
DA:1704,34
DA:1705,37
DA:1707,15
DA:1708,15
DA:1709,6
DA:1710,12
DA:1711,12
DA:1712,12
DA:1713,12
DA:1715,3
DA:1718,9
DA:1719,9
DA:1720,9
DA:1721,6
DA:1723,15
DA:1726,5
DA:1727,5
DA:1728,5
DA:1730,21
DA:1731,21
DA:1732,21
DA:1733,21
DA:1734,21
DA:1735,21
DA:1736,1
DA:1737,20
DA:1739,20
DA:1740,20
DA:1742,26
DA:1743,26
DA:1745,26
DA:1746,25
DA:1747,26
DA:1748,26
DA:1750,26
DA:1751,14
DA:1752,1
DA:1753,1
DA:1754,13
DA:1755,19
DA:1756,19
DA:1757,19
DA:1759,12
DA:1760,1
DA:1761,1
DA:1762,11
DA:1763,13
DA:1764,13
DA:1765,13
DA:1766,13
DA:1767,0
DA:1768,0
DA:1773,1
DA:1777,15
DA:1778,21
DA:1781,5
DA:1782,5
DA:1783,5
DA:1786,123
DA:1791,123
DA:1793,123
DA:1794,3
DA:1795,120
DA:1796,118
DA:1797,2
DA:1798,1
DA:1799,1
DA:1800,1
DA:1802,0
DA:1804,123
DA:1807,123
DA:1808,123
DA:1810,123
DA:1811,0
DA:1812,123
DA:1813,123
DA:1814,123
DA:1816,0
DA:1819,0
DA:1821,123
DA:1823,10
DA:1824,10
DA:1825,10
DA:1828,27
DA:1829,27
DA:1830,1
DA:1831,26
DA:1832,26
DA:1833,8
DA:1834,18
DA:1837,0
DA:1840,26
DA:1841,26
DA:1842,26
DA:1843,27
DA:1847,19
DA:1848,19
DA:1849,19
DA:1852,39
DA:1853,39
DA:1854,39
DA:1855,39
DA:1856,39
DA:1857,39
DA:1858,1
DA:1859,38
DA:1861,38
DA:1863,42
DA:1864,42
DA:1865,42
DA:1866,29
DA:1869,25
DA:1870,39
DA:1872,5
DA:1878,5
DA:1880,5
DA:1881,0
DA:1882,5
DA:1883,3
DA:1884,2
DA:1885,2
DA:1887,0
DA:1889,5
DA:1918,1
DA:1919,1
DA:1920,1
DA:2017,1
DA:2018,1
DA:2020,1
DA:2021,1
DA:2022,1
DA:2023,1
DA:2024,1
DA:2026,1
DA:2048,1
DA:2049,1
DA:2050,1
DA:2052,1
DA:2053,1
DA:2054,1
DA:2055,1
DA:2056,1
DA:2058,1
DA:2064,1
DA:2066,1
DA:2067,1
DA:2068,1
DA:2069,1
DA:2070,1
DA:2088,1
DA:2090,1
DA:2091,1
DA:2092,1
DA:2093,1
DA:2094,1
DA:2112,1
DA:2114,1
DA:2115,1
DA:2116,1
DA:2117,1
DA:2118,1
DA:2136,1
DA:2138,1
DA:2139,1
DA:2140,1
DA:2141,1
DA:2142,1
DA:2146,1
DA:2147,1
DA:2148,1
DA:2149,1
DA:2152,1
DA:2153,1
DA:2154,1
DA:2155,1
DA:2174,1
DA:2176,1
DA:2177,1
DA:2178,1
DA:2179,1
DA:2180,1
DA:2270,1
DA:2271,1
DA:2272,1
DA:2276,1
DA:2278,1
DA:2279,1
DA:2280,1
DA:2281,1
DA:2282,1
DA:2284,1
DA:2307,1
DA:2308,1
DA:2309,1
DA:2313,1
DA:2315,1
DA:2316,1
DA:2317,1
DA:2318,1
DA:2319,1
DA:2321,1
DA:2340,1
DA:2341,1
DA:2342,1
DA:2346,1
DA:2348,1
DA:2349,1
DA:2350,1
DA:2351,1
DA:2352,1
DA:2354,1
DA:2378,1
DA:2379,1
DA:2380,1
DA:2384,1
DA:2386,1
DA:2387,1
DA:2388,1
DA:2389,1
DA:2390,1
DA:2392,1
DA:2416,1
DA:2417,1
DA:2418,1
DA:2422,1
DA:2424,1
DA:2425,1
DA:2426,1
DA:2427,1
DA:2428,1
DA:2430,1
DA:2454,1
DA:2455,1
DA:2456,1
DA:2460,1
DA:2462,1
DA:2463,1
DA:2464,1
DA:2465,1
DA:2466,1
DA:2468,1
DA:2482,1
DA:2484,1
DA:2485,1
DA:2486,1
DA:2487,1
DA:2488,1
DA:2502,1
DA:2504,1
DA:2505,1
DA:2506,1
DA:2507,1
DA:2508,1
DA:2522,1
DA:2524,1
DA:2525,1
DA:2526,1
DA:2527,1
DA:2528,1
DA:2543,1
DA:2545,1
DA:2546,1
DA:2547,1
DA:2548,1
DA:2549,1
DA:2553,1
DA:2554,1
DA:2555,1
DA:2556,1
DA:2557,1
DA:2558,1
DA:2559,1
DA:2560,1
DA:2561,1
DA:2562,1
DA:2564,1
DA:2565,1
DA:2568,1
DA:2569,1
DA:2570,1
DA:2571,1
DA:2572,1
DA:2573,1
DA:2574,1
DA:2575,1
DA:2578,1
DA:2579,1
DA:2580,1
DA:2581,1
DA:2582,1
DA:2583,1
DA:2584,1
DA:2585,1
DA:2600,0
DA:2609,1
DA:2610,1
DA:2611,1
DA:2612,1
DA:2613,1
DA:2614,1
DA:2615,1
DA:2616,1
DA:2618,1
DA:2619,1
DA:2620,1
DA:2623,1
DA:2627,1
DA:2629,1
DA:2630,1
DA:2631,1
DA:2632,1
DA:2633,1
DA:2638,1
DA:2640,1
DA:2641,1
DA:2642,1
DA:2643,1
DA:2644,1
DA:2646,1
DA:2647,1
DA:2648,1
DA:2672,1
DA:2673,1
DA:2674,1
DA:2676,1
DA:2677,1
DA:2681,1
DA:2682,1
DA:2683,1
DA:2684,1
DA:2685,1
DA:2689,1
DA:2691,1
DA:2692,1
DA:2693,1
DA:2694,1
DA:2695,1
DA:2696,1
DA:2697,1
DA:2700,1
DA:2701,1
DA:2702,1
DA:2706,1
DA:2707,1
DA:2708,1
DA:2709,1
DA:2713,1
DA:2715,1
DA:2716,1
DA:2717,1
DA:2718,1
DA:2719,1
DA:2720,1
DA:2721,1
DA:2722,1
DA:2723,1
DA:2724,1
DA:2725,1
DA:2729,1
DA:2730,1
DA:2731,1
DA:2735,1
DA:2736,1
DA:2737,1
DA:2738,1
DA:2739,1
DA:2740,1
DA:2741,1
DA:2742,1
DA:2745,1
DA:2748,1
DA:2749,1
DA:2750,1
DA:2752,1
DA:2753,1
DA:2754,1
DA:2757,1
DA:2761,1
DA:2763,1
DA:2764,1
DA:2765,1
DA:2766,1
DA:2767,1
DA:2768,1
DA:2769,1
DA:2770,1
DA:2773,1
DA:2774,1
DA:2775,1
DA:2779,1
DA:2780,1
DA:2781,1
DA:2782,1
DA:2783,1
DA:2785,1
DA:2789,1
DA:2791,1
DA:2792,1
DA:2793,1
DA:2794,1
DA:2795,1
DA:2796,1
DA:2797,1
DA:2798,1
DA:2799,1
DA:2800,1
DA:2803,1
DA:2804,1
DA:2805,1
DA:2863,1
DA:2864,1
DA:2865,1
DA:2866,1
DA:2867,1
DA:2869,1
DA:2873,1
DA:2875,1
DA:2876,1
DA:2877,1
DA:2878,1
DA:2879,1
DA:2881,1
DA:2882,1
DA:2883,1
DA:2884,1
DA:2887,1
DA:2888,1
DA:2889,1
DA:2893,1
DA:2894,1
DA:2895,1
DA:2896,1
DA:2900,1
DA:2901,1
DA:2902,1
BRF:0
BRH:0
LF:634
LH:535
end_of_record
SF:/fast/lenny/workspace/programming/gungraun/gungraun/gungraun-runner/src/runner/bin_bench.rs
FN:442,_RNvMs0_NtNtCs5iQXrcGAeg9_15gungraun_runner6runner9bin_benchNtB5_7Command3new
FN:453,_RNvMs1_NtNtCs5iQXrcGAeg9_15gungraun_runner6runner9bin_benchNtB5_5Delay3new
FN:495,_RNvMs1_NtNtCs5iQXrcGAeg9_15gungraun_runner6runner9bin_benchNtB5_5Delay4exec
FN:462,_RNvMs1_NtNtCs5iQXrcGAeg9_15gungraun_runner6runner9bin_benchNtB5_5Delay5apply
FN:242,_RNvMs_NtNtCs5iQXrcGAeg9_15gungraun_runner6runner9bin_benchNtB4_8BinBench12is_fail_fast
FN:411,_RNvMs_NtNtCs5iQXrcGAeg9_15gungraun_runner6runner9bin_benchNtB4_8BinBench24create_benchmark_summary
FN:264,_RNvMs_NtNtCs5iQXrcGAeg9_15gungraun_runner6runner9bin_benchNtB4_8BinBench3new
FN:403,_RNvMs_NtNtCs5iQXrcGAeg9_15gungraun_runner6runner9bin_benchNtB4_8BinBench4name
FN:743,_RNvNtNtCs5iQXrcGAeg9_15gungraun_runner6runner9bin_bench17benchmark_factory
FN:778,_RNvNtNtCs5iQXrcGAeg9_15gungraun_runner6runner9bin_bench3run
FN:772,_RNvNtNtCs5iQXrcGAeg9_15gungraun_runner6runner9bin_bench4list
FN:228,_RNvXNtNtCs5iQXrcGAeg9_15gungraun_runner6runner9bin_benchNtB2_17BaselineBenchmarkNtB2_9Benchmark14data_processor
FN:162,_RNvXNtNtCs5iQXrcGAeg9_15gungraun_runner6runner9bin_benchNtB2_17BaselineBenchmarkNtB2_9Benchmark19default_output_path
FN:198,_RNvXNtNtCs5iQXrcGAeg9_15gungraun_runner6runner9bin_benchNtB2_17BaselineBenchmarkNtB2_9Benchmark3run
FN:191,_RNvXNtNtCs5iQXrcGAeg9_15gungraun_runner6runner9bin_benchNtB2_17BaselineBenchmarkNtB2_9Benchmark9baselines
FN:553,_RNvXs2_NtNtCs5iQXrcGAeg9_15gungraun_runner6runner9bin_benchNtB5_5DelayINtNtCsgEmfK2I1SDS_4core7convert4FromNtNtB9_3api5DelayE4from
FN:647,_RNvXs3_NtNtCs5iQXrcGAeg9_15gungraun_runner6runner9bin_benchNtB5_21LoadBaselineBenchmarkNtB5_9Benchmark14data_processor
FN:599,_RNvXs3_NtNtCs5iQXrcGAeg9_15gungraun_runner6runner9bin_benchNtB5_21LoadBaselineBenchmarkNtB5_9Benchmark19default_output_path
FN:629,_RNvXs3_NtNtCs5iQXrcGAeg9_15gungraun_runner6runner9bin_benchNtB5_21LoadBaselineBenchmarkNtB5_9Benchmark3run
FN:622,_RNvXs3_NtNtCs5iQXrcGAeg9_15gungraun_runner6runner9bin_benchNtB5_21LoadBaselineBenchmarkNtB5_9Benchmark9baselines
FN:726,_RNvXs4_NtNtCs5iQXrcGAeg9_15gungraun_runner6runner9bin_benchNtB5_21SaveBaselineBenchmarkNtB5_9Benchmark14data_processor
FN:660,_RNvXs4_NtNtCs5iQXrcGAeg9_15gungraun_runner6runner9bin_benchNtB5_21SaveBaselineBenchmarkNtB5_9Benchmark19default_output_path
FN:696,_RNvXs4_NtNtCs5iQXrcGAeg9_15gungraun_runner6runner9bin_benchNtB5_21SaveBaselineBenchmarkNtB5_9Benchmark3run
FN:689,_RNvXs4_NtNtCs5iQXrcGAeg9_15gungraun_runner6runner9bin_benchNtB5_21SaveBaselineBenchmarkNtB5_9Benchmark9baselines
FN:472,_RNCNCNvMs1_NtNtCs5iQXrcGAeg9_15gungraun_runner6runner9bin_benchNtB9_5Delay5apply00Bd_
FN:470,_RNCNvMs1_NtNtCs5iQXrcGAeg9_15gungraun_runner6runner9bin_benchNtB7_5Delay5apply0Bb_
FN:481,_RNCNvMs1_NtNtCs5iQXrcGAeg9_15gungraun_runner6runner9bin_benchNtB7_5Delay5applys_0Bb_
FN:246,_RNCNvMs_NtNtCs5iQXrcGAeg9_15gungraun_runner6runner9bin_benchNtB6_8BinBench12is_fail_fast0Ba_
FN:423,_RNCNvMs_NtNtCs5iQXrcGAeg9_15gungraun_runner6runner9bin_benchNtB6_8BinBench24create_benchmark_summary0Ba_
FN:283,_RNCNvMs_NtNtCs5iQXrcGAeg9_15gungraun_runner6runner9bin_benchNtB6_8BinBench3new0Ba_
FN:313,_RNCNvMs_NtNtCs5iQXrcGAeg9_15gungraun_runner6runner9bin_benchNtB6_8BinBench3news0_0Ba_
FN:347,_RNCNvMs_NtNtCs5iQXrcGAeg9_15gungraun_runner6runner9bin_benchNtB6_8BinBench3news1_0Ba_
FN:355,_RNCNvMs_NtNtCs5iQXrcGAeg9_15gungraun_runner6runner9bin_benchNtB6_8BinBench3news2_0Ba_
FN:384,_RNCNvMs_NtNtCs5iQXrcGAeg9_15gungraun_runner6runner9bin_benchNtB6_8BinBench3news3_0Ba_
FN:301,_RNCNvMs_NtNtCs5iQXrcGAeg9_15gungraun_runner6runner9bin_benchNtB6_8BinBench3news_0Ba_
FN:766,_RNCNvNtNtCs5iQXrcGAeg9_15gungraun_runner6runner9bin_bench17benchmark_factory0B7_
FN:566,_RNCNvXs2_NtNtCs5iQXrcGAeg9_15gungraun_runner6runner9bin_benchNtB7_5DelayINtNtCsgEmfK2I1SDS_4core7convert4FromNtNtBb_3api5DelayE4from0Bb_
FN:569,_RNCNvXs2_NtNtCs5iQXrcGAeg9_15gungraun_runner6runner9bin_benchNtB7_5DelayINtNtCsgEmfK2I1SDS_4core7convert4FromNtNtBb_3api5DelayE4froms0_0Bb_
FN:568,_RNCNvXs2_NtNtCs5iQXrcGAeg9_15gungraun_runner6runner9bin_benchNtB7_5DelayINtNtCsgEmfK2I1SDS_4core7convert4FromNtNtBb_3api5DelayE4froms_0Bb_
FN:472,_RNCNCNvMs1_NtNtCs34FkZ5Aug64_15gungraun_runner6runner9bin_benchNtB9_5Delay5apply00Bd_
FN:470,_RNCNvMs1_NtNtCs34FkZ5Aug64_15gungraun_runner6runner9bin_benchNtB7_5Delay5apply0Bb_
FN:481,_RNCNvMs1_NtNtCs34FkZ5Aug64_15gungraun_runner6runner9bin_benchNtB7_5Delay5applys_0Bb_
FN:566,_RNCNvXs2_NtNtCs34FkZ5Aug64_15gungraun_runner6runner9bin_benchNtB7_5DelayINtNtCsgEmfK2I1SDS_4core7convert4FromNtNtBb_3api5DelayE4from0Bb_
FN:569,_RNCNvXs2_NtNtCs34FkZ5Aug64_15gungraun_runner6runner9bin_benchNtB7_5DelayINtNtCsgEmfK2I1SDS_4core7convert4FromNtNtBb_3api5DelayE4froms0_0Bb_
FN:568,_RNCNvXs2_NtNtCs34FkZ5Aug64_15gungraun_runner6runner9bin_benchNtB7_5DelayINtNtCsgEmfK2I1SDS_4core7convert4FromNtNtBb_3api5DelayE4froms_0Bb_
FN:246,_RNCNvMs_NtNtCs34FkZ5Aug64_15gungraun_runner6runner9bin_benchNtB6_8BinBench12is_fail_fast0Ba_
FN:423,_RNCNvMs_NtNtCs34FkZ5Aug64_15gungraun_runner6runner9bin_benchNtB6_8BinBench24create_benchmark_summary0Ba_
FN:283,_RNCNvMs_NtNtCs34FkZ5Aug64_15gungraun_runner6runner9bin_benchNtB6_8BinBench3new0Ba_
FN:313,_RNCNvMs_NtNtCs34FkZ5Aug64_15gungraun_runner6runner9bin_benchNtB6_8BinBench3news0_0Ba_
FN:347,_RNCNvMs_NtNtCs34FkZ5Aug64_15gungraun_runner6runner9bin_benchNtB6_8BinBench3news1_0Ba_
FN:355,_RNCNvMs_NtNtCs34FkZ5Aug64_15gungraun_runner6runner9bin_benchNtB6_8BinBench3news2_0Ba_
FN:384,_RNCNvMs_NtNtCs34FkZ5Aug64_15gungraun_runner6runner9bin_benchNtB6_8BinBench3news3_0Ba_
FN:301,_RNCNvMs_NtNtCs34FkZ5Aug64_15gungraun_runner6runner9bin_benchNtB6_8BinBench3news_0Ba_
FN:766,_RNCNvNtNtCs34FkZ5Aug64_15gungraun_runner6runner9bin_bench17benchmark_factory0B7_
FN:442,_RNvMs0_NtNtCs34FkZ5Aug64_15gungraun_runner6runner9bin_benchNtB5_7Command3new
FN:242,_RNvMs_NtNtCs34FkZ5Aug64_15gungraun_runner6runner9bin_benchNtB4_8BinBench12is_fail_fast
FN:411,_RNvMs_NtNtCs34FkZ5Aug64_15gungraun_runner6runner9bin_benchNtB4_8BinBench24create_benchmark_summary
FN:264,_RNvMs_NtNtCs34FkZ5Aug64_15gungraun_runner6runner9bin_benchNtB4_8BinBench3new
FN:403,_RNvMs_NtNtCs34FkZ5Aug64_15gungraun_runner6runner9bin_benchNtB4_8BinBench4name
FN:743,_RNvNtNtCs34FkZ5Aug64_15gungraun_runner6runner9bin_bench17benchmark_factory
FN:778,_RNvNtNtCs34FkZ5Aug64_15gungraun_runner6runner9bin_bench3run
FN:772,_RNvNtNtCs34FkZ5Aug64_15gungraun_runner6runner9bin_bench4list
FN:228,_RNvXNtNtCs34FkZ5Aug64_15gungraun_runner6runner9bin_benchNtB2_17BaselineBenchmarkNtB2_9Benchmark14data_processor
FN:162,_RNvXNtNtCs34FkZ5Aug64_15gungraun_runner6runner9bin_benchNtB2_17BaselineBenchmarkNtB2_9Benchmark19default_output_path
FN:198,_RNvXNtNtCs34FkZ5Aug64_15gungraun_runner6runner9bin_benchNtB2_17BaselineBenchmarkNtB2_9Benchmark3run
FN:191,_RNvXNtNtCs34FkZ5Aug64_15gungraun_runner6runner9bin_benchNtB2_17BaselineBenchmarkNtB2_9Benchmark9baselines
FN:647,_RNvXs3_NtNtCs34FkZ5Aug64_15gungraun_runner6runner9bin_benchNtB5_21LoadBaselineBenchmarkNtB5_9Benchmark14data_processor
FN:599,_RNvXs3_NtNtCs34FkZ5Aug64_15gungraun_runner6runner9bin_benchNtB5_21LoadBaselineBenchmarkNtB5_9Benchmark19default_output_path
FN:629,_RNvXs3_NtNtCs34FkZ5Aug64_15gungraun_runner6runner9bin_benchNtB5_21LoadBaselineBenchmarkNtB5_9Benchmark3run
FN:622,_RNvXs3_NtNtCs34FkZ5Aug64_15gungraun_runner6runner9bin_benchNtB5_21LoadBaselineBenchmarkNtB5_9Benchmark9baselines
FN:726,_RNvXs4_NtNtCs34FkZ5Aug64_15gungraun_runner6runner9bin_benchNtB5_21SaveBaselineBenchmarkNtB5_9Benchmark14data_processor
FN:660,_RNvXs4_NtNtCs34FkZ5Aug64_15gungraun_runner6runner9bin_benchNtB5_21SaveBaselineBenchmarkNtB5_9Benchmark19default_output_path
FN:696,_RNvXs4_NtNtCs34FkZ5Aug64_15gungraun_runner6runner9bin_benchNtB5_21SaveBaselineBenchmarkNtB5_9Benchmark3run
FN:689,_RNvXs4_NtNtCs34FkZ5Aug64_15gungraun_runner6runner9bin_benchNtB5_21SaveBaselineBenchmarkNtB5_9Benchmark9baselines
FN:453,_RNvMs1_NtNtCs34FkZ5Aug64_15gungraun_runner6runner9bin_benchNtB5_5Delay3new
FN:495,_RNvMs1_NtNtCs34FkZ5Aug64_15gungraun_runner6runner9bin_benchNtB5_5Delay4exec
FN:462,_RNvMs1_NtNtCs34FkZ5Aug64_15gungraun_runner6runner9bin_benchNtB5_5Delay5apply
FN:553,_RNvXs2_NtNtCs34FkZ5Aug64_15gungraun_runner6runner9bin_benchNtB5_5DelayINtNtCsgEmfK2I1SDS_4core7convert4FromNtNtB9_3api5DelayE4from
FN:793,_RINvNtNtNtCs34FkZ5Aug64_15gungraun_runner6runner9bin_bench5tests17api_delay_fixtureINtNtCsgEmfK2I1SDS_4core6option6OptionyEB1j_EB8_
FN:793,_RINvNtNtNtCs34FkZ5Aug64_15gungraun_runner6runner9bin_bench5tests17api_delay_fixtureINtNtCsgEmfK2I1SDS_4core6option6OptionyEyEB8_
FN:793,_RINvNtNtNtCs34FkZ5Aug64_15gungraun_runner6runner9bin_bench5tests17api_delay_fixtureyINtNtCsgEmfK2I1SDS_4core6option6OptionyEEB8_
FN:793,_RINvNtNtNtCs34FkZ5Aug64_15gungraun_runner6runner9bin_bench5tests17api_delay_fixtureyyEB8_
FN:885,_RNCNvNtNtNtCs34FkZ5Aug64_15gungraun_runner6runner9bin_bench5testss_15test_delay_path0B9_
FN:968,_RNCNvNtNtNtCs34FkZ5Aug64_15gungraun_runner6runner9bin_bench5testss_23test_delay_udp_response0B9_
FN:935,_RNCNvNtNtNtCs34FkZ5Aug64_15gungraun_runner6runner9bin_bench5testss_27test_delay_tcp_connect_poll0B9_
FN:1005,_RNCNvNtNtNtCs34FkZ5Aug64_15gungraun_runner6runner9bin_bench5testss_28test_delay_udp_response_poll0B9_
FN:907,_RNCNvNtNtNtCs34FkZ5Aug64_15gungraun_runner6runner9bin_bench5testss_32test_delay_path_with_current_dir0B9_
FN:876,_RNvNtNtNtCs34FkZ5Aug64_15gungraun_runner6runner9bin_bench5testss_15test_delay_path
FN:918,_RNvNtNtNtCs34FkZ5Aug64_15gungraun_runner6runner9bin_bench5testss_22test_delay_tcp_connect
FN:965,_RNvNtNtNtCs34FkZ5Aug64_15gungraun_runner6runner9bin_bench5testss_23test_delay_udp_response
FN:931,_RNvNtNtNtCs34FkZ5Aug64_15gungraun_runner6runner9bin_bench5testss_27test_delay_tcp_connect_poll
FN:1002,_RNvNtNtNtCs34FkZ5Aug64_15gungraun_runner6runner9bin_bench5testss_28test_delay_udp_response_poll
FN:951,_RNvNtNtNtCs34FkZ5Aug64_15gungraun_runner6runner9bin_bench5testss_30test_delay_tcp_connect_timeout
FN:1040,_RNvNtNtNtCs34FkZ5Aug64_15gungraun_runner6runner9bin_bench5testss_31test_delay_udp_response_timeout
FN:896,_RNvNtNtNtCs34FkZ5Aug64_15gungraun_runner6runner9bin_bench5testss_32test_delay_path_with_current_dir
FNDA:0,_RNvMs0_NtNtCs5iQXrcGAeg9_15gungraun_runner6runner9bin_benchNtB5_7Command3new
FNDA:0,_RNvMs1_NtNtCs5iQXrcGAeg9_15gungraun_runner6runner9bin_benchNtB5_5Delay3new
FNDA:0,_RNvMs1_NtNtCs5iQXrcGAeg9_15gungraun_runner6runner9bin_benchNtB5_5Delay4exec
FNDA:0,_RNvMs1_NtNtCs5iQXrcGAeg9_15gungraun_runner6runner9bin_benchNtB5_5Delay5apply
FNDA:0,_RNvMs_NtNtCs5iQXrcGAeg9_15gungraun_runner6runner9bin_benchNtB4_8BinBench12is_fail_fast
FNDA:0,_RNvMs_NtNtCs5iQXrcGAeg9_15gungraun_runner6runner9bin_benchNtB4_8BinBench24create_benchmark_summary
FNDA:0,_RNvMs_NtNtCs5iQXrcGAeg9_15gungraun_runner6runner9bin_benchNtB4_8BinBench3new
FNDA:0,_RNvMs_NtNtCs5iQXrcGAeg9_15gungraun_runner6runner9bin_benchNtB4_8BinBench4name
FNDA:0,_RNvNtNtCs5iQXrcGAeg9_15gungraun_runner6runner9bin_bench17benchmark_factory
FNDA:0,_RNvNtNtCs5iQXrcGAeg9_15gungraun_runner6runner9bin_bench3run
FNDA:0,_RNvNtNtCs5iQXrcGAeg9_15gungraun_runner6runner9bin_bench4list
FNDA:0,_RNvXNtNtCs5iQXrcGAeg9_15gungraun_runner6runner9bin_benchNtB2_17BaselineBenchmarkNtB2_9Benchmark14data_processor
FNDA:0,_RNvXNtNtCs5iQXrcGAeg9_15gungraun_runner6runner9bin_benchNtB2_17BaselineBenchmarkNtB2_9Benchmark19default_output_path
FNDA:0,_RNvXNtNtCs5iQXrcGAeg9_15gungraun_runner6runner9bin_benchNtB2_17BaselineBenchmarkNtB2_9Benchmark3run
FNDA:0,_RNvXNtNtCs5iQXrcGAeg9_15gungraun_runner6runner9bin_benchNtB2_17BaselineBenchmarkNtB2_9Benchmark9baselines
FNDA:0,_RNvXs2_NtNtCs5iQXrcGAeg9_15gungraun_runner6runner9bin_benchNtB5_5DelayINtNtCsgEmfK2I1SDS_4core7convert4FromNtNtB9_3api5DelayE4from
FNDA:0,_RNvXs3_NtNtCs5iQXrcGAeg9_15gungraun_runner6runner9bin_benchNtB5_21LoadBaselineBenchmarkNtB5_9Benchmark14data_processor
FNDA:0,_RNvXs3_NtNtCs5iQXrcGAeg9_15gungraun_runner6runner9bin_benchNtB5_21LoadBaselineBenchmarkNtB5_9Benchmark19default_output_path
FNDA:0,_RNvXs3_NtNtCs5iQXrcGAeg9_15gungraun_runner6runner9bin_benchNtB5_21LoadBaselineBenchmarkNtB5_9Benchmark3run
FNDA:0,_RNvXs3_NtNtCs5iQXrcGAeg9_15gungraun_runner6runner9bin_benchNtB5_21LoadBaselineBenchmarkNtB5_9Benchmark9baselines
FNDA:0,_RNvXs4_NtNtCs5iQXrcGAeg9_15gungraun_runner6runner9bin_benchNtB5_21SaveBaselineBenchmarkNtB5_9Benchmark14data_processor
FNDA:0,_RNvXs4_NtNtCs5iQXrcGAeg9_15gungraun_runner6runner9bin_benchNtB5_21SaveBaselineBenchmarkNtB5_9Benchmark19default_output_path
FNDA:0,_RNvXs4_NtNtCs5iQXrcGAeg9_15gungraun_runner6runner9bin_benchNtB5_21SaveBaselineBenchmarkNtB5_9Benchmark3run
FNDA:0,_RNvXs4_NtNtCs5iQXrcGAeg9_15gungraun_runner6runner9bin_benchNtB5_21SaveBaselineBenchmarkNtB5_9Benchmark9baselines
FNDA:0,_RNCNCNvMs1_NtNtCs5iQXrcGAeg9_15gungraun_runner6runner9bin_benchNtB9_5Delay5apply00Bd_
FNDA:0,_RNCNvMs1_NtNtCs5iQXrcGAeg9_15gungraun_runner6runner9bin_benchNtB7_5Delay5apply0Bb_
FNDA:0,_RNCNvMs1_NtNtCs5iQXrcGAeg9_15gungraun_runner6runner9bin_benchNtB7_5Delay5applys_0Bb_
FNDA:0,_RNCNvMs_NtNtCs5iQXrcGAeg9_15gungraun_runner6runner9bin_benchNtB6_8BinBench12is_fail_fast0Ba_
FNDA:0,_RNCNvMs_NtNtCs5iQXrcGAeg9_15gungraun_runner6runner9bin_benchNtB6_8BinBench24create_benchmark_summary0Ba_
FNDA:0,_RNCNvMs_NtNtCs5iQXrcGAeg9_15gungraun_runner6runner9bin_benchNtB6_8BinBench3new0Ba_
FNDA:0,_RNCNvMs_NtNtCs5iQXrcGAeg9_15gungraun_runner6runner9bin_benchNtB6_8BinBench3news0_0Ba_
FNDA:0,_RNCNvMs_NtNtCs5iQXrcGAeg9_15gungraun_runner6runner9bin_benchNtB6_8BinBench3news1_0Ba_
FNDA:0,_RNCNvMs_NtNtCs5iQXrcGAeg9_15gungraun_runner6runner9bin_benchNtB6_8BinBench3news2_0Ba_
FNDA:0,_RNCNvMs_NtNtCs5iQXrcGAeg9_15gungraun_runner6runner9bin_benchNtB6_8BinBench3news3_0Ba_
FNDA:0,_RNCNvMs_NtNtCs5iQXrcGAeg9_15gungraun_runner6runner9bin_benchNtB6_8BinBench3news_0Ba_
FNDA:0,_RNCNvNtNtCs5iQXrcGAeg9_15gungraun_runner6runner9bin_bench17benchmark_factory0B7_
FNDA:0,_RNCNvXs2_NtNtCs5iQXrcGAeg9_15gungraun_runner6runner9bin_benchNtB7_5DelayINtNtCsgEmfK2I1SDS_4core7convert4FromNtNtBb_3api5DelayE4from0Bb_
FNDA:0,_RNCNvXs2_NtNtCs5iQXrcGAeg9_15gungraun_runner6runner9bin_benchNtB7_5DelayINtNtCsgEmfK2I1SDS_4core7convert4FromNtNtBb_3api5DelayE4froms0_0Bb_
FNDA:0,_RNCNvXs2_NtNtCs5iQXrcGAeg9_15gungraun_runner6runner9bin_benchNtB7_5DelayINtNtCsgEmfK2I1SDS_4core7convert4FromNtNtBb_3api5DelayE4froms_0Bb_
FNDA:0,_RNCNCNvMs1_NtNtCs34FkZ5Aug64_15gungraun_runner6runner9bin_benchNtB9_5Delay5apply00Bd_
FNDA:8,_RNCNvMs1_NtNtCs34FkZ5Aug64_15gungraun_runner6runner9bin_benchNtB7_5Delay5apply0Bb_
FNDA:6,_RNCNvMs1_NtNtCs34FkZ5Aug64_15gungraun_runner6runner9bin_benchNtB7_5Delay5applys_0Bb_
FNDA:2,_RNCNvXs2_NtNtCs34FkZ5Aug64_15gungraun_runner6runner9bin_benchNtB7_5DelayINtNtCsgEmfK2I1SDS_4core7convert4FromNtNtBb_3api5DelayE4from0Bb_
FNDA:6,_RNCNvXs2_NtNtCs34FkZ5Aug64_15gungraun_runner6runner9bin_benchNtB7_5DelayINtNtCsgEmfK2I1SDS_4core7convert4FromNtNtBb_3api5DelayE4froms0_0Bb_
FNDA:2,_RNCNvXs2_NtNtCs34FkZ5Aug64_15gungraun_runner6runner9bin_benchNtB7_5DelayINtNtCsgEmfK2I1SDS_4core7convert4FromNtNtBb_3api5DelayE4froms_0Bb_
FNDA:0,_RNCNvMs_NtNtCs34FkZ5Aug64_15gungraun_runner6runner9bin_benchNtB6_8BinBench12is_fail_fast0Ba_
FNDA:0,_RNCNvMs_NtNtCs34FkZ5Aug64_15gungraun_runner6runner9bin_benchNtB6_8BinBench24create_benchmark_summary0Ba_
FNDA:0,_RNCNvMs_NtNtCs34FkZ5Aug64_15gungraun_runner6runner9bin_benchNtB6_8BinBench3new0Ba_
FNDA:0,_RNCNvMs_NtNtCs34FkZ5Aug64_15gungraun_runner6runner9bin_benchNtB6_8BinBench3news0_0Ba_
FNDA:0,_RNCNvMs_NtNtCs34FkZ5Aug64_15gungraun_runner6runner9bin_benchNtB6_8BinBench3news1_0Ba_
FNDA:0,_RNCNvMs_NtNtCs34FkZ5Aug64_15gungraun_runner6runner9bin_benchNtB6_8BinBench3news2_0Ba_
FNDA:0,_RNCNvMs_NtNtCs34FkZ5Aug64_15gungraun_runner6runner9bin_benchNtB6_8BinBench3news3_0Ba_
FNDA:0,_RNCNvMs_NtNtCs34FkZ5Aug64_15gungraun_runner6runner9bin_benchNtB6_8BinBench3news_0Ba_
FNDA:0,_RNCNvNtNtCs34FkZ5Aug64_15gungraun_runner6runner9bin_bench17benchmark_factory0B7_
FNDA:0,_RNvMs0_NtNtCs34FkZ5Aug64_15gungraun_runner6runner9bin_benchNtB5_7Command3new
FNDA:0,_RNvMs_NtNtCs34FkZ5Aug64_15gungraun_runner6runner9bin_benchNtB4_8BinBench12is_fail_fast
FNDA:0,_RNvMs_NtNtCs34FkZ5Aug64_15gungraun_runner6runner9bin_benchNtB4_8BinBench24create_benchmark_summary
FNDA:0,_RNvMs_NtNtCs34FkZ5Aug64_15gungraun_runner6runner9bin_benchNtB4_8BinBench3new
FNDA:0,_RNvMs_NtNtCs34FkZ5Aug64_15gungraun_runner6runner9bin_benchNtB4_8BinBench4name
FNDA:0,_RNvNtNtCs34FkZ5Aug64_15gungraun_runner6runner9bin_bench17benchmark_factory
FNDA:0,_RNvNtNtCs34FkZ5Aug64_15gungraun_runner6runner9bin_bench3run
FNDA:0,_RNvNtNtCs34FkZ5Aug64_15gungraun_runner6runner9bin_bench4list
FNDA:0,_RNvXNtNtCs34FkZ5Aug64_15gungraun_runner6runner9bin_benchNtB2_17BaselineBenchmarkNtB2_9Benchmark14data_processor
FNDA:0,_RNvXNtNtCs34FkZ5Aug64_15gungraun_runner6runner9bin_benchNtB2_17BaselineBenchmarkNtB2_9Benchmark19default_output_path
FNDA:0,_RNvXNtNtCs34FkZ5Aug64_15gungraun_runner6runner9bin_benchNtB2_17BaselineBenchmarkNtB2_9Benchmark3run
FNDA:0,_RNvXNtNtCs34FkZ5Aug64_15gungraun_runner6runner9bin_benchNtB2_17BaselineBenchmarkNtB2_9Benchmark9baselines
FNDA:0,_RNvXs3_NtNtCs34FkZ5Aug64_15gungraun_runner6runner9bin_benchNtB5_21LoadBaselineBenchmarkNtB5_9Benchmark14data_processor
FNDA:0,_RNvXs3_NtNtCs34FkZ5Aug64_15gungraun_runner6runner9bin_benchNtB5_21LoadBaselineBenchmarkNtB5_9Benchmark19default_output_path
FNDA:0,_RNvXs3_NtNtCs34FkZ5Aug64_15gungraun_runner6runner9bin_benchNtB5_21LoadBaselineBenchmarkNtB5_9Benchmark3run
FNDA:0,_RNvXs3_NtNtCs34FkZ5Aug64_15gungraun_runner6runner9bin_benchNtB5_21LoadBaselineBenchmarkNtB5_9Benchmark9baselines
FNDA:0,_RNvXs4_NtNtCs34FkZ5Aug64_15gungraun_runner6runner9bin_benchNtB5_21SaveBaselineBenchmarkNtB5_9Benchmark14data_processor
FNDA:0,_RNvXs4_NtNtCs34FkZ5Aug64_15gungraun_runner6runner9bin_benchNtB5_21SaveBaselineBenchmarkNtB5_9Benchmark19default_output_path
FNDA:0,_RNvXs4_NtNtCs34FkZ5Aug64_15gungraun_runner6runner9bin_benchNtB5_21SaveBaselineBenchmarkNtB5_9Benchmark3run
FNDA:0,_RNvXs4_NtNtCs34FkZ5Aug64_15gungraun_runner6runner9bin_benchNtB5_21SaveBaselineBenchmarkNtB5_9Benchmark9baselines
FNDA:12,_RNvMs1_NtNtCs34FkZ5Aug64_15gungraun_runner6runner9bin_benchNtB5_5Delay3new
FNDA:8,_RNvMs1_NtNtCs34FkZ5Aug64_15gungraun_runner6runner9bin_benchNtB5_5Delay4exec
FNDA:8,_RNvMs1_NtNtCs34FkZ5Aug64_15gungraun_runner6runner9bin_benchNtB5_5Delay5apply
FNDA:12,_RNvXs2_NtNtCs34FkZ5Aug64_15gungraun_runner6runner9bin_benchNtB5_5DelayINtNtCsgEmfK2I1SDS_4core7convert4FromNtNtB9_3api5DelayE4from
FNDA:2,_RINvNtNtNtCs34FkZ5Aug64_15gungraun_runner6runner9bin_bench5tests17api_delay_fixtureINtNtCsgEmfK2I1SDS_4core6option6OptionyEB1j_EB8_
FNDA:2,_RINvNtNtNtCs34FkZ5Aug64_15gungraun_runner6runner9bin_bench5tests17api_delay_fixtureINtNtCsgEmfK2I1SDS_4core6option6OptionyEyEB8_
FNDA:2,_RINvNtNtNtCs34FkZ5Aug64_15gungraun_runner6runner9bin_bench5tests17api_delay_fixtureyINtNtCsgEmfK2I1SDS_4core6option6OptionyEEB8_
FNDA:6,_RINvNtNtNtCs34FkZ5Aug64_15gungraun_runner6runner9bin_bench5tests17api_delay_fixtureyyEB8_
FNDA:1,_RNCNvNtNtNtCs34FkZ5Aug64_15gungraun_runner6runner9bin_bench5testss_15test_delay_path0B9_
FNDA:1,_RNCNvNtNtNtCs34FkZ5Aug64_15gungraun_runner6runner9bin_bench5testss_23test_delay_udp_response0B9_
FNDA:1,_RNCNvNtNtNtCs34FkZ5Aug64_15gungraun_runner6runner9bin_bench5testss_27test_delay_tcp_connect_poll0B9_
FNDA:1,_RNCNvNtNtNtCs34FkZ5Aug64_15gungraun_runner6runner9bin_bench5testss_28test_delay_udp_response_poll0B9_
FNDA:1,_RNCNvNtNtNtCs34FkZ5Aug64_15gungraun_runner6runner9bin_bench5testss_32test_delay_path_with_current_dir0B9_
FNDA:1,_RNvNtNtNtCs34FkZ5Aug64_15gungraun_runner6runner9bin_bench5testss_15test_delay_path
FNDA:1,_RNvNtNtNtCs34FkZ5Aug64_15gungraun_runner6runner9bin_bench5testss_22test_delay_tcp_connect
FNDA:1,_RNvNtNtNtCs34FkZ5Aug64_15gungraun_runner6runner9bin_bench5testss_23test_delay_udp_response
FNDA:1,_RNvNtNtNtCs34FkZ5Aug64_15gungraun_runner6runner9bin_bench5testss_27test_delay_tcp_connect_poll
FNDA:1,_RNvNtNtNtCs34FkZ5Aug64_15gungraun_runner6runner9bin_bench5testss_28test_delay_udp_response_poll
FNDA:1,_RNvNtNtNtCs34FkZ5Aug64_15gungraun_runner6runner9bin_bench5testss_30test_delay_tcp_connect_timeout
FNDA:1,_RNvNtNtNtCs34FkZ5Aug64_15gungraun_runner6runner9bin_bench5testss_31test_delay_udp_response_timeout
FNDA:1,_RNvNtNtNtCs34FkZ5Aug64_15gungraun_runner6runner9bin_bench5testss_32test_delay_path_with_current_dir
FNF:53
FNH:23
DA:162,0
DA:163,0
DA:164,0
DA:165,0
DA:166,0
DA:167,0
DA:168,0
DA:169,0
DA:170,0
DA:172,0
DA:174,0
DA:175,0
DA:176,0
DA:177,0
DA:178,0
DA:179,0
DA:180,0
DA:181,0
DA:182,0
DA:184,0
DA:185,0
DA:186,0
DA:188,0
DA:189,0
DA:191,0
DA:192,0
DA:193,0
DA:194,0
DA:196,0
DA:198,0
DA:199,0
DA:200,0
DA:201,0
DA:202,0
DA:203,0
DA:204,0
DA:205,0
DA:206,0
DA:207,0
DA:208,0
DA:209,0
DA:210,0
DA:211,0
DA:212,0
DA:215,0
DA:216,0
DA:217,0
DA:218,0
DA:219,0
DA:220,0
DA:221,0
DA:222,0
DA:223,0
DA:224,0
DA:226,0
DA:228,0
DA:229,0
DA:230,0
DA:231,0
DA:232,0
DA:233,0
DA:234,0
DA:235,0
DA:236,0
DA:237,0
DA:242,0
DA:243,0
DA:244,0
DA:245,0
DA:246,0
DA:247,0
DA:264,0
DA:265,0
DA:266,0
DA:267,0
DA:268,0
DA:269,0
DA:270,0
DA:271,0
DA:272,0
DA:273,0
DA:274,0
DA:275,0
DA:276,0
DA:277,0
DA:278,0
DA:279,0
DA:280,0
DA:281,0
DA:282,0
DA:283,0
DA:285,0
DA:288,0
DA:289,0
DA:290,0
DA:291,0
DA:293,0
DA:294,0
DA:295,0
DA:296,0
DA:298,0
DA:299,0
DA:300,0
DA:301,0
DA:304,0
DA:305,0
DA:306,0
DA:307,0
DA:308,0
DA:309,0
DA:311,0
DA:313,0
DA:314,0
DA:315,0
DA:319,0
DA:322,0
DA:323,0
DA:324,0
DA:325,0
DA:326,0
DA:328,0
DA:329,0
DA:331,0
DA:332,0
DA:333,0
DA:334,0
DA:336,0
DA:337,0
DA:338,0
DA:339,0
DA:340,0
DA:341,0
DA:342,0
DA:343,0
DA:344,0
DA:345,0
DA:347,0
DA:348,0
DA:349,0
DA:351,0
DA:352,0
DA:353,0
DA:354,0
DA:355,0
DA:356,0
DA:357,0
DA:359,0
DA:361,0
DA:362,0
DA:363,0
DA:365,0
DA:366,0
DA:367,0
DA:368,0
DA:369,0
DA:370,0
DA:375,0
DA:376,0
DA:377,0
DA:378,0
DA:379,0
DA:381,0
DA:382,0
DA:383,0
DA:384,0
DA:385,0
DA:386,0
DA:387,0
DA:388,0
DA:389,0
DA:390,0
DA:391,0
DA:392,0
DA:393,0
DA:394,0
DA:396,0
DA:397,0
DA:398,0
DA:399,0
DA:401,0
DA:403,0
DA:404,0
DA:405,0
DA:407,0
DA:409,0
DA:411,0
DA:412,0
DA:413,0
DA:414,0
DA:415,0
DA:416,0
DA:417,0
DA:418,0
DA:419,0
DA:420,0
DA:421,0
DA:422,0
DA:423,0
DA:425,0
DA:426,0
DA:427,0
DA:428,0
DA:429,0
DA:430,0
DA:431,0
DA:432,0
DA:433,0
DA:434,0
DA:435,0
DA:436,0
DA:438,0
DA:442,0
DA:443,0
DA:444,0
DA:445,0
DA:447,0
DA:448,0
DA:453,12
DA:454,12
DA:455,12
DA:456,12
DA:457,12
DA:458,12
DA:459,12
DA:462,8
DA:463,8
DA:464,0
DA:466,8
DA:468,8
DA:469,8
DA:470,8
DA:471,8
DA:472,8
DA:473,0
DA:474,0
DA:475,8
DA:477,8
DA:478,6
DA:480,6
DA:481,6
DA:484,2
DA:489,0
DA:493,8
DA:495,8
DA:496,8
DA:497,0
DA:498,0
DA:499,0
DA:500,3
DA:501,57
DA:502,54
DA:503,54
DA:505,3
DA:506,3
DA:508,3
DA:509,3
DA:512,0
DA:513,0
DA:517,3
DA:518,3
DA:521,42
DA:522,0
DA:523,0
DA:525,42
DA:526,42
DA:527,3
DA:528,39
DA:529,39
DA:530,0
DA:531,39
DA:536,2
DA:537,2
DA:538,1
DA:540,1
DA:542,6
DA:543,4
DA:544,4
DA:548,8
DA:549,8
DA:553,12
DA:554,12
DA:555,4
DA:556,2
DA:557,2
DA:558,4
DA:559,2
DA:563,2
DA:564,4
DA:566,8
DA:567,8
DA:568,2
DA:569,6
DA:570,6
DA:571,2
DA:572,2
DA:574,4
DA:576,6
DA:579,8
DA:580,3
DA:584,3
DA:585,3
DA:586,5
DA:587,8
DA:590,12
DA:591,12
DA:592,12
DA:593,12
DA:594,12
DA:595,12
DA:599,0
DA:600,0
DA:601,0
DA:602,0
DA:603,0
DA:604,0
DA:605,0
DA:606,0
DA:607,0
DA:609,0
DA:611,0
DA:612,0
DA:613,0
DA:614,0
DA:615,0
DA:616,0
DA:617,0
DA:620,0
DA:622,0
DA:623,0
DA:624,0
DA:625,0
DA:626,0
DA:627,0
DA:629,0
DA:630,0
DA:631,0
DA:632,0
DA:633,0
DA:634,0
DA:635,0
DA:636,0
DA:637,0
DA:638,0
DA:639,0
DA:640,0
DA:641,0
DA:642,0
DA:643,0
DA:644,0
DA:645,0
DA:647,0
DA:648,0
DA:649,0
DA:650,0
DA:651,0
DA:652,0
DA:653,0
DA:654,0
DA:655,0
DA:656,0
DA:660,0
DA:661,0
DA:662,0
DA:663,0
DA:664,0
DA:665,0
DA:666,0
DA:667,0
DA:668,0
DA:670,0
DA:672,0
DA:673,0
DA:674,0
DA:675,0
DA:676,0
DA:677,0
DA:678,0
DA:679,0
DA:680,0
DA:682,0
DA:683,0
DA:684,0
DA:686,0
DA:687,0
DA:689,0
DA:690,0
DA:691,0
DA:692,0
DA:693,0
DA:694,0
DA:696,0
DA:697,0
DA:698,0
DA:699,0
DA:700,0
DA:701,0
DA:702,0
DA:703,0
DA:704,0
DA:705,0
DA:706,0
DA:707,0
DA:708,0
DA:709,0
DA:710,0
DA:713,0
DA:714,0
DA:715,0
DA:716,0
DA:717,0
DA:718,0
DA:719,0
DA:720,0
DA:721,0
DA:722,0
DA:724,0
DA:726,0
DA:727,0
DA:728,0
DA:729,0
DA:730,0
DA:731,0
DA:732,0
DA:733,0
DA:734,0
DA:735,0
DA:743,0
DA:744,0
DA:745,0
DA:746,0
DA:747,0
DA:748,0
DA:749,0
DA:750,0
DA:751,0
DA:752,0
DA:753,0
DA:754,0
DA:755,0
DA:756,0
DA:757,0
DA:758,0
DA:760,0
DA:761,0
DA:762,0
DA:763,0
DA:764,0
DA:765,0
DA:766,0
DA:769,0
DA:772,0
DA:773,0
DA:774,0
DA:775,0
DA:778,0
DA:779,0
DA:780,0
DA:793,12
DA:794,12
DA:795,12
DA:796,12
DA:798,12
DA:799,12
DA:800,12
DA:801,12
DA:802,12
DA:803,12
DA:876,1
DA:877,1
DA:878,1
DA:880,1
DA:881,1
DA:882,1
DA:883,1
DA:884,1
DA:885,1
DA:886,1
DA:887,1
DA:889,1
DA:890,1
DA:892,1
DA:893,1
DA:896,1
DA:897,1
DA:898,1
DA:900,1
DA:901,1
DA:902,1
DA:903,1
DA:904,1
DA:906,1
DA:907,1
DA:908,1
DA:909,1
DA:911,1
DA:912,1
DA:914,1
DA:915,1
DA:918,1
DA:919,1
DA:920,1
DA:922,1
DA:923,1
DA:924,1
DA:925,1
DA:926,1
DA:927,1
DA:928,1
DA:931,1
DA:932,1
DA:934,1
DA:935,1
DA:936,1
DA:937,1
DA:938,1
DA:939,1
DA:940,1
DA:941,1
DA:942,1
DA:944,1
DA:945,1
DA:947,1
DA:948,1
DA:951,1
DA:952,1
DA:953,1
DA:954,1
DA:955,1
DA:956,1
DA:957,1
DA:959,1
DA:960,1
DA:961,1
DA:962,1
DA:965,1
DA:966,1
DA:968,1
DA:969,1
DA:970,1
DA:971,1
DA:972,1
DA:973,1
DA:974,1
DA:975,1
DA:978,1
DA:980,1
DA:981,1
DA:983,1
DA:984,1
DA:986,0
DA:989,1
DA:991,1
DA:992,1
DA:993,1
DA:994,1
DA:995,1
DA:997,1
DA:998,1
DA:999,1
DA:1002,1
DA:1003,1
DA:1005,1
DA:1006,1
DA:1007,1
DA:1008,1
DA:1009,1
DA:1010,1
DA:1011,1
DA:1012,1
DA:1014,1
DA:1015,1
DA:1016,1
DA:1017,1
DA:1018,1
DA:1019,1
DA:1020,1
DA:1023,1
DA:1025,1
DA:1027,1
DA:1028,1
DA:1029,1
DA:1030,1
DA:1032,0
DA:1036,1
DA:1037,1
DA:1040,1
DA:1041,1
DA:1042,1
DA:1043,1
DA:1044,1
DA:1045,1
DA:1046,1
DA:1047,1
DA:1048,1
DA:1049,1
DA:1050,1
BRF:0
BRH:0
LF:616
LH:225
end_of_record
SF:/fast/lenny/workspace/programming/gungraun/gungraun/gungraun-runner/src/runner/cachegrind/args.rs
FN:61,_RNvXs0_NtNtNtCs5iQXrcGAeg9_15gungraun_runner6runner10cachegrind4argsNtNtNtB9_4tool4args12ValgrindArgsINtNtCsgEmfK2I1SDS_4core7convert4FromNtB5_14CachegrindArgsE4from
FN:21,_RNvXNtNtNtCs5iQXrcGAeg9_15gungraun_runner6runner10cachegrind4argsNtB2_14CachegrindArgsNtNtNtB6_4tool4args8ToolArgs22try_from_raw_tool_args
FN:49,_RNvXs_NtNtNtCs5iQXrcGAeg9_15gungraun_runner6runner10cachegrind4argsNtB4_14CachegrindArgsNtNtCsgEmfK2I1SDS_4core7default7Default7default
FN:29,_RINvXNtNtNtCs5iQXrcGAeg9_15gungraun_runner6runner10cachegrind4argsNtB3_14CachegrindArgsNtNtNtB7_4tool4args8ToolArgs10try_updateINtNtNtNtCsgEmfK2I1SDS_4core4iter8adapters7flatten7FlatMapINtNtNtB2a_5slice4iter4IterRNtNtB9_3api11RawToolArgsERSNtNtCslNYArtu3iFV_5alloc6string6StringNCNvB2_22try_from_raw_tool_args0EEB9_
FN:32,_RNCINvXNtNtNtCs5iQXrcGAeg9_15gungraun_runner6runner10cachegrind4argsNtB5_14CachegrindArgsNtNtNtB9_4tool4args8ToolArgs10try_updateINtNtNtNtCsgEmfK2I1SDS_4core4iter8adapters7flatten7FlatMapINtNtNtB2c_5slice4iter4IterRNtNtBb_3api11RawToolArgsERSNtNtCslNYArtu3iFV_5alloc6string6StringNCNvB4_22try_from_raw_tool_args0EE0Bb_
FN:37,_RNCINvXNtNtNtCs5iQXrcGAeg9_15gungraun_runner6runner10cachegrind4argsNtB5_14CachegrindArgsNtNtNtB9_4tool4args8ToolArgs10try_updateINtNtNtNtCsgEmfK2I1SDS_4core4iter8adapters7flatten7FlatMapINtNtNtB2c_5slice4iter4IterRNtNtBb_3api11RawToolArgsERSNtNtCslNYArtu3iFV_5alloc6string6StringNCNvB4_22try_from_raw_tool_args0EEs_0Bb_
FN:25,_RNCNvXNtNtNtCs5iQXrcGAeg9_15gungraun_runner6runner10cachegrind4argsNtB4_14CachegrindArgsNtNtNtB8_4tool4args8ToolArgs22try_from_raw_tool_args0Ba_
FN:61,_RNvXs0_NtNtNtCs34FkZ5Aug64_15gungraun_runner6runner10cachegrind4argsNtNtNtB9_4tool4args12ValgrindArgsINtNtCsgEmfK2I1SDS_4core7convert4FromNtB5_14CachegrindArgsE4from
FN:29,_RINvXNtNtNtCs34FkZ5Aug64_15gungraun_runner6runner10cachegrind4argsNtB3_14CachegrindArgsNtNtNtB7_4tool4args8ToolArgs10try_updateINtNtNtNtCsgEmfK2I1SDS_4core4iter8adapters7flatten7FlatMapINtNtNtB2a_5slice4iter4IterRNtNtB9_3api11RawToolArgsERSNtNtCslNYArtu3iFV_5alloc6string6StringNCNvB2_22try_from_raw_tool_args0EEB9_
FN:32,_RNCINvXNtNtNtCs34FkZ5Aug64_15gungraun_runner6runner10cachegrind4argsNtB5_14CachegrindArgsNtNtNtB9_4tool4args8ToolArgs10try_updateINtNtNtNtCsgEmfK2I1SDS_4core4iter8adapters7flatten7FlatMapINtNtNtB2c_5slice4iter4IterRNtNtBb_3api11RawToolArgsERSNtNtCslNYArtu3iFV_5alloc6string6StringNCNvB4_22try_from_raw_tool_args0EE0Bb_
FN:37,_RNCINvXNtNtNtCs34FkZ5Aug64_15gungraun_runner6runner10cachegrind4argsNtB5_14CachegrindArgsNtNtNtB9_4tool4args8ToolArgs10try_updateINtNtNtNtCsgEmfK2I1SDS_4core4iter8adapters7flatten7FlatMapINtNtNtB2c_5slice4iter4IterRNtNtBb_3api11RawToolArgsERSNtNtCslNYArtu3iFV_5alloc6string6StringNCNvB4_22try_from_raw_tool_args0EEs_0Bb_
FN:25,_RNCNvXNtNtNtCs34FkZ5Aug64_15gungraun_runner6runner10cachegrind4argsNtB4_14CachegrindArgsNtNtNtB8_4tool4args8ToolArgs22try_from_raw_tool_args0Ba_
FN:21,_RNvXNtNtNtCs34FkZ5Aug64_15gungraun_runner6runner10cachegrind4argsNtB2_14CachegrindArgsNtNtNtB6_4tool4args8ToolArgs22try_from_raw_tool_args
FN:49,_RNvXs_NtNtNtCs34FkZ5Aug64_15gungraun_runner6runner10cachegrind4argsNtB4_14CachegrindArgsNtNtCsgEmfK2I1SDS_4core7default7Default7default
FN:101,_RNvNtNtNtNtCs34FkZ5Aug64_15gungraun_runner6runner10cachegrind4args5tests15valgrind_args_f
FN:123,_RNvNtNtNtNtCs34FkZ5Aug64_15gungraun_runner6runner10cachegrind4args5tests17cachegrind_args_f
FN:97,_RNvNtNtNtNtCs34FkZ5Aug64_15gungraun_runner6runner10cachegrind4args5tests22___orig_valgrind_args_f
FN:117,_RNvNtNtNtNtCs34FkZ5Aug64_15gungraun_runner6runner10cachegrind4args5tests24___orig_cachegrind_args_f
FN:83,_RNvNtNtNtNtCs34FkZ5Aug64_15gungraun_runner6runner10cachegrind4args5tests29default_cachegrind_other_args
FN:171,_RNvNtNtNtNtCs34FkZ5Aug64_15gungraun_runner6runner10cachegrind4args5testss_34test_from_cachegrind_args_defaults
FN:182,_RNvNtNtNtNtCs34FkZ5Aug64_15gungraun_runner6runner10cachegrind4args5testss_51test_from_cachegrind_args_when_tool_specific_values
FN:199,_RNvNtNtNtNtCs34FkZ5Aug64_15gungraun_runner6runner10cachegrind4args5testss_76test_from_cachegrind_args_when_valgrind_args_then_appends_tool_specific_last
FN:92,_RINvNtNtNtNtCs34FkZ5Aug64_15gungraun_runner6runner10cachegrind4args5tests7stringsKj2_EBa_
FN:92,_RINvNtNtNtNtCs34FkZ5Aug64_15gungraun_runner6runner10cachegrind4args5tests7stringsKj4_EBa_
FN:92,_RINvNtNtNtNtCs34FkZ5Aug64_15gungraun_runner6runner10cachegrind4args5tests7stringsKj6_EBa_
FNDA:0,_RNvXs0_NtNtNtCs5iQXrcGAeg9_15gungraun_runner6runner10cachegrind4argsNtNtNtB9_4tool4args12ValgrindArgsINtNtCsgEmfK2I1SDS_4core7convert4FromNtB5_14CachegrindArgsE4from
FNDA:0,_RNvXNtNtNtCs5iQXrcGAeg9_15gungraun_runner6runner10cachegrind4argsNtB2_14CachegrindArgsNtNtNtB6_4tool4args8ToolArgs22try_from_raw_tool_args
FNDA:0,_RNvXs_NtNtNtCs5iQXrcGAeg9_15gungraun_runner6runner10cachegrind4argsNtB4_14CachegrindArgsNtNtCsgEmfK2I1SDS_4core7default7Default7default
FNDA:0,_RINvXNtNtNtCs5iQXrcGAeg9_15gungraun_runner6runner10cachegrind4argsNtB3_14CachegrindArgsNtNtNtB7_4tool4args8ToolArgs10try_updateINtNtNtNtCsgEmfK2I1SDS_4core4iter8adapters7flatten7FlatMapINtNtNtB2a_5slice4iter4IterRNtNtB9_3api11RawToolArgsERSNtNtCslNYArtu3iFV_5alloc6string6StringNCNvB2_22try_from_raw_tool_args0EEB9_
FNDA:0,_RNCINvXNtNtNtCs5iQXrcGAeg9_15gungraun_runner6runner10cachegrind4argsNtB5_14CachegrindArgsNtNtNtB9_4tool4args8ToolArgs10try_updateINtNtNtNtCsgEmfK2I1SDS_4core4iter8adapters7flatten7FlatMapINtNtNtB2c_5slice4iter4IterRNtNtBb_3api11RawToolArgsERSNtNtCslNYArtu3iFV_5alloc6string6StringNCNvB4_22try_from_raw_tool_args0EE0Bb_
FNDA:0,_RNCINvXNtNtNtCs5iQXrcGAeg9_15gungraun_runner6runner10cachegrind4argsNtB5_14CachegrindArgsNtNtNtB9_4tool4args8ToolArgs10try_updateINtNtNtNtCsgEmfK2I1SDS_4core4iter8adapters7flatten7FlatMapINtNtNtB2c_5slice4iter4IterRNtNtBb_3api11RawToolArgsERSNtNtCslNYArtu3iFV_5alloc6string6StringNCNvB4_22try_from_raw_tool_args0EEs_0Bb_
FNDA:0,_RNCNvXNtNtNtCs5iQXrcGAeg9_15gungraun_runner6runner10cachegrind4argsNtB4_14CachegrindArgsNtNtNtB8_4tool4args8ToolArgs22try_from_raw_tool_args0Ba_
FNDA:3,_RNvXs0_NtNtNtCs34FkZ5Aug64_15gungraun_runner6runner10cachegrind4argsNtNtNtB9_4tool4args12ValgrindArgsINtNtCsgEmfK2I1SDS_4core7convert4FromNtB5_14CachegrindArgsE4from
FNDA:6,_RINvXNtNtNtCs34FkZ5Aug64_15gungraun_runner6runner10cachegrind4argsNtB3_14CachegrindArgsNtNtNtB7_4tool4args8ToolArgs10try_updateINtNtNtNtCsgEmfK2I1SDS_4core4iter8adapters7flatten7FlatMapINtNtNtB2a_5slice4iter4IterRNtNtB9_3api11RawToolArgsERSNtNtCslNYArtu3iFV_5alloc6string6StringNCNvB2_22try_from_raw_tool_args0EEB9_
FNDA:6,_RNCINvXNtNtNtCs34FkZ5Aug64_15gungraun_runner6runner10cachegrind4argsNtB5_14CachegrindArgsNtNtNtB9_4tool4args8ToolArgs10try_updateINtNtNtNtCsgEmfK2I1SDS_4core4iter8adapters7flatten7FlatMapINtNtNtB2c_5slice4iter4IterRNtNtBb_3api11RawToolArgsERSNtNtCslNYArtu3iFV_5alloc6string6StringNCNvB4_22try_from_raw_tool_args0EE0Bb_
FNDA:0,_RNCINvXNtNtNtCs34FkZ5Aug64_15gungraun_runner6runner10cachegrind4argsNtB5_14CachegrindArgsNtNtNtB9_4tool4args8ToolArgs10try_updateINtNtNtNtCsgEmfK2I1SDS_4core4iter8adapters7flatten7FlatMapINtNtNtB2c_5slice4iter4IterRNtNtBb_3api11RawToolArgsERSNtNtCslNYArtu3iFV_5alloc6string6StringNCNvB4_22try_from_raw_tool_args0EEs_0Bb_
FNDA:6,_RNCNvXNtNtNtCs34FkZ5Aug64_15gungraun_runner6runner10cachegrind4argsNtB4_14CachegrindArgsNtNtNtB8_4tool4args8ToolArgs22try_from_raw_tool_args0Ba_
FNDA:6,_RNvXNtNtNtCs34FkZ5Aug64_15gungraun_runner6runner10cachegrind4argsNtB2_14CachegrindArgsNtNtNtB6_4tool4args8ToolArgs22try_from_raw_tool_args
FNDA:15,_RNvXs_NtNtNtCs34FkZ5Aug64_15gungraun_runner6runner10cachegrind4argsNtB4_14CachegrindArgsNtNtCsgEmfK2I1SDS_4core7default7Default7default
FNDA:6,_RNvNtNtNtNtCs34FkZ5Aug64_15gungraun_runner6runner10cachegrind4args5tests15valgrind_args_f
FNDA:9,_RNvNtNtNtNtCs34FkZ5Aug64_15gungraun_runner6runner10cachegrind4args5tests17cachegrind_args_f
FNDA:6,_RNvNtNtNtNtCs34FkZ5Aug64_15gungraun_runner6runner10cachegrind4args5tests22___orig_valgrind_args_f
FNDA:9,_RNvNtNtNtNtCs34FkZ5Aug64_15gungraun_runner6runner10cachegrind4args5tests24___orig_cachegrind_args_f
FNDA:1,_RNvNtNtNtNtCs34FkZ5Aug64_15gungraun_runner6runner10cachegrind4args5tests29default_cachegrind_other_args
FNDA:1,_RNvNtNtNtNtCs34FkZ5Aug64_15gungraun_runner6runner10cachegrind4args5testss_34test_from_cachegrind_args_defaults
FNDA:1,_RNvNtNtNtNtCs34FkZ5Aug64_15gungraun_runner6runner10cachegrind4args5testss_51test_from_cachegrind_args_when_tool_specific_values
FNDA:1,_RNvNtNtNtNtCs34FkZ5Aug64_15gungraun_runner6runner10cachegrind4args5testss_76test_from_cachegrind_args_when_valgrind_args_then_appends_tool_specific_last
FNDA:1,_RINvNtNtNtNtCs34FkZ5Aug64_15gungraun_runner6runner10cachegrind4args5tests7stringsKj2_EBa_
FNDA:2,_RINvNtNtNtNtCs34FkZ5Aug64_15gungraun_runner6runner10cachegrind4args5tests7stringsKj4_EBa_
FNDA:1,_RINvNtNtNtNtCs34FkZ5Aug64_15gungraun_runner6runner10cachegrind4args5tests7stringsKj6_EBa_
FNF:16
FNH:15
DA:21,6
DA:22,6
DA:24,6
DA:25,6
DA:26,6
DA:27,6
DA:29,6
DA:30,6
DA:31,6
DA:32,6
DA:33,6
DA:34,5
DA:35,4
DA:36,3
DA:37,1
DA:38,0
DA:39,0
DA:41,2
DA:44,6
DA:45,6
DA:49,15
DA:50,15
DA:51,15
DA:52,15
DA:53,15
DA:54,15
DA:55,15
DA:56,15
DA:57,15
DA:61,3
DA:62,3
DA:63,3
DA:64,3
DA:65,3
DA:66,3
DA:67,3
DA:69,3
DA:71,3
DA:72,3
DA:83,1
DA:84,1
DA:85,1
DA:86,1
DA:87,1
DA:88,1
DA:89,1
DA:90,1
DA:92,4
DA:93,4
DA:94,4
DA:97,6
DA:98,6
DA:99,6
DA:100,6
DA:101,6
DA:102,6
DA:103,6
DA:104,0
DA:105,6
DA:106,6
DA:107,3
DA:108,3
DA:109,6
DA:110,5
DA:111,5
DA:113,6
DA:114,12
DA:117,9
DA:118,9
DA:119,9
DA:120,9
DA:121,9
DA:122,9
DA:123,9
DA:124,9
DA:125,9
DA:126,3
DA:127,6
DA:128,9
DA:129,2
DA:130,7
DA:131,9
DA:132,2
DA:133,7
DA:134,9
DA:135,2
DA:136,7
DA:137,9
DA:138,3
DA:139,6
DA:141,9
DA:142,18
DA:171,1
DA:172,1
DA:173,1
DA:174,1
DA:176,1
DA:178,1
DA:179,1
DA:182,1
DA:183,1
DA:184,1
DA:185,1
DA:186,1
DA:187,1
DA:188,1
DA:189,1
DA:190,1
DA:191,1
DA:193,1
DA:195,1
DA:196,1
DA:199,1
DA:200,1
DA:201,1
DA:202,1
DA:203,1
DA:204,1
DA:205,1
DA:206,1
DA:208,1
DA:209,1
DA:210,1
DA:211,1
DA:212,1
DA:213,1
DA:214,1
DA:215,1
DA:216,1
DA:217,1
DA:218,1
DA:219,1
DA:221,1
DA:223,1
DA:224,1
BRF:0
BRH:0
LF:143
LH:138
end_of_record
SF:/fast/lenny/workspace/programming/gungraun/gungraun/gungraun-runner/src/runner/cachegrind/model.rs
FN:17,_RNvXNtNtNtCs5iQXrcGAeg9_15gungraun_runner6runner10cachegrind5modelNtNtB6_9callgrind12CacheSummaryINtNtCsgEmfK2I1SDS_4core7convert7TryFromRINtNtB6_7metrics7MetricsNtNtB8_3api16CachegrindMetricEE8try_from
FN:52,_RNvMs0_NtNtNtCs5iQXrcGAeg9_15gungraun_runner6runner10cachegrind5modelINtNtB9_7metrics7MetricsNtNtBb_3api16CachegrindMetricE12make_summary
FN:99,_RNvMs0_NtNtNtCs5iQXrcGAeg9_15gungraun_runner6runner10cachegrind5modelINtNtB9_7metrics7MetricsNtNtBb_3api16CachegrindMetricE13can_summarize
FN:90,_RNvMs0_NtNtNtCs5iQXrcGAeg9_15gungraun_runner6runner10cachegrind5modelINtNtB9_7metrics7MetricsNtNtBb_3api16CachegrindMetricE13is_summarized
FN:105,_RNvXs1_NtNtNtCs5iQXrcGAeg9_15gungraun_runner6runner10cachegrind5modelINtNtB9_7metrics7MetricsNtNtBb_3api16CachegrindMetricENtNtCsgEmfK2I1SDS_4core7default7Default7default
FN:36,_RNvXs_NtNtNtCs5iQXrcGAeg9_15gungraun_runner6runner10cachegrind5modelNtNtBa_3api16CachegrindMetricNtNtB8_7metrics9Summarize9summarize
FN:99,_RNvMs0_NtNtNtCs34FkZ5Aug64_15gungraun_runner6runner10cachegrind5modelINtNtB9_7metrics7MetricsNtNtBb_3api16CachegrindMetricE13can_summarize
FN:90,_RNvMs0_NtNtNtCs34FkZ5Aug64_15gungraun_runner6runner10cachegrind5modelINtNtB9_7metrics7MetricsNtNtBb_3api16CachegrindMetricE13is_summarized
FN:105,_RNvXs1_NtNtNtCs34FkZ5Aug64_15gungraun_runner6runner10cachegrind5modelINtNtB9_7metrics7MetricsNtNtBb_3api16CachegrindMetricENtNtCsgEmfK2I1SDS_4core7default7Default7default
FN:36,_RNvXs_NtNtNtCs34FkZ5Aug64_15gungraun_runner6runner10cachegrind5modelNtNtBa_3api16CachegrindMetricNtNtB8_7metrics9Summarize9summarize
FN:52,_RNvMs0_NtNtNtCs34FkZ5Aug64_15gungraun_runner6runner10cachegrind5modelINtNtB9_7metrics7MetricsNtNtBb_3api16CachegrindMetricE12make_summary
FN:17,_RNvXNtNtNtCs34FkZ5Aug64_15gungraun_runner6runner10cachegrind5modelNtNtB6_9callgrind12CacheSummaryINtNtCsgEmfK2I1SDS_4core7convert7TryFromRINtNtB6_7metrics7MetricsNtNtB8_3api16CachegrindMetricEE8try_from
FN:117,_RNvNtNtNtNtCs34FkZ5Aug64_15gungraun_runner6runner10cachegrind5model5testss_40test_metrics_make_summary_when_cache_sim
FNDA:0,_RNvXNtNtNtCs5iQXrcGAeg9_15gungraun_runner6runner10cachegrind5modelNtNtB6_9callgrind12CacheSummaryINtNtCsgEmfK2I1SDS_4core7convert7TryFromRINtNtB6_7metrics7MetricsNtNtB8_3api16CachegrindMetricEE8try_from
FNDA:0,_RNvMs0_NtNtNtCs5iQXrcGAeg9_15gungraun_runner6runner10cachegrind5modelINtNtB9_7metrics7MetricsNtNtBb_3api16CachegrindMetricE12make_summary
FNDA:0,_RNvMs0_NtNtNtCs5iQXrcGAeg9_15gungraun_runner6runner10cachegrind5modelINtNtB9_7metrics7MetricsNtNtBb_3api16CachegrindMetricE13can_summarize
FNDA:0,_RNvMs0_NtNtNtCs5iQXrcGAeg9_15gungraun_runner6runner10cachegrind5modelINtNtB9_7metrics7MetricsNtNtBb_3api16CachegrindMetricE13is_summarized
FNDA:0,_RNvXs1_NtNtNtCs5iQXrcGAeg9_15gungraun_runner6runner10cachegrind5modelINtNtB9_7metrics7MetricsNtNtBb_3api16CachegrindMetricENtNtCsgEmfK2I1SDS_4core7default7Default7default
FNDA:0,_RNvXs_NtNtNtCs5iQXrcGAeg9_15gungraun_runner6runner10cachegrind5modelNtNtBa_3api16CachegrindMetricNtNtB8_7metrics9Summarize9summarize
FNDA:0,_RNvMs0_NtNtNtCs34FkZ5Aug64_15gungraun_runner6runner10cachegrind5modelINtNtB9_7metrics7MetricsNtNtBb_3api16CachegrindMetricE13can_summarize
FNDA:0,_RNvMs0_NtNtNtCs34FkZ5Aug64_15gungraun_runner6runner10cachegrind5modelINtNtB9_7metrics7MetricsNtNtBb_3api16CachegrindMetricE13is_summarized
FNDA:0,_RNvXs1_NtNtNtCs34FkZ5Aug64_15gungraun_runner6runner10cachegrind5modelINtNtB9_7metrics7MetricsNtNtBb_3api16CachegrindMetricENtNtCsgEmfK2I1SDS_4core7default7Default7default
FNDA:0,_RNvXs_NtNtNtCs34FkZ5Aug64_15gungraun_runner6runner10cachegrind5modelNtNtBa_3api16CachegrindMetricNtNtB8_7metrics9Summarize9summarize
FNDA:1,_RNvMs0_NtNtNtCs34FkZ5Aug64_15gungraun_runner6runner10cachegrind5modelINtNtB9_7metrics7MetricsNtNtBb_3api16CachegrindMetricE12make_summary
FNDA:1,_RNvXNtNtNtCs34FkZ5Aug64_15gungraun_runner6runner10cachegrind5modelNtNtB6_9callgrind12CacheSummaryINtNtCsgEmfK2I1SDS_4core7convert7TryFromRINtNtB6_7metrics7MetricsNtNtB8_3api16CachegrindMetricEE8try_from
FNDA:1,_RNvNtNtNtNtCs34FkZ5Aug64_15gungraun_runner6runner10cachegrind5model5testss_40test_metrics_make_summary_when_cache_sim
FNF:7
FNH:3
DA:17,1
DA:19,1
DA:20,1
DA:21,1
DA:22,1
DA:23,1
DA:24,1
DA:25,1
DA:26,1
DA:27,1
DA:28,1
DA:31,1
DA:32,1
DA:36,0
DA:37,0
DA:38,0
DA:39,0
DA:40,0
DA:52,1
DA:54,1
DA:55,1
DA:56,1
DA:57,1
DA:58,1
DA:59,1
DA:60,1
DA:61,1
DA:62,1
DA:63,1
DA:64,1
DA:65,1
DA:66,1
DA:67,1
DA:69,1
DA:70,1
DA:71,1
DA:72,1
DA:73,1
DA:74,1
DA:75,1
DA:76,1
DA:77,1
DA:78,1
DA:79,1
DA:80,1
DA:81,1
DA:83,1
DA:84,1
DA:90,0
DA:91,0
DA:92,0
DA:93,0
DA:99,0
DA:100,0
DA:101,0
DA:105,0
DA:106,0
DA:107,0
DA:117,1
DA:120,1
DA:121,1
DA:122,1
DA:123,1
DA:124,1
DA:125,1
DA:126,1
DA:127,1
DA:128,1
DA:129,1
DA:130,1
DA:131,1
DA:132,1
DA:133,1
DA:134,1
DA:135,1
DA:137,1
DA:138,1
DA:139,1
DA:140,1
DA:141,1
DA:142,1
DA:143,1
DA:144,1
DA:145,1
DA:146,1
DA:148,1
DA:149,1
DA:150,1
DA:151,1
DA:152,1
DA:153,1
DA:154,1
DA:155,1
DA:156,1
DA:157,1
DA:158,1
DA:160,1
DA:162,1
DA:163,1
BRF:0
BRH:0
LF:99
LH:84
end_of_record
SF:/fast/lenny/workspace/programming/gungraun/gungraun/gungraun-runner/src/runner/cachegrind/parser.rs
FN:36,_RINvNtNtNtCs5iQXrcGAeg9_15gungraun_runner6runner10cachegrind6parser12parse_headerINtNtNtNtCsgEmfK2I1SDS_4core4iter8adapters3map3MapINtNtCsjrHSEGnQ3l9_3std2io5LinesINtNtNtB28_8buffered9bufreader9BufReaderNtNtB2a_2fs4FileEENvMNtB1q_6resultINtB3A_6ResultNtNtCslNYArtu3iFV_5alloc6string6StringNtNtB28_5error5ErrorE6unwrapEEB8_
FN:44,_RNCINvNtNtNtCs5iQXrcGAeg9_15gungraun_runner6runner10cachegrind6parser12parse_headerINtNtNtNtCsgEmfK2I1SDS_4core4iter8adapters3map3MapINtNtCsjrHSEGnQ3l9_3std2io5LinesINtNtNtB2a_8buffered9bufreader9BufReaderNtNtB2c_2fs4FileEENvMNtB1s_6resultINtB3C_6ResultNtNtCslNYArtu3iFV_5alloc6string6StringNtNtB2a_5error5ErrorE6unwrapEE0Ba_
FN:78,_RNCINvNtNtNtCs5iQXrcGAeg9_15gungraun_runner6runner10cachegrind6parser12parse_headerINtNtNtNtCsgEmfK2I1SDS_4core4iter8adapters3map3MapINtNtCsjrHSEGnQ3l9_3std2io5LinesINtNtNtB2a_8buffered9bufreader9BufReaderNtNtB2c_2fs4FileEENvMNtB1s_6resultINtB3C_6ResultNtNtCslNYArtu3iFV_5alloc6string6StringNtNtB2a_5error5ErrorE6unwrapEEs0_0Ba_
FN:80,_RNCINvNtNtNtCs5iQXrcGAeg9_15gungraun_runner6runner10cachegrind6parser12parse_headerINtNtNtNtCsgEmfK2I1SDS_4core4iter8adapters3map3MapINtNtCsjrHSEGnQ3l9_3std2io5LinesINtNtNtB2a_8buffered9bufreader9BufReaderNtNtB2c_2fs4FileEENvMNtB1s_6resultINtB3C_6ResultNtNtCslNYArtu3iFV_5alloc6string6StringNtNtB2a_5error5ErrorE6unwrapEEs1_0Ba_
FN:48,_RNCINvNtNtNtCs5iQXrcGAeg9_15gungraun_runner6runner10cachegrind6parser12parse_headerINtNtNtNtCsgEmfK2I1SDS_4core4iter8adapters3map3MapINtNtCsjrHSEGnQ3l9_3std2io5LinesINtNtNtB2a_8buffered9bufreader9BufReaderNtNtB2c_2fs4FileEENvMNtB1s_6resultINtB3C_6ResultNtNtCslNYArtu3iFV_5alloc6string6StringNtNtB2a_5error5ErrorE6unwrapEEs_0Ba_
FN:36,_RINvNtNtNtCs34FkZ5Aug64_15gungraun_runner6runner10cachegrind6parser12parse_headerpEB8_
FN:44,_RNCINvNtNtNtCs34FkZ5Aug64_15gungraun_runner6runner10cachegrind6parser12parse_headerpE0Ba_
FN:78,_RNCINvNtNtNtCs34FkZ5Aug64_15gungraun_runner6runner10cachegrind6parser12parse_headerpEs0_0Ba_
FN:80,_RNCINvNtNtNtCs34FkZ5Aug64_15gungraun_runner6runner10cachegrind6parser12parse_headerpEs1_0Ba_
FN:48,_RNCINvNtNtNtCs34FkZ5Aug64_15gungraun_runner6runner10cachegrind6parser12parse_headerpEs_0Ba_
FNDA:0,_RINvNtNtNtCs5iQXrcGAeg9_15gungraun_runner6runner10cachegrind6parser12parse_headerINtNtNtNtCsgEmfK2I1SDS_4core4iter8adapters3map3MapINtNtCsjrHSEGnQ3l9_3std2io5LinesINtNtNtB28_8buffered9bufreader9BufReaderNtNtB2a_2fs4FileEENvMNtB1q_6resultINtB3A_6ResultNtNtCslNYArtu3iFV_5alloc6string6StringNtNtB28_5error5ErrorE6unwrapEEB8_
FNDA:0,_RNCINvNtNtNtCs5iQXrcGAeg9_15gungraun_runner6runner10cachegrind6parser12parse_headerINtNtNtNtCsgEmfK2I1SDS_4core4iter8adapters3map3MapINtNtCsjrHSEGnQ3l9_3std2io5LinesINtNtNtB2a_8buffered9bufreader9BufReaderNtNtB2c_2fs4FileEENvMNtB1s_6resultINtB3C_6ResultNtNtCslNYArtu3iFV_5alloc6string6StringNtNtB2a_5error5ErrorE6unwrapEE0Ba_
FNDA:0,_RNCINvNtNtNtCs5iQXrcGAeg9_15gungraun_runner6runner10cachegrind6parser12parse_headerINtNtNtNtCsgEmfK2I1SDS_4core4iter8adapters3map3MapINtNtCsjrHSEGnQ3l9_3std2io5LinesINtNtNtB2a_8buffered9bufreader9BufReaderNtNtB2c_2fs4FileEENvMNtB1s_6resultINtB3C_6ResultNtNtCslNYArtu3iFV_5alloc6string6StringNtNtB2a_5error5ErrorE6unwrapEEs0_0Ba_
FNDA:0,_RNCINvNtNtNtCs5iQXrcGAeg9_15gungraun_runner6runner10cachegrind6parser12parse_headerINtNtNtNtCsgEmfK2I1SDS_4core4iter8adapters3map3MapINtNtCsjrHSEGnQ3l9_3std2io5LinesINtNtNtB2a_8buffered9bufreader9BufReaderNtNtB2c_2fs4FileEENvMNtB1s_6resultINtB3C_6ResultNtNtCslNYArtu3iFV_5alloc6string6StringNtNtB2a_5error5ErrorE6unwrapEEs1_0Ba_
FNDA:0,_RNCINvNtNtNtCs5iQXrcGAeg9_15gungraun_runner6runner10cachegrind6parser12parse_headerINtNtNtNtCsgEmfK2I1SDS_4core4iter8adapters3map3MapINtNtCsjrHSEGnQ3l9_3std2io5LinesINtNtNtB2a_8buffered9bufreader9BufReaderNtNtB2c_2fs4FileEENvMNtB1s_6resultINtB3C_6ResultNtNtCslNYArtu3iFV_5alloc6string6StringNtNtB2a_5error5ErrorE6unwrapEEs_0Ba_
FNDA:0,_RINvNtNtNtCs34FkZ5Aug64_15gungraun_runner6runner10cachegrind6parser12parse_headerpEB8_
FNDA:0,_RNCINvNtNtNtCs34FkZ5Aug64_15gungraun_runner6runner10cachegrind6parser12parse_headerpE0Ba_
FNDA:0,_RNCINvNtNtNtCs34FkZ5Aug64_15gungraun_runner6runner10cachegrind6parser12parse_headerpEs0_0Ba_
FNDA:0,_RNCINvNtNtNtCs34FkZ5Aug64_15gungraun_runner6runner10cachegrind6parser12parse_headerpEs1_0Ba_
FNDA:0,_RNCINvNtNtNtCs34FkZ5Aug64_15gungraun_runner6runner10cachegrind6parser12parse_headerpEs_0Ba_
FNF:5
FNH:0
DA:36,0
DA:37,0
DA:38,0
DA:40,0
DA:41,0
DA:42,0
DA:44,0
DA:45,0
DA:46,0
DA:47,0
DA:48,0
DA:49,0
DA:50,0
DA:51,0
DA:53,0
DA:54,0
DA:55,0
DA:60,0
DA:61,0
DA:62,0
DA:63,0
DA:64,0
DA:65,0
DA:66,0
DA:68,0
DA:72,0
DA:77,0
DA:78,0
DA:79,0
DA:80,0
DA:82,0
BRF:0
BRH:0
LF:35
LH:0
end_of_record
SF:/fast/lenny/workspace/programming/gungraun/gungraun/gungraun-runner/src/runner/cachegrind/regression.rs
FN:21,_RNvXNtNtNtCs5iQXrcGAeg9_15gungraun_runner6runner10cachegrind10regressionNtB2_26CachegrindRegressionConfigNtNtCsgEmfK2I1SDS_4core7default7Default7default
FN:50,_RNvXs0_NtNtNtCs5iQXrcGAeg9_15gungraun_runner6runner10cachegrind10regressionNtB5_26CachegrindRegressionConfigINtNtCsgEmfK2I1SDS_4core7convert7TryFromNtNtBb_3api26CachegrindRegressionConfigE8try_from
FN:42,_RNvXs_NtNtNtCs5iQXrcGAeg9_15gungraun_runner6runner10cachegrind10regressionNtB4_26CachegrindRegressionConfigINtNtNtB8_4tool10regression16RegressionConfigNtNtBa_3api16CachegrindMetricE15get_hard_limits
FN:38,_RNvXs_NtNtNtCs5iQXrcGAeg9_15gungraun_runner6runner10cachegrind10regressionNtB4_26CachegrindRegressionConfigINtNtNtB8_4tool10regression16RegressionConfigNtNtBa_3api16CachegrindMetricE15get_soft_limits
FN:31,_RNvXs_NtNtNtCs5iQXrcGAeg9_15gungraun_runner6runner10cachegrind10regressionNtB4_26CachegrindRegressionConfigINtNtNtB8_4tool10regression16RegressionConfigNtNtBa_3api16CachegrindMetricE5check
FN:71,_RNCNCNCNvXs0_NtNtNtCs5iQXrcGAeg9_15gungraun_runner6runner10cachegrind10regressionNtBb_26CachegrindRegressionConfigINtNtCsgEmfK2I1SDS_4core7convert7TryFromNtNtBh_3api26CachegrindRegressionConfigE8try_from000Bh_
FN:68,_RNCNCNvXs0_NtNtNtCs5iQXrcGAeg9_15gungraun_runner6runner10cachegrind10regressionNtB9_26CachegrindRegressionConfigINtNtCsgEmfK2I1SDS_4core7convert7TryFromNtNtBf_3api26CachegrindRegressionConfigE8try_from00Bf_
FN:84,_RNCNCNvXs0_NtNtNtCs5iQXrcGAeg9_15gungraun_runner6runner10cachegrind10regressionNtB9_26CachegrindRegressionConfigINtNtCsgEmfK2I1SDS_4core7convert7TryFromNtNtBf_3api26CachegrindRegressionConfigE8try_froms_00Bf_
FN:65,_RNCNvXs0_NtNtNtCs5iQXrcGAeg9_15gungraun_runner6runner10cachegrind10regressionNtB7_26CachegrindRegressionConfigINtNtCsgEmfK2I1SDS_4core7convert7TryFromNtNtBd_3api26CachegrindRegressionConfigE8try_from0Bd_
FN:84,_RNCNvXs0_NtNtNtCs5iQXrcGAeg9_15gungraun_runner6runner10cachegrind10regressionNtB7_26CachegrindRegressionConfigINtNtCsgEmfK2I1SDS_4core7convert7TryFromNtNtBd_3api26CachegrindRegressionConfigE8try_froms_0Bd_
FN:34,_RNCNvXs_NtNtNtCs5iQXrcGAeg9_15gungraun_runner6runner10cachegrind10regressionNtB6_26CachegrindRegressionConfigINtNtNtBa_4tool10regression16RegressionConfigNtNtBc_3api16CachegrindMetricE5check0Bc_
FN:21,_RNvXNtNtNtCs34FkZ5Aug64_15gungraun_runner6runner10cachegrind10regressionNtB2_26CachegrindRegressionConfigNtNtCsgEmfK2I1SDS_4core7default7Default7default
FN:50,_RNvXs0_NtNtNtCs34FkZ5Aug64_15gungraun_runner6runner10cachegrind10regressionNtB5_26CachegrindRegressionConfigINtNtCsgEmfK2I1SDS_4core7convert7TryFromNtNtBb_3api26CachegrindRegressionConfigE8try_from
FN:34,_RNCNvXs_NtNtNtCs34FkZ5Aug64_15gungraun_runner6runner10cachegrind10regressionNtB6_26CachegrindRegressionConfigINtNtNtBa_4tool10regression16RegressionConfigNtNtBc_3api16CachegrindMetricE5check0Bc_
FN:42,_RNvXs_NtNtNtCs34FkZ5Aug64_15gungraun_runner6runner10cachegrind10regressionNtB4_26CachegrindRegressionConfigINtNtNtB8_4tool10regression16RegressionConfigNtNtBa_3api16CachegrindMetricE15get_hard_limits
FN:38,_RNvXs_NtNtNtCs34FkZ5Aug64_15gungraun_runner6runner10cachegrind10regressionNtB4_26CachegrindRegressionConfigINtNtNtB8_4tool10regression16RegressionConfigNtNtBa_3api16CachegrindMetricE15get_soft_limits
FN:31,_RNvXs_NtNtNtCs34FkZ5Aug64_15gungraun_runner6runner10cachegrind10regressionNtB4_26CachegrindRegressionConfigINtNtNtB8_4tool10regression16RegressionConfigNtNtBa_3api16CachegrindMetricE5check
FN:71,_RNCNCNCNvXs0_NtNtNtCs34FkZ5Aug64_15gungraun_runner6runner10cachegrind10regressionNtBb_26CachegrindRegressionConfigINtNtCsgEmfK2I1SDS_4core7convert7TryFromNtNtBh_3api26CachegrindRegressionConfigE8try_from000Bh_
FN:68,_RNCNCNvXs0_NtNtNtCs34FkZ5Aug64_15gungraun_runner6runner10cachegrind10regressionNtB9_26CachegrindRegressionConfigINtNtCsgEmfK2I1SDS_4core7convert7TryFromNtNtBf_3api26CachegrindRegressionConfigE8try_from00Bf_
FN:84,_RNCNCNvXs0_NtNtNtCs34FkZ5Aug64_15gungraun_runner6runner10cachegrind10regressionNtB9_26CachegrindRegressionConfigINtNtCsgEmfK2I1SDS_4core7convert7TryFromNtNtBf_3api26CachegrindRegressionConfigE8try_froms_00Bf_
FN:65,_RNCNvXs0_NtNtNtCs34FkZ5Aug64_15gungraun_runner6runner10cachegrind10regressionNtB7_26CachegrindRegressionConfigINtNtCsgEmfK2I1SDS_4core7convert7TryFromNtNtBd_3api26CachegrindRegressionConfigE8try_from0Bd_
FN:84,_RNCNvXs0_NtNtNtCs34FkZ5Aug64_15gungraun_runner6runner10cachegrind10regressionNtB7_26CachegrindRegressionConfigINtNtCsgEmfK2I1SDS_4core7convert7TryFromNtNtBd_3api26CachegrindRegressionConfigE8try_froms_0Bd_
FNDA:0,_RNvXNtNtNtCs5iQXrcGAeg9_15gungraun_runner6runner10cachegrind10regressionNtB2_26CachegrindRegressionConfigNtNtCsgEmfK2I1SDS_4core7default7Default7default
FNDA:0,_RNvXs0_NtNtNtCs5iQXrcGAeg9_15gungraun_runner6runner10cachegrind10regressionNtB5_26CachegrindRegressionConfigINtNtCsgEmfK2I1SDS_4core7convert7TryFromNtNtBb_3api26CachegrindRegressionConfigE8try_from
FNDA:0,_RNvXs_NtNtNtCs5iQXrcGAeg9_15gungraun_runner6runner10cachegrind10regressionNtB4_26CachegrindRegressionConfigINtNtNtB8_4tool10regression16RegressionConfigNtNtBa_3api16CachegrindMetricE15get_hard_limits
FNDA:0,_RNvXs_NtNtNtCs5iQXrcGAeg9_15gungraun_runner6runner10cachegrind10regressionNtB4_26CachegrindRegressionConfigINtNtNtB8_4tool10regression16RegressionConfigNtNtBa_3api16CachegrindMetricE15get_soft_limits
FNDA:0,_RNvXs_NtNtNtCs5iQXrcGAeg9_15gungraun_runner6runner10cachegrind10regressionNtB4_26CachegrindRegressionConfigINtNtNtB8_4tool10regression16RegressionConfigNtNtBa_3api16CachegrindMetricE5check
FNDA:0,_RNCNCNCNvXs0_NtNtNtCs5iQXrcGAeg9_15gungraun_runner6runner10cachegrind10regressionNtBb_26CachegrindRegressionConfigINtNtCsgEmfK2I1SDS_4core7convert7TryFromNtNtBh_3api26CachegrindRegressionConfigE8try_from000Bh_
FNDA:0,_RNCNCNvXs0_NtNtNtCs5iQXrcGAeg9_15gungraun_runner6runner10cachegrind10regressionNtB9_26CachegrindRegressionConfigINtNtCsgEmfK2I1SDS_4core7convert7TryFromNtNtBf_3api26CachegrindRegressionConfigE8try_from00Bf_
FNDA:0,_RNCNCNvXs0_NtNtNtCs5iQXrcGAeg9_15gungraun_runner6runner10cachegrind10regressionNtB9_26CachegrindRegressionConfigINtNtCsgEmfK2I1SDS_4core7convert7TryFromNtNtBf_3api26CachegrindRegressionConfigE8try_froms_00Bf_
FNDA:0,_RNCNvXs0_NtNtNtCs5iQXrcGAeg9_15gungraun_runner6runner10cachegrind10regressionNtB7_26CachegrindRegressionConfigINtNtCsgEmfK2I1SDS_4core7convert7TryFromNtNtBd_3api26CachegrindRegressionConfigE8try_from0Bd_
FNDA:0,_RNCNvXs0_NtNtNtCs5iQXrcGAeg9_15gungraun_runner6runner10cachegrind10regressionNtB7_26CachegrindRegressionConfigINtNtCsgEmfK2I1SDS_4core7convert7TryFromNtNtBd_3api26CachegrindRegressionConfigE8try_froms_0Bd_
FNDA:0,_RNCNvXs_NtNtNtCs5iQXrcGAeg9_15gungraun_runner6runner10cachegrind10regressionNtB6_26CachegrindRegressionConfigINtNtNtBa_4tool10regression16RegressionConfigNtNtBc_3api16CachegrindMetricE5check0Bc_
FNDA:0,_RNvXNtNtNtCs34FkZ5Aug64_15gungraun_runner6runner10cachegrind10regressionNtB2_26CachegrindRegressionConfigNtNtCsgEmfK2I1SDS_4core7default7Default7default
FNDA:0,_RNvXs0_NtNtNtCs34FkZ5Aug64_15gungraun_runner6runner10cachegrind10regressionNtB5_26CachegrindRegressionConfigINtNtCsgEmfK2I1SDS_4core7convert7TryFromNtNtBb_3api26CachegrindRegressionConfigE8try_from
FNDA:0,_RNCNvXs_NtNtNtCs34FkZ5Aug64_15gungraun_runner6runner10cachegrind10regressionNtB6_26CachegrindRegressionConfigINtNtNtBa_4tool10regression16RegressionConfigNtNtBc_3api16CachegrindMetricE5check0Bc_
FNDA:0,_RNvXs_NtNtNtCs34FkZ5Aug64_15gungraun_runner6runner10cachegrind10regressionNtB4_26CachegrindRegressionConfigINtNtNtB8_4tool10regression16RegressionConfigNtNtBa_3api16CachegrindMetricE15get_hard_limits
FNDA:0,_RNvXs_NtNtNtCs34FkZ5Aug64_15gungraun_runner6runner10cachegrind10regressionNtB4_26CachegrindRegressionConfigINtNtNtB8_4tool10regression16RegressionConfigNtNtBa_3api16CachegrindMetricE15get_soft_limits
FNDA:0,_RNvXs_NtNtNtCs34FkZ5Aug64_15gungraun_runner6runner10cachegrind10regressionNtB4_26CachegrindRegressionConfigINtNtNtB8_4tool10regression16RegressionConfigNtNtBa_3api16CachegrindMetricE5check
FNDA:0,_RNCNCNCNvXs0_NtNtNtCs34FkZ5Aug64_15gungraun_runner6runner10cachegrind10regressionNtBb_26CachegrindRegressionConfigINtNtCsgEmfK2I1SDS_4core7convert7TryFromNtNtBh_3api26CachegrindRegressionConfigE8try_from000Bh_
FNDA:0,_RNCNCNvXs0_NtNtNtCs34FkZ5Aug64_15gungraun_runner6runner10cachegrind10regressionNtB9_26CachegrindRegressionConfigINtNtCsgEmfK2I1SDS_4core7convert7TryFromNtNtBf_3api26CachegrindRegressionConfigE8try_from00Bf_
FNDA:0,_RNCNCNvXs0_NtNtNtCs34FkZ5Aug64_15gungraun_runner6runner10cachegrind10regressionNtB9_26CachegrindRegressionConfigINtNtCsgEmfK2I1SDS_4core7convert7TryFromNtNtBf_3api26CachegrindRegressionConfigE8try_froms_00Bf_
FNDA:0,_RNCNvXs0_NtNtNtCs34FkZ5Aug64_15gungraun_runner6runner10cachegrind10regressionNtB7_26CachegrindRegressionConfigINtNtCsgEmfK2I1SDS_4core7convert7TryFromNtNtBd_3api26CachegrindRegressionConfigE8try_from0Bd_
FNDA:0,_RNCNvXs0_NtNtNtCs34FkZ5Aug64_15gungraun_runner6runner10cachegrind10regressionNtB7_26CachegrindRegressionConfigINtNtCsgEmfK2I1SDS_4core7convert7TryFromNtNtBd_3api26CachegrindRegressionConfigE8try_froms_0Bd_
FNF:11
FNH:0
DA:21,0
DA:22,0
DA:23,0
DA:24,0
DA:25,0
DA:26,0
DA:27,0
DA:31,0
DA:32,0
DA:33,0
DA:34,0
DA:35,0
DA:36,0
DA:38,0
DA:39,0
DA:40,0
DA:42,0
DA:43,0
DA:44,0
DA:50,0
DA:52,0
DA:53,0
DA:54,0
DA:55,0
DA:57,0
DA:58,0
DA:59,0
DA:60,0
DA:61,0
DA:63,0
DA:64,0
DA:65,0
DA:66,0
DA:67,0
DA:68,0
DA:69,0
DA:70,0
DA:71,0
DA:72,0
DA:77,0
DA:78,0
DA:79,0
DA:80,0
DA:82,0
DA:83,0
DA:84,0
DA:85,0
DA:87,0
DA:90,0
DA:91,0
DA:92,0
DA:93,0
DA:94,0
DA:95,0
BRF:0
BRH:0
LF:60
LH:0
end_of_record
SF:/fast/lenny/workspace/programming/gungraun/gungraun/gungraun-runner/src/runner/cachegrind/summary_parser.rs
FN:44,_RNCNvXNtNtNtCs5iQXrcGAeg9_15gungraun_runner6runner10cachegrind14summary_parserNtB4_13SummaryParserNtNtNtB8_4tool6parser6Parser12parse_single0Ba_
FN:61,_RNCNvXNtNtNtCs5iQXrcGAeg9_15gungraun_runner6runner10cachegrind14summary_parserNtB4_13SummaryParserNtNtNtB8_4tool6parser6Parser12parse_singles_0Ba_
FN:33,_RNvXNtNtNtCs5iQXrcGAeg9_15gungraun_runner6runner10cachegrind14summary_parserNtB2_13SummaryParserNtNtNtB6_4tool6parser6Parser12parse_single
FN:92,_RNvXNtNtNtCs5iQXrcGAeg9_15gungraun_runner6runner10cachegrind14summary_parserNtB2_13SummaryParserNtNtNtB6_4tool6parser6Parser15get_output_path
FN:44,_RNCNvXNtNtNtCs34FkZ5Aug64_15gungraun_runner6runner10cachegrind14summary_parserNtB4_13SummaryParserNtNtNtB8_4tool6parser6Parser12parse_single0Ba_
FN:61,_RNCNvXNtNtNtCs34FkZ5Aug64_15gungraun_runner6runner10cachegrind14summary_parserNtB4_13SummaryParserNtNtNtB8_4tool6parser6Parser12parse_singles_0Ba_
FN:33,_RNvXNtNtNtCs34FkZ5Aug64_15gungraun_runner6runner10cachegrind14summary_parserNtB2_13SummaryParserNtNtNtB6_4tool6parser6Parser12parse_single
FN:92,_RNvXNtNtNtCs34FkZ5Aug64_15gungraun_runner6runner10cachegrind14summary_parserNtB2_13SummaryParserNtNtNtB6_4tool6parser6Parser15get_output_path
FNDA:0,_RNCNvXNtNtNtCs5iQXrcGAeg9_15gungraun_runner6runner10cachegrind14summary_parserNtB4_13SummaryParserNtNtNtB8_4tool6parser6Parser12parse_single0Ba_
FNDA:0,_RNCNvXNtNtNtCs5iQXrcGAeg9_15gungraun_runner6runner10cachegrind14summary_parserNtB4_13SummaryParserNtNtNtB8_4tool6parser6Parser12parse_singles_0Ba_
FNDA:0,_RNvXNtNtNtCs5iQXrcGAeg9_15gungraun_runner6runner10cachegrind14summary_parserNtB2_13SummaryParserNtNtNtB6_4tool6parser6Parser12parse_single
FNDA:0,_RNvXNtNtNtCs5iQXrcGAeg9_15gungraun_runner6runner10cachegrind14summary_parserNtB2_13SummaryParserNtNtNtB6_4tool6parser6Parser15get_output_path
FNDA:0,_RNCNvXNtNtNtCs34FkZ5Aug64_15gungraun_runner6runner10cachegrind14summary_parserNtB4_13SummaryParserNtNtNtB8_4tool6parser6Parser12parse_single0Ba_
FNDA:0,_RNCNvXNtNtNtCs34FkZ5Aug64_15gungraun_runner6runner10cachegrind14summary_parserNtB4_13SummaryParserNtNtNtB8_4tool6parser6Parser12parse_singles_0Ba_
FNDA:0,_RNvXNtNtNtCs34FkZ5Aug64_15gungraun_runner6runner10cachegrind14summary_parserNtB2_13SummaryParserNtNtNtB6_4tool6parser6Parser12parse_single
FNDA:0,_RNvXNtNtNtCs34FkZ5Aug64_15gungraun_runner6runner10cachegrind14summary_parserNtB2_13SummaryParserNtNtNtB6_4tool6parser6Parser15get_output_path
FNF:4
FNH:0
DA:33,0
DA:34,0
DA:36,0
DA:39,0
DA:40,0
DA:41,0
DA:43,0
DA:44,0
DA:46,0
DA:47,0
DA:48,0
DA:49,0
DA:51,0
DA:52,0
DA:53,0
DA:55,0
DA:56,0
DA:59,0
DA:60,0
DA:61,0
DA:63,0
DA:64,0
DA:65,0
DA:66,0
DA:67,0
DA:69,0
DA:72,0
DA:73,0
DA:74,0
DA:75,0
DA:76,0
DA:77,0
DA:78,0
DA:79,0
DA:80,0
DA:81,0
DA:82,0
DA:83,0
DA:84,0
DA:85,0
DA:86,0
DA:88,0
DA:90,0
DA:92,0
DA:93,0
DA:94,0
BRF:0
BRH:0
LF:48
LH:0
end_of_record
SF:/fast/lenny/workspace/programming/gungraun/gungraun/gungraun-runner/src/runner/callgrind/args.rs
FN:106,_RNvXs0_NtNtNtCs5iQXrcGAeg9_15gungraun_runner6runner9callgrind4argsNtNtNtB9_4tool4args12ValgrindArgsINtNtCsgEmfK2I1SDS_4core7convert4FromNtB5_13CallgrindArgsE4from
FN:32,_RNvXNtNtNtCs5iQXrcGAeg9_15gungraun_runner6runner9callgrind4argsNtB2_13CallgrindArgsNtNtNtB6_4tool4args8ToolArgs22try_from_raw_tool_args
FN:84,_RNvXs_NtNtNtCs5iQXrcGAeg9_15gungraun_runner6runner9callgrind4argsNtB4_13CallgrindArgsNtNtCsgEmfK2I1SDS_4core7default7Default7default
FN:40,_RINvXNtNtNtCs5iQXrcGAeg9_15gungraun_runner6runner9callgrind4argsNtB3_13CallgrindArgsNtNtNtB7_4tool4args8ToolArgs10try_updateINtNtNtNtCsgEmfK2I1SDS_4core4iter8adapters7flatten7FlatMapINtNtNtB27_5slice4iter4IterRNtNtB9_3api11RawToolArgsERSNtNtCslNYArtu3iFV_5alloc6string6StringNCNvB2_22try_from_raw_tool_args0EEB9_
FN:43,_RNCINvXNtNtNtCs5iQXrcGAeg9_15gungraun_runner6runner9callgrind4argsNtB5_13CallgrindArgsNtNtNtB9_4tool4args8ToolArgs10try_updateINtNtNtNtCsgEmfK2I1SDS_4core4iter8adapters7flatten7FlatMapINtNtNtB29_5slice4iter4IterRNtNtBb_3api11RawToolArgsERSNtNtCslNYArtu3iFV_5alloc6string6StringNCNvB4_22try_from_raw_tool_args0EE0Bb_
FN:56,_RNCINvXNtNtNtCs5iQXrcGAeg9_15gungraun_runner6runner9callgrind4argsNtB5_13CallgrindArgsNtNtNtB9_4tool4args8ToolArgs10try_updateINtNtNtNtCsgEmfK2I1SDS_4core4iter8adapters7flatten7FlatMapINtNtNtB29_5slice4iter4IterRNtNtBb_3api11RawToolArgsERSNtNtCslNYArtu3iFV_5alloc6string6StringNCNvB4_22try_from_raw_tool_args0EEs0_0Bb_
FN:61,_RNCINvXNtNtNtCs5iQXrcGAeg9_15gungraun_runner6runner9callgrind4argsNtB5_13CallgrindArgsNtNtNtB9_4tool4args8ToolArgs10try_updateINtNtNtNtCsgEmfK2I1SDS_4core4iter8adapters7flatten7FlatMapINtNtNtB29_5slice4iter4IterRNtNtBb_3api11RawToolArgsERSNtNtCslNYArtu3iFV_5alloc6string6StringNCNvB4_22try_from_raw_tool_args0EEs1_0Bb_
FN:66,_RNCINvXNtNtNtCs5iQXrcGAeg9_15gungraun_runner6runner9callgrind4argsNtB5_13CallgrindArgsNtNtNtB9_4tool4args8ToolArgs10try_updateINtNtNtNtCsgEmfK2I1SDS_4core4iter8adapters7flatten7FlatMapINtNtNtB29_5slice4iter4IterRNtNtBb_3api11RawToolArgsERSNtNtCslNYArtu3iFV_5alloc6string6StringNCNvB4_22try_from_raw_tool_args0EEs2_0Bb_
FN:48,_RNCINvXNtNtNtCs5iQXrcGAeg9_15gungraun_runner6runner9callgrind4argsNtB5_13CallgrindArgsNtNtNtB9_4tool4args8ToolArgs10try_updateINtNtNtNtCsgEmfK2I1SDS_4core4iter8adapters7flatten7FlatMapINtNtNtB29_5slice4iter4IterRNtNtBb_3api11RawToolArgsERSNtNtCslNYArtu3iFV_5alloc6string6StringNCNvB4_22try_from_raw_tool_args0EEs_0Bb_
FN:36,_RNCNvXNtNtNtCs5iQXrcGAeg9_15gungraun_runner6runner9callgrind4argsNtB4_13CallgrindArgsNtNtNtB8_4tool4args8ToolArgs22try_from_raw_tool_args0Ba_
FN:131,_RNCNvXs0_NtNtNtCs5iQXrcGAeg9_15gungraun_runner6runner9callgrind4argsNtNtNtBb_4tool4args12ValgrindArgsINtNtCsgEmfK2I1SDS_4core7convert4FromNtB7_13CallgrindArgsE4from0Bd_
FN:106,_RNvXs0_NtNtNtCs34FkZ5Aug64_15gungraun_runner6runner9callgrind4argsNtNtNtB9_4tool4args12ValgrindArgsINtNtCsgEmfK2I1SDS_4core7convert4FromNtB5_13CallgrindArgsE4from
FN:172,_RNvNtNtNtNtCs34FkZ5Aug64_15gungraun_runner6runner9callgrind4args5tests15valgrind_args_f
FN:198,_RNvNtNtNtNtCs34FkZ5Aug64_15gungraun_runner6runner9callgrind4args5tests16callgrind_args_f
FN:168,_RNvNtNtNtNtCs34FkZ5Aug64_15gungraun_runner6runner9callgrind4args5tests22___orig_valgrind_args_f
FN:188,_RNvNtNtNtNtCs34FkZ5Aug64_15gungraun_runner6runner9callgrind4args5tests23___orig_callgrind_args_f
FN:148,_RNvNtNtNtNtCs34FkZ5Aug64_15gungraun_runner6runner9callgrind4args5tests28default_callgrind_other_args
FN:276,_RNvNtNtNtNtCs34FkZ5Aug64_15gungraun_runner6runner9callgrind4args5testss_38test_from_callgrind_args_when_defaults
FN:318,_RNvNtNtNtNtCs34FkZ5Aug64_15gungraun_runner6runner9callgrind4args5testss_44test_from_callgrind_args_when_toggle_collect
FN:287,_RNvNtNtNtNtCs34FkZ5Aug64_15gungraun_runner6runner9callgrind4args5testss_50test_from_callgrind_args_when_tool_specific_values
FN:335,_RNvNtNtNtNtCs34FkZ5Aug64_15gungraun_runner6runner9callgrind4args5testss_75test_from_callgrind_args_when_valgrind_args_then_appends_tool_specific_last
FN:32,_RNvXNtNtNtCs34FkZ5Aug64_15gungraun_runner6runner9callgrind4argsNtB2_13CallgrindArgsNtNtNtB6_4tool4args8ToolArgs22try_from_raw_tool_args
FN:84,_RNvXs_NtNtNtCs34FkZ5Aug64_15gungraun_runner6runner9callgrind4argsNtB4_13CallgrindArgsNtNtCsgEmfK2I1SDS_4core7default7Default7default
FN:40,_RINvXNtNtNtCs34FkZ5Aug64_15gungraun_runner6runner9callgrind4argsNtB3_13CallgrindArgsNtNtNtB7_4tool4args8ToolArgs10try_updateINtNtNtNtCsgEmfK2I1SDS_4core4iter8adapters7flatten7FlatMapINtNtNtB27_5slice4iter4IterRNtNtB9_3api11RawToolArgsERSNtNtCslNYArtu3iFV_5alloc6string6StringNCNvB2_22try_from_raw_tool_args0EEB9_
FN:43,_RNCINvXNtNtNtCs34FkZ5Aug64_15gungraun_runner6runner9callgrind4argsNtB5_13CallgrindArgsNtNtNtB9_4tool4args8ToolArgs10try_updateINtNtNtNtCsgEmfK2I1SDS_4core4iter8adapters7flatten7FlatMapINtNtNtB29_5slice4iter4IterRNtNtBb_3api11RawToolArgsERSNtNtCslNYArtu3iFV_5alloc6string6StringNCNvB4_22try_from_raw_tool_args0EE0Bb_
FN:56,_RNCINvXNtNtNtCs34FkZ5Aug64_15gungraun_runner6runner9callgrind4argsNtB5_13CallgrindArgsNtNtNtB9_4tool4args8ToolArgs10try_updateINtNtNtNtCsgEmfK2I1SDS_4core4iter8adapters7flatten7FlatMapINtNtNtB29_5slice4iter4IterRNtNtBb_3api11RawToolArgsERSNtNtCslNYArtu3iFV_5alloc6string6StringNCNvB4_22try_from_raw_tool_args0EEs0_0Bb_
FN:61,_RNCINvXNtNtNtCs34FkZ5Aug64_15gungraun_runner6runner9callgrind4argsNtB5_13CallgrindArgsNtNtNtB9_4tool4args8ToolArgs10try_updateINtNtNtNtCsgEmfK2I1SDS_4core4iter8adapters7flatten7FlatMapINtNtNtB29_5slice4iter4IterRNtNtBb_3api11RawToolArgsERSNtNtCslNYArtu3iFV_5alloc6string6StringNCNvB4_22try_from_raw_tool_args0EEs1_0Bb_
FN:66,_RNCINvXNtNtNtCs34FkZ5Aug64_15gungraun_runner6runner9callgrind4argsNtB5_13CallgrindArgsNtNtNtB9_4tool4args8ToolArgs10try_updateINtNtNtNtCsgEmfK2I1SDS_4core4iter8adapters7flatten7FlatMapINtNtNtB29_5slice4iter4IterRNtNtBb_3api11RawToolArgsERSNtNtCslNYArtu3iFV_5alloc6string6StringNCNvB4_22try_from_raw_tool_args0EEs2_0Bb_
FN:48,_RNCINvXNtNtNtCs34FkZ5Aug64_15gungraun_runner6runner9callgrind4argsNtB5_13CallgrindArgsNtNtNtB9_4tool4args8ToolArgs10try_updateINtNtNtNtCsgEmfK2I1SDS_4core4iter8adapters7flatten7FlatMapINtNtNtB29_5slice4iter4IterRNtNtBb_3api11RawToolArgsERSNtNtCslNYArtu3iFV_5alloc6string6StringNCNvB4_22try_from_raw_tool_args0EEs_0Bb_
FN:36,_RNCNvXNtNtNtCs34FkZ5Aug64_15gungraun_runner6runner9callgrind4argsNtB4_13CallgrindArgsNtNtNtB8_4tool4args8ToolArgs22try_from_raw_tool_args0Ba_
FN:131,_RNCNvXs0_NtNtNtCs34FkZ5Aug64_15gungraun_runner6runner9callgrind4argsNtNtNtBb_4tool4args12ValgrindArgsINtNtCsgEmfK2I1SDS_4core7convert4FromNtB7_13CallgrindArgsE4from0Bd_
FN:163,_RINvNtNtNtNtCs34FkZ5Aug64_15gungraun_runner6runner9callgrind4args5tests7stringsKj2_EBa_
FN:163,_RINvNtNtNtNtCs34FkZ5Aug64_15gungraun_runner6runner9callgrind4args5tests7stringsKja_EBa_
FN:163,_RINvNtNtNtNtCs34FkZ5Aug64_15gungraun_runner6runner9callgrind4args5tests7stringsKjc_EBa_
FNDA:3,_RNvXs0_NtNtNtCs5iQXrcGAeg9_15gungraun_runner6runner9callgrind4argsNtNtNtB9_4tool4args12ValgrindArgsINtNtCsgEmfK2I1SDS_4core7convert4FromNtB5_13CallgrindArgsE4from
FNDA:3,_RNvXNtNtNtCs5iQXrcGAeg9_15gungraun_runner6runner9callgrind4argsNtB2_13CallgrindArgsNtNtNtB6_4tool4args8ToolArgs22try_from_raw_tool_args
FNDA:3,_RNvXs_NtNtNtCs5iQXrcGAeg9_15gungraun_runner6runner9callgrind4argsNtB4_13CallgrindArgsNtNtCsgEmfK2I1SDS_4core7default7Default7default
FNDA:3,_RINvXNtNtNtCs5iQXrcGAeg9_15gungraun_runner6runner9callgrind4argsNtB3_13CallgrindArgsNtNtNtB7_4tool4args8ToolArgs10try_updateINtNtNtNtCsgEmfK2I1SDS_4core4iter8adapters7flatten7FlatMapINtNtNtB27_5slice4iter4IterRNtNtB9_3api11RawToolArgsERSNtNtCslNYArtu3iFV_5alloc6string6StringNCNvB2_22try_from_raw_tool_args0EEB9_
FNDA:5,_RNCINvXNtNtNtCs5iQXrcGAeg9_15gungraun_runner6runner9callgrind4argsNtB5_13CallgrindArgsNtNtNtB9_4tool4args8ToolArgs10try_updateINtNtNtNtCsgEmfK2I1SDS_4core4iter8adapters7flatten7FlatMapINtNtNtB29_5slice4iter4IterRNtNtBb_3api11RawToolArgsERSNtNtCslNYArtu3iFV_5alloc6string6StringNCNvB4_22try_from_raw_tool_args0EE0Bb_
FNDA:0,_RNCINvXNtNtNtCs5iQXrcGAeg9_15gungraun_runner6runner9callgrind4argsNtB5_13CallgrindArgsNtNtNtB9_4tool4args8ToolArgs10try_updateINtNtNtNtCsgEmfK2I1SDS_4core4iter8adapters7flatten7FlatMapINtNtNtB29_5slice4iter4IterRNtNtBb_3api11RawToolArgsERSNtNtCslNYArtu3iFV_5alloc6string6StringNCNvB4_22try_from_raw_tool_args0EEs0_0Bb_
FNDA:0,_RNCINvXNtNtNtCs5iQXrcGAeg9_15gungraun_runner6runner9callgrind4argsNtB5_13CallgrindArgsNtNtNtB9_4tool4args8ToolArgs10try_updateINtNtNtNtCsgEmfK2I1SDS_4core4iter8adapters7flatten7FlatMapINtNtNtB29_5slice4iter4IterRNtNtBb_3api11RawToolArgsERSNtNtCslNYArtu3iFV_5alloc6string6StringNCNvB4_22try_from_raw_tool_args0EEs1_0Bb_
FNDA:0,_RNCINvXNtNtNtCs5iQXrcGAeg9_15gungraun_runner6runner9callgrind4argsNtB5_13CallgrindArgsNtNtNtB9_4tool4args8ToolArgs10try_updateINtNtNtNtCsgEmfK2I1SDS_4core4iter8adapters7flatten7FlatMapINtNtNtB29_5slice4iter4IterRNtNtBb_3api11RawToolArgsERSNtNtCslNYArtu3iFV_5alloc6string6StringNCNvB4_22try_from_raw_tool_args0EEs2_0Bb_
FNDA:0,_RNCINvXNtNtNtCs5iQXrcGAeg9_15gungraun_runner6runner9callgrind4argsNtB5_13CallgrindArgsNtNtNtB9_4tool4args8ToolArgs10try_updateINtNtNtNtCsgEmfK2I1SDS_4core4iter8adapters7flatten7FlatMapINtNtNtB29_5slice4iter4IterRNtNtBb_3api11RawToolArgsERSNtNtCslNYArtu3iFV_5alloc6string6StringNCNvB4_22try_from_raw_tool_args0EEs_0Bb_
FNDA:3,_RNCNvXNtNtNtCs5iQXrcGAeg9_15gungraun_runner6runner9callgrind4argsNtB4_13CallgrindArgsNtNtNtB8_4tool4args8ToolArgs22try_from_raw_tool_args0Ba_
FNDA:0,_RNCNvXs0_NtNtNtCs5iQXrcGAeg9_15gungraun_runner6runner9callgrind4argsNtNtNtBb_4tool4args12ValgrindArgsINtNtCsgEmfK2I1SDS_4core7convert4FromNtB7_13CallgrindArgsE4from0Bd_
FNDA:5,_RNvXs0_NtNtNtCs34FkZ5Aug64_15gungraun_runner6runner9callgrind4argsNtNtNtB9_4tool4args12ValgrindArgsINtNtCsgEmfK2I1SDS_4core7convert4FromNtB5_13CallgrindArgsE4from
FNDA:7,_RNvNtNtNtNtCs34FkZ5Aug64_15gungraun_runner6runner9callgrind4args5tests15valgrind_args_f
FNDA:17,_RNvNtNtNtNtCs34FkZ5Aug64_15gungraun_runner6runner9callgrind4args5tests16callgrind_args_f
FNDA:7,_RNvNtNtNtNtCs34FkZ5Aug64_15gungraun_runner6runner9callgrind4args5tests22___orig_valgrind_args_f
FNDA:17,_RNvNtNtNtNtCs34FkZ5Aug64_15gungraun_runner6runner9callgrind4args5tests23___orig_callgrind_args_f
FNDA:2,_RNvNtNtNtNtCs34FkZ5Aug64_15gungraun_runner6runner9callgrind4args5tests28default_callgrind_other_args
FNDA:1,_RNvNtNtNtNtCs34FkZ5Aug64_15gungraun_runner6runner9callgrind4args5testss_38test_from_callgrind_args_when_defaults
FNDA:1,_RNvNtNtNtNtCs34FkZ5Aug64_15gungraun_runner6runner9callgrind4args5testss_44test_from_callgrind_args_when_toggle_collect
FNDA:1,_RNvNtNtNtNtCs34FkZ5Aug64_15gungraun_runner6runner9callgrind4args5testss_50test_from_callgrind_args_when_tool_specific_values
FNDA:1,_RNvNtNtNtNtCs34FkZ5Aug64_15gungraun_runner6runner9callgrind4args5testss_75test_from_callgrind_args_when_valgrind_args_then_appends_tool_specific_last
FNDA:14,_RNvXNtNtNtCs34FkZ5Aug64_15gungraun_runner6runner9callgrind4argsNtB2_13CallgrindArgsNtNtNtB6_4tool4args8ToolArgs22try_from_raw_tool_args
FNDA:31,_RNvXs_NtNtNtCs34FkZ5Aug64_15gungraun_runner6runner9callgrind4argsNtB4_13CallgrindArgsNtNtCsgEmfK2I1SDS_4core7default7Default7default
FNDA:14,_RINvXNtNtNtCs34FkZ5Aug64_15gungraun_runner6runner9callgrind4argsNtB3_13CallgrindArgsNtNtNtB7_4tool4args8ToolArgs10try_updateINtNtNtNtCsgEmfK2I1SDS_4core4iter8adapters7flatten7FlatMapINtNtNtB27_5slice4iter4IterRNtNtB9_3api11RawToolArgsERSNtNtCslNYArtu3iFV_5alloc6string6StringNCNvB2_22try_from_raw_tool_args0EEB9_
FNDA:14,_RNCINvXNtNtNtCs34FkZ5Aug64_15gungraun_runner6runner9callgrind4argsNtB5_13CallgrindArgsNtNtNtB9_4tool4args8ToolArgs10try_updateINtNtNtNtCsgEmfK2I1SDS_4core4iter8adapters7flatten7FlatMapINtNtNtB29_5slice4iter4IterRNtNtBb_3api11RawToolArgsERSNtNtCslNYArtu3iFV_5alloc6string6StringNCNvB4_22try_from_raw_tool_args0EE0Bb_
FNDA:0,_RNCINvXNtNtNtCs34FkZ5Aug64_15gungraun_runner6runner9callgrind4argsNtB5_13CallgrindArgsNtNtNtB9_4tool4args8ToolArgs10try_updateINtNtNtNtCsgEmfK2I1SDS_4core4iter8adapters7flatten7FlatMapINtNtNtB29_5slice4iter4IterRNtNtBb_3api11RawToolArgsERSNtNtCslNYArtu3iFV_5alloc6string6StringNCNvB4_22try_from_raw_tool_args0EEs0_0Bb_
FNDA:0,_RNCINvXNtNtNtCs34FkZ5Aug64_15gungraun_runner6runner9callgrind4argsNtB5_13CallgrindArgsNtNtNtB9_4tool4args8ToolArgs10try_updateINtNtNtNtCsgEmfK2I1SDS_4core4iter8adapters7flatten7FlatMapINtNtNtB29_5slice4iter4IterRNtNtBb_3api11RawToolArgsERSNtNtCslNYArtu3iFV_5alloc6string6StringNCNvB4_22try_from_raw_tool_args0EEs1_0Bb_
FNDA:0,_RNCINvXNtNtNtCs34FkZ5Aug64_15gungraun_runner6runner9callgrind4argsNtB5_13CallgrindArgsNtNtNtB9_4tool4args8ToolArgs10try_updateINtNtNtNtCsgEmfK2I1SDS_4core4iter8adapters7flatten7FlatMapINtNtNtB29_5slice4iter4IterRNtNtBb_3api11RawToolArgsERSNtNtCslNYArtu3iFV_5alloc6string6StringNCNvB4_22try_from_raw_tool_args0EEs2_0Bb_
FNDA:0,_RNCINvXNtNtNtCs34FkZ5Aug64_15gungraun_runner6runner9callgrind4argsNtB5_13CallgrindArgsNtNtNtB9_4tool4args8ToolArgs10try_updateINtNtNtNtCsgEmfK2I1SDS_4core4iter8adapters7flatten7FlatMapINtNtNtB29_5slice4iter4IterRNtNtBb_3api11RawToolArgsERSNtNtCslNYArtu3iFV_5alloc6string6StringNCNvB4_22try_from_raw_tool_args0EEs_0Bb_
FNDA:14,_RNCNvXNtNtNtCs34FkZ5Aug64_15gungraun_runner6runner9callgrind4argsNtB4_13CallgrindArgsNtNtNtB8_4tool4args8ToolArgs22try_from_raw_tool_args0Ba_
FNDA:3,_RNCNvXs0_NtNtNtCs34FkZ5Aug64_15gungraun_runner6runner9callgrind4argsNtNtNtBb_4tool4args12ValgrindArgsINtNtCsgEmfK2I1SDS_4core7convert4FromNtB7_13CallgrindArgsE4from0Bd_
FNDA:2,_RINvNtNtNtNtCs34FkZ5Aug64_15gungraun_runner6runner9callgrind4args5tests7stringsKj2_EBa_
FNDA:3,_RINvNtNtNtNtCs34FkZ5Aug64_15gungraun_runner6runner9callgrind4args5tests7stringsKja_EBa_
FNDA:1,_RINvNtNtNtNtCs34FkZ5Aug64_15gungraun_runner6runner9callgrind4args5tests7stringsKjc_EBa_
FNF:21
FNH:17
DA:32,17
DA:33,17
DA:35,17
DA:36,17
DA:37,17
DA:38,17
DA:40,17
DA:41,19
DA:42,19
DA:43,19
DA:44,19
DA:45,18
DA:46,17
DA:47,16
DA:48,1
DA:49,0
DA:50,0
DA:52,15
DA:53,2
DA:54,2
DA:55,13
DA:56,1
DA:57,0
DA:58,0
DA:60,12
DA:61,1
DA:62,0
DA:63,0
DA:65,11
DA:66,1
DA:67,0
DA:68,0
DA:71,10
DA:72,3
DA:74,3
DA:76,7
DA:79,17
DA:80,17
DA:84,34
DA:85,34
DA:86,34
DA:87,34
DA:88,34
DA:89,34
DA:90,34
DA:91,34
DA:92,34
DA:93,34
DA:94,34
DA:95,34
DA:96,34
DA:97,34
DA:98,34
DA:99,34
DA:100,34
DA:101,34
DA:102,34
DA:106,8
DA:107,8
DA:108,8
DA:109,8
DA:110,8
DA:111,8
DA:112,8
DA:113,8
DA:115,8
DA:117,8
DA:118,8
DA:119,8
DA:120,8
DA:121,8
DA:123,8
DA:126,8
DA:127,8
DA:128,8
DA:129,8
DA:130,8
DA:131,8
DA:134,8
DA:135,8
DA:148,2
DA:149,2
DA:150,2
DA:151,2
DA:152,2
DA:153,2
DA:154,2
DA:155,2
DA:156,2
DA:157,2
DA:158,2
DA:159,2
DA:160,2
DA:161,2
DA:163,6
DA:164,6
DA:165,6
DA:168,7
DA:169,7
DA:170,7
DA:171,7
DA:172,7
DA:173,7
DA:174,7
DA:175,0
DA:176,7
DA:177,7
DA:178,3
DA:179,4
DA:180,7
DA:181,6
DA:182,6
DA:184,7
DA:185,14
DA:188,17
DA:189,17
DA:190,17
DA:191,17
DA:192,17
DA:193,17
DA:194,17
DA:195,17
DA:196,17
DA:197,17
DA:198,17
DA:199,17
DA:200,17
DA:201,3
DA:202,14
DA:203,17
DA:204,2
DA:205,15
DA:206,17
DA:207,2
DA:208,15
DA:209,17
DA:210,2
DA:211,15
DA:212,17
DA:213,2
DA:214,15
DA:215,17
DA:216,2
DA:217,15
DA:218,17
DA:219,2
DA:220,15
DA:221,17
DA:222,2
DA:223,15
DA:224,17
DA:225,3
DA:226,14
DA:228,17
DA:229,34
DA:276,1
DA:277,1
DA:278,1
DA:279,1
DA:281,1
DA:283,1
DA:284,1
DA:287,1
DA:288,1
DA:289,1
DA:290,1
DA:291,1
DA:292,1
DA:293,1
DA:294,1
DA:295,1
DA:296,1
DA:297,1
DA:298,1
DA:299,1
DA:300,1
DA:301,1
DA:302,1
DA:303,1
DA:304,1
DA:305,1
DA:306,1
DA:307,1
DA:308,1
DA:309,1
DA:310,1
DA:312,1
DA:314,1
DA:315,1
DA:318,1
DA:319,1
DA:320,1
DA:321,1
DA:322,1
DA:323,1
DA:324,1
DA:325,1
DA:326,1
DA:327,1
DA:329,1
DA:331,1
DA:332,1
DA:335,1
DA:336,1
DA:337,1
DA:338,1
DA:339,1
DA:340,1
DA:341,1
DA:342,1
DA:344,1
DA:345,1
DA:346,1
DA:347,1
DA:348,1
DA:349,1
DA:350,1
DA:351,1
DA:352,1
DA:353,1
DA:354,1
DA:355,1
DA:356,1
DA:357,1
DA:358,1
DA:359,1
DA:360,1
DA:361,1
DA:363,1
DA:365,1
DA:366,1
BRF:0
BRH:0
LF:246
LH:229
end_of_record
SF:/fast/lenny/workspace/programming/gungraun/gungraun/gungraun-runner/src/runner/callgrind/flamegraph.rs
FN:191,_RNvXs0_NtNtNtCs5iQXrcGAeg9_15gungraun_runner6runner9callgrind10flamegraphNtNtCs4ApkGVNAjnC_7inferno10flamegraph9DirectionINtNtCsgEmfK2I1SDS_4core7convert4FromNtNtBb_3api9DirectionE4from
FN:258,_RINvMs1_NtNtNtCs5iQXrcGAeg9_15gungraun_runner6runner9callgrind10flamegraphNtB6_10Flamegraph5parseRNtNtCsjrHSEGnQ3l9_3std4path4PathEBc_
FN:316,_RINvMs1_NtNtNtCs5iQXrcGAeg9_15gungraun_runner6runner9callgrind10flamegraphNtB6_10Flamegraph5writeINtNtNtNtCsgEmfK2I1SDS_4core4iter8adapters3map3MapINtNtNtB1G_5slice4iter4IterNtNtCslNYArtu3iFV_5alloc6string6StringENvMB2O_B2M_6as_strEEBc_
FN:316,_RINvMs1_NtNtNtCs5iQXrcGAeg9_15gungraun_runner6runner9callgrind10flamegraphNtB6_10Flamegraph5writeNtNtNtCsgEmfK2I1SDS_4core3str4iter5LinesEBc_
FN:562,_RINvMs3_NtNtNtCs5iQXrcGAeg9_15gungraun_runner6runner9callgrind10flamegraphNtB6_10OutputPath13set_modifiersReAB1G_j1_EBc_
FN:274,_RNCINvMs1_NtNtNtCs5iQXrcGAeg9_15gungraun_runner6runner9callgrind10flamegraphNtB8_10Flamegraph5parseRNtNtCsjrHSEGnQ3l9_3std4path4PathE0Be_
FN:324,_RNCINvMs1_NtNtNtCs5iQXrcGAeg9_15gungraun_runner6runner9callgrind10flamegraphNtB8_10Flamegraph5writeINtNtNtNtCsgEmfK2I1SDS_4core4iter8adapters3map3MapINtNtNtB1I_5slice4iter4IterNtNtCslNYArtu3iFV_5alloc6string6StringENvMB2Q_B2O_6as_strEE0Be_
FN:328,_RNCINvMs1_NtNtNtCs5iQXrcGAeg9_15gungraun_runner6runner9callgrind10flamegraphNtB8_10Flamegraph5writeINtNtNtNtCsgEmfK2I1SDS_4core4iter8adapters3map3MapINtNtNtB1I_5slice4iter4IterNtNtCslNYArtu3iFV_5alloc6string6StringENvMB2Q_B2O_6as_strEEs_0Be_
FN:324,_RNCINvMs1_NtNtNtCs5iQXrcGAeg9_15gungraun_runner6runner9callgrind10flamegraphNtB8_10Flamegraph5writeNtNtNtCsgEmfK2I1SDS_4core3str4iter5LinesE0Be_
FN:328,_RNCINvMs1_NtNtNtCs5iQXrcGAeg9_15gungraun_runner6runner9callgrind10flamegraphNtB8_10Flamegraph5writeNtNtNtCsgEmfK2I1SDS_4core3str4iter5LinesEs_0Be_
FN:252,_RNCNvMs1_NtNtNtCs5iQXrcGAeg9_15gungraun_runner6runner9callgrind10flamegraphNtB7_10Flamegraph20differential_options0Bd_
FN:451,_RNCNvMs3_NtNtNtCs5iQXrcGAeg9_15gungraun_runner6runner9callgrind10flamegraphNtB7_10OutputPath10clear_diff0Bd_
FN:469,_RNCNvMs3_NtNtNtCs5iQXrcGAeg9_15gungraun_runner6runner9callgrind10flamegraphNtB7_10OutputPath10clear_diffs0_0Bd_
FN:477,_RNCNvMs3_NtNtNtCs5iQXrcGAeg9_15gungraun_runner6runner9callgrind10flamegraphNtB7_10OutputPath10clear_diffs1_0Bd_
FN:461,_RNCNvMs3_NtNtNtCs5iQXrcGAeg9_15gungraun_runner6runner9callgrind10flamegraphNtB7_10OutputPath10clear_diffs_0Bd_
FN:594,_RNCNvMs3_NtNtNtCs5iQXrcGAeg9_15gungraun_runner6runner9callgrind10flamegraphNtB7_10OutputPath13real_paths_in0Bd_
FN:418,_RNCNvMs3_NtNtNtCs5iQXrcGAeg9_15gungraun_runner6runner9callgrind10flamegraphNtB7_10OutputPath4init0Bd_
FN:496,_RNCNvMs3_NtNtNtCs5iQXrcGAeg9_15gungraun_runner6runner9callgrind10flamegraphNtB7_10OutputPath5shift0Bd_
FN:429,_RNCNvMs3_NtNtNtCs5iQXrcGAeg9_15gungraun_runner6runner9callgrind10flamegraphNtB7_10OutputPath6create0Bd_
FN:356,_RNCNvXs2_NtNtNtCs5iQXrcGAeg9_15gungraun_runner6runner9callgrind10flamegraphNtB7_31LoadBaselineFlamegraphGeneratorNtB7_19FlamegraphGenerator6create0Bd_
FN:179,_RNCNvXs_NtNtNtCs5iQXrcGAeg9_15gungraun_runner6runner9callgrind10flamegraphNtB6_6ConfigINtNtCsgEmfK2I1SDS_4core7convert4FromNtNtBc_3api16FlamegraphConfigE4from0Bc_
FN:218,_RNvMs1_NtNtNtCs5iQXrcGAeg9_15gungraun_runner6runner9callgrind10flamegraphNtB5_10Flamegraph10is_regular
FN:210,_RNvMs1_NtNtNtCs5iQXrcGAeg9_15gungraun_runner6runner9callgrind10flamegraphNtB5_10Flamegraph15is_differential
FN:291,_RNvMs1_NtNtNtCs5iQXrcGAeg9_15gungraun_runner6runner9callgrind10flamegraphNtB5_10Flamegraph19create_differential
FN:249,_RNvMs1_NtNtNtCs5iQXrcGAeg9_15gungraun_runner6runner9callgrind10flamegraphNtB5_10Flamegraph20differential_options
FN:201,_RNvMs1_NtNtNtCs5iQXrcGAeg9_15gungraun_runner6runner9callgrind10flamegraphNtB5_10Flamegraph3new
FN:226,_RNvMs1_NtNtNtCs5iQXrcGAeg9_15gungraun_runner6runner9callgrind10flamegraphNtB5_10Flamegraph7options
FN:445,_RNvMs3_NtNtNtCs5iQXrcGAeg9_15gungraun_runner6runner9callgrind10flamegraphNtB5_10OutputPath10clear_diff
FN:527,_RNvMs3_NtNtNtCs5iQXrcGAeg9_15gungraun_runner6runner9callgrind10flamegraphNtB5_10OutputPath12to_base_path
FN:510,_RNvMs3_NtNtNtCs5iQXrcGAeg9_15gungraun_runner6runner9callgrind10flamegraphNtB5_10OutputPath12to_diff_path
FN:581,_RNvMs3_NtNtNtCs5iQXrcGAeg9_15gungraun_runner6runner9callgrind10flamegraphNtB5_10OutputPath13real_paths_in
FN:570,_RNvMs3_NtNtNtCs5iQXrcGAeg9_15gungraun_runner6runner9callgrind10flamegraphNtB5_10OutputPath14set_event_kind
FN:392,_RNvMs3_NtNtNtCs5iQXrcGAeg9_15gungraun_runner6runner9callgrind10flamegraphNtB5_10OutputPath3new
FN:417,_RNvMs3_NtNtNtCs5iQXrcGAeg9_15gungraun_runner6runner9callgrind10flamegraphNtB5_10OutputPath4init
FN:432,_RNvMs3_NtNtNtCs5iQXrcGAeg9_15gungraun_runner6runner9callgrind10flamegraphNtB5_10OutputPath5clear
FN:490,_RNvMs3_NtNtNtCs5iQXrcGAeg9_15gungraun_runner6runner9callgrind10flamegraphNtB5_10OutputPath5shift
FN:426,_RNvMs3_NtNtNtCs5iQXrcGAeg9_15gungraun_runner6runner9callgrind10flamegraphNtB5_10OutputPath6create
FN:623,_RNvMs3_NtNtNtCs5iQXrcGAeg9_15gungraun_runner6runner9callgrind10flamegraphNtB5_10OutputPath7to_path
FN:574,_RNvMs3_NtNtNtCs5iQXrcGAeg9_15gungraun_runner6runner9callgrind10flamegraphNtB5_10OutputPath8dest_dir
FN:537,_RNvMs3_NtNtNtCs5iQXrcGAeg9_15gungraun_runner6runner9callgrind10flamegraphNtB5_10OutputPath9extension
FN:610,_RNvMs3_NtNtNtCs5iQXrcGAeg9_15gungraun_runner6runner9callgrind10flamegraphNtB5_10OutputPath9file_name
FN:676,_RNvNtNtNtCs5iQXrcGAeg9_15gungraun_runner6runner9callgrind10flamegraph32total_flamegraph_map_from_parsed
FN:107,_RNvXNtNtNtCs5iQXrcGAeg9_15gungraun_runner6runner9callgrind10flamegraphNtB2_27BaselineFlamegraphGeneratorNtB2_19FlamegraphGenerator6create
FN:333,_RNvXs2_NtNtNtCs5iQXrcGAeg9_15gungraun_runner6runner9callgrind10flamegraphNtB5_31LoadBaselineFlamegraphGeneratorNtB5_19FlamegraphGenerator6create
FN:629,_RNvXs4_NtNtNtCs5iQXrcGAeg9_15gungraun_runner6runner9callgrind10flamegraphNtB5_31SaveBaselineFlamegraphGeneratorNtB5_19FlamegraphGenerator6create
FN:174,_RNvXs_NtNtNtCs5iQXrcGAeg9_15gungraun_runner6runner9callgrind10flamegraphNtB4_6ConfigINtNtCsgEmfK2I1SDS_4core7convert4FromNtNtBa_3api16FlamegraphConfigE4from
FN:258,_RINvMs1_NtNtNtCs34FkZ5Aug64_15gungraun_runner6runner9callgrind10flamegraphNtB6_10Flamegraph5parsepEBc_
FN:316,_RINvMs1_NtNtNtCs34FkZ5Aug64_15gungraun_runner6runner9callgrind10flamegraphNtB6_10Flamegraph5writepEBc_
FN:562,_RINvMs3_NtNtNtCs34FkZ5Aug64_15gungraun_runner6runner9callgrind10flamegraphNtB6_10OutputPath13set_modifiersppEBc_
FN:274,_RNCINvMs1_NtNtNtCs34FkZ5Aug64_15gungraun_runner6runner9callgrind10flamegraphNtB8_10Flamegraph5parsepE0Be_
FN:324,_RNCINvMs1_NtNtNtCs34FkZ5Aug64_15gungraun_runner6runner9callgrind10flamegraphNtB8_10Flamegraph5writepE0Be_
FN:328,_RNCINvMs1_NtNtNtCs34FkZ5Aug64_15gungraun_runner6runner9callgrind10flamegraphNtB8_10Flamegraph5writepEs_0Be_
FN:252,_RNCNvMs1_NtNtNtCs34FkZ5Aug64_15gungraun_runner6runner9callgrind10flamegraphNtB7_10Flamegraph20differential_options0Bd_
FN:451,_RNCNvMs3_NtNtNtCs34FkZ5Aug64_15gungraun_runner6runner9callgrind10flamegraphNtB7_10OutputPath10clear_diff0Bd_
FN:469,_RNCNvMs3_NtNtNtCs34FkZ5Aug64_15gungraun_runner6runner9callgrind10flamegraphNtB7_10OutputPath10clear_diffs0_0Bd_
FN:477,_RNCNvMs3_NtNtNtCs34FkZ5Aug64_15gungraun_runner6runner9callgrind10flamegraphNtB7_10OutputPath10clear_diffs1_0Bd_
FN:461,_RNCNvMs3_NtNtNtCs34FkZ5Aug64_15gungraun_runner6runner9callgrind10flamegraphNtB7_10OutputPath10clear_diffs_0Bd_
FN:594,_RNCNvMs3_NtNtNtCs34FkZ5Aug64_15gungraun_runner6runner9callgrind10flamegraphNtB7_10OutputPath13real_paths_in0Bd_
FN:418,_RNCNvMs3_NtNtNtCs34FkZ5Aug64_15gungraun_runner6runner9callgrind10flamegraphNtB7_10OutputPath4init0Bd_
FN:496,_RNCNvMs3_NtNtNtCs34FkZ5Aug64_15gungraun_runner6runner9callgrind10flamegraphNtB7_10OutputPath5shift0Bd_
FN:429,_RNCNvMs3_NtNtNtCs34FkZ5Aug64_15gungraun_runner6runner9callgrind10flamegraphNtB7_10OutputPath6create0Bd_
FN:356,_RNCNvXs2_NtNtNtCs34FkZ5Aug64_15gungraun_runner6runner9callgrind10flamegraphNtB7_31LoadBaselineFlamegraphGeneratorNtB7_19FlamegraphGenerator6create0Bd_
FN:218,_RNvMs1_NtNtNtCs34FkZ5Aug64_15gungraun_runner6runner9callgrind10flamegraphNtB5_10Flamegraph10is_regular
FN:210,_RNvMs1_NtNtNtCs34FkZ5Aug64_15gungraun_runner6runner9callgrind10flamegraphNtB5_10Flamegraph15is_differential
FN:291,_RNvMs1_NtNtNtCs34FkZ5Aug64_15gungraun_runner6runner9callgrind10flamegraphNtB5_10Flamegraph19create_differential
FN:249,_RNvMs1_NtNtNtCs34FkZ5Aug64_15gungraun_runner6runner9callgrind10flamegraphNtB5_10Flamegraph20differential_options
FN:201,_RNvMs1_NtNtNtCs34FkZ5Aug64_15gungraun_runner6runner9callgrind10flamegraphNtB5_10Flamegraph3new
FN:226,_RNvMs1_NtNtNtCs34FkZ5Aug64_15gungraun_runner6runner9callgrind10flamegraphNtB5_10Flamegraph7options
FN:445,_RNvMs3_NtNtNtCs34FkZ5Aug64_15gungraun_runner6runner9callgrind10flamegraphNtB5_10OutputPath10clear_diff
FN:527,_RNvMs3_NtNtNtCs34FkZ5Aug64_15gungraun_runner6runner9callgrind10flamegraphNtB5_10OutputPath12to_base_path
FN:510,_RNvMs3_NtNtNtCs34FkZ5Aug64_15gungraun_runner6runner9callgrind10flamegraphNtB5_10OutputPath12to_diff_path
FN:581,_RNvMs3_NtNtNtCs34FkZ5Aug64_15gungraun_runner6runner9callgrind10flamegraphNtB5_10OutputPath13real_paths_in
FN:570,_RNvMs3_NtNtNtCs34FkZ5Aug64_15gungraun_runner6runner9callgrind10flamegraphNtB5_10OutputPath14set_event_kind
FN:392,_RNvMs3_NtNtNtCs34FkZ5Aug64_15gungraun_runner6runner9callgrind10flamegraphNtB5_10OutputPath3new
FN:417,_RNvMs3_NtNtNtCs34FkZ5Aug64_15gungraun_runner6runner9callgrind10flamegraphNtB5_10OutputPath4init
FN:432,_RNvMs3_NtNtNtCs34FkZ5Aug64_15gungraun_runner6runner9callgrind10flamegraphNtB5_10OutputPath5clear
FN:490,_RNvMs3_NtNtNtCs34FkZ5Aug64_15gungraun_runner6runner9callgrind10flamegraphNtB5_10OutputPath5shift
FN:426,_RNvMs3_NtNtNtCs34FkZ5Aug64_15gungraun_runner6runner9callgrind10flamegraphNtB5_10OutputPath6create
FN:623,_RNvMs3_NtNtNtCs34FkZ5Aug64_15gungraun_runner6runner9callgrind10flamegraphNtB5_10OutputPath7to_path
FN:574,_RNvMs3_NtNtNtCs34FkZ5Aug64_15gungraun_runner6runner9callgrind10flamegraphNtB5_10OutputPath8dest_dir
FN:537,_RNvMs3_NtNtNtCs34FkZ5Aug64_15gungraun_runner6runner9callgrind10flamegraphNtB5_10OutputPath9extension
FN:610,_RNvMs3_NtNtNtCs34FkZ5Aug64_15gungraun_runner6runner9callgrind10flamegraphNtB5_10OutputPath9file_name
FN:676,_RNvNtNtNtCs34FkZ5Aug64_15gungraun_runner6runner9callgrind10flamegraph32total_flamegraph_map_from_parsed
FN:107,_RNvXNtNtNtCs34FkZ5Aug64_15gungraun_runner6runner9callgrind10flamegraphNtB2_27BaselineFlamegraphGeneratorNtB2_19FlamegraphGenerator6create
FN:333,_RNvXs2_NtNtNtCs34FkZ5Aug64_15gungraun_runner6runner9callgrind10flamegraphNtB5_31LoadBaselineFlamegraphGeneratorNtB5_19FlamegraphGenerator6create
FN:629,_RNvXs4_NtNtNtCs34FkZ5Aug64_15gungraun_runner6runner9callgrind10flamegraphNtB5_31SaveBaselineFlamegraphGeneratorNtB5_19FlamegraphGenerator6create
FN:174,_RNvXs_NtNtNtCs34FkZ5Aug64_15gungraun_runner6runner9callgrind10flamegraphNtB4_6ConfigINtNtCsgEmfK2I1SDS_4core7convert4FromNtNtBa_3api16FlamegraphConfigE4from
FN:191,_RNvXs0_NtNtNtCs34FkZ5Aug64_15gungraun_runner6runner9callgrind10flamegraphNtNtCs4ApkGVNAjnC_7inferno10flamegraph9DirectionINtNtCsgEmfK2I1SDS_4core7convert4FromNtNtBb_3api9DirectionE4from
FN:179,_RNCNvXs_NtNtNtCs34FkZ5Aug64_15gungraun_runner6runner9callgrind10flamegraphNtB6_6ConfigINtNtCsgEmfK2I1SDS_4core7convert4FromNtNtBc_3api16FlamegraphConfigE4from0Bc_
FNDA:0,_RNvXs0_NtNtNtCs5iQXrcGAeg9_15gungraun_runner6runner9callgrind10flamegraphNtNtCs4ApkGVNAjnC_7inferno10flamegraph9DirectionINtNtCsgEmfK2I1SDS_4core7convert4FromNtNtBb_3api9DirectionE4from
FNDA:0,_RINvMs1_NtNtNtCs5iQXrcGAeg9_15gungraun_runner6runner9callgrind10flamegraphNtB6_10Flamegraph5parseRNtNtCsjrHSEGnQ3l9_3std4path4PathEBc_
FNDA:0,_RINvMs1_NtNtNtCs5iQXrcGAeg9_15gungraun_runner6runner9callgrind10flamegraphNtB6_10Flamegraph5writeINtNtNtNtCsgEmfK2I1SDS_4core4iter8adapters3map3MapINtNtNtB1G_5slice4iter4IterNtNtCslNYArtu3iFV_5alloc6string6StringENvMB2O_B2M_6as_strEEBc_
FNDA:0,_RINvMs1_NtNtNtCs5iQXrcGAeg9_15gungraun_runner6runner9callgrind10flamegraphNtB6_10Flamegraph5writeNtNtNtCsgEmfK2I1SDS_4core3str4iter5LinesEBc_
FNDA:0,_RINvMs3_NtNtNtCs5iQXrcGAeg9_15gungraun_runner6runner9callgrind10flamegraphNtB6_10OutputPath13set_modifiersReAB1G_j1_EBc_
FNDA:0,_RNCINvMs1_NtNtNtCs5iQXrcGAeg9_15gungraun_runner6runner9callgrind10flamegraphNtB8_10Flamegraph5parseRNtNtCsjrHSEGnQ3l9_3std4path4PathE0Be_
FNDA:0,_RNCINvMs1_NtNtNtCs5iQXrcGAeg9_15gungraun_runner6runner9callgrind10flamegraphNtB8_10Flamegraph5writeINtNtNtNtCsgEmfK2I1SDS_4core4iter8adapters3map3MapINtNtNtB1I_5slice4iter4IterNtNtCslNYArtu3iFV_5alloc6string6StringENvMB2Q_B2O_6as_strEE0Be_
FNDA:0,_RNCINvMs1_NtNtNtCs5iQXrcGAeg9_15gungraun_runner6runner9callgrind10flamegraphNtB8_10Flamegraph5writeINtNtNtNtCsgEmfK2I1SDS_4core4iter8adapters3map3MapINtNtNtB1I_5slice4iter4IterNtNtCslNYArtu3iFV_5alloc6string6StringENvMB2Q_B2O_6as_strEEs_0Be_
FNDA:0,_RNCINvMs1_NtNtNtCs5iQXrcGAeg9_15gungraun_runner6runner9callgrind10flamegraphNtB8_10Flamegraph5writeNtNtNtCsgEmfK2I1SDS_4core3str4iter5LinesE0Be_
FNDA:0,_RNCINvMs1_NtNtNtCs5iQXrcGAeg9_15gungraun_runner6runner9callgrind10flamegraphNtB8_10Flamegraph5writeNtNtNtCsgEmfK2I1SDS_4core3str4iter5LinesEs_0Be_
FNDA:0,_RNCNvMs1_NtNtNtCs5iQXrcGAeg9_15gungraun_runner6runner9callgrind10flamegraphNtB7_10Flamegraph20differential_options0Bd_
FNDA:0,_RNCNvMs3_NtNtNtCs5iQXrcGAeg9_15gungraun_runner6runner9callgrind10flamegraphNtB7_10OutputPath10clear_diff0Bd_
FNDA:0,_RNCNvMs3_NtNtNtCs5iQXrcGAeg9_15gungraun_runner6runner9callgrind10flamegraphNtB7_10OutputPath10clear_diffs0_0Bd_
FNDA:0,_RNCNvMs3_NtNtNtCs5iQXrcGAeg9_15gungraun_runner6runner9callgrind10flamegraphNtB7_10OutputPath10clear_diffs1_0Bd_
FNDA:0,_RNCNvMs3_NtNtNtCs5iQXrcGAeg9_15gungraun_runner6runner9callgrind10flamegraphNtB7_10OutputPath10clear_diffs_0Bd_
FNDA:0,_RNCNvMs3_NtNtNtCs5iQXrcGAeg9_15gungraun_runner6runner9callgrind10flamegraphNtB7_10OutputPath13real_paths_in0Bd_
FNDA:0,_RNCNvMs3_NtNtNtCs5iQXrcGAeg9_15gungraun_runner6runner9callgrind10flamegraphNtB7_10OutputPath4init0Bd_
FNDA:0,_RNCNvMs3_NtNtNtCs5iQXrcGAeg9_15gungraun_runner6runner9callgrind10flamegraphNtB7_10OutputPath5shift0Bd_
FNDA:0,_RNCNvMs3_NtNtNtCs5iQXrcGAeg9_15gungraun_runner6runner9callgrind10flamegraphNtB7_10OutputPath6create0Bd_
FNDA:0,_RNCNvXs2_NtNtNtCs5iQXrcGAeg9_15gungraun_runner6runner9callgrind10flamegraphNtB7_31LoadBaselineFlamegraphGeneratorNtB7_19FlamegraphGenerator6create0Bd_
FNDA:0,_RNCNvXs_NtNtNtCs5iQXrcGAeg9_15gungraun_runner6runner9callgrind10flamegraphNtB6_6ConfigINtNtCsgEmfK2I1SDS_4core7convert4FromNtNtBc_3api16FlamegraphConfigE4from0Bc_
FNDA:0,_RNvMs1_NtNtNtCs5iQXrcGAeg9_15gungraun_runner6runner9callgrind10flamegraphNtB5_10Flamegraph10is_regular
FNDA:0,_RNvMs1_NtNtNtCs5iQXrcGAeg9_15gungraun_runner6runner9callgrind10flamegraphNtB5_10Flamegraph15is_differential
FNDA:0,_RNvMs1_NtNtNtCs5iQXrcGAeg9_15gungraun_runner6runner9callgrind10flamegraphNtB5_10Flamegraph19create_differential
FNDA:0,_RNvMs1_NtNtNtCs5iQXrcGAeg9_15gungraun_runner6runner9callgrind10flamegraphNtB5_10Flamegraph20differential_options
FNDA:0,_RNvMs1_NtNtNtCs5iQXrcGAeg9_15gungraun_runner6runner9callgrind10flamegraphNtB5_10Flamegraph3new
FNDA:0,_RNvMs1_NtNtNtCs5iQXrcGAeg9_15gungraun_runner6runner9callgrind10flamegraphNtB5_10Flamegraph7options
FNDA:0,_RNvMs3_NtNtNtCs5iQXrcGAeg9_15gungraun_runner6runner9callgrind10flamegraphNtB5_10OutputPath10clear_diff
FNDA:0,_RNvMs3_NtNtNtCs5iQXrcGAeg9_15gungraun_runner6runner9callgrind10flamegraphNtB5_10OutputPath12to_base_path
FNDA:0,_RNvMs3_NtNtNtCs5iQXrcGAeg9_15gungraun_runner6runner9callgrind10flamegraphNtB5_10OutputPath12to_diff_path
FNDA:0,_RNvMs3_NtNtNtCs5iQXrcGAeg9_15gungraun_runner6runner9callgrind10flamegraphNtB5_10OutputPath13real_paths_in
FNDA:0,_RNvMs3_NtNtNtCs5iQXrcGAeg9_15gungraun_runner6runner9callgrind10flamegraphNtB5_10OutputPath14set_event_kind
FNDA:0,_RNvMs3_NtNtNtCs5iQXrcGAeg9_15gungraun_runner6runner9callgrind10flamegraphNtB5_10OutputPath3new
FNDA:0,_RNvMs3_NtNtNtCs5iQXrcGAeg9_15gungraun_runner6runner9callgrind10flamegraphNtB5_10OutputPath4init
FNDA:0,_RNvMs3_NtNtNtCs5iQXrcGAeg9_15gungraun_runner6runner9callgrind10flamegraphNtB5_10OutputPath5clear
FNDA:0,_RNvMs3_NtNtNtCs5iQXrcGAeg9_15gungraun_runner6runner9callgrind10flamegraphNtB5_10OutputPath5shift
FNDA:0,_RNvMs3_NtNtNtCs5iQXrcGAeg9_15gungraun_runner6runner9callgrind10flamegraphNtB5_10OutputPath6create
FNDA:0,_RNvMs3_NtNtNtCs5iQXrcGAeg9_15gungraun_runner6runner9callgrind10flamegraphNtB5_10OutputPath7to_path
FNDA:0,_RNvMs3_NtNtNtCs5iQXrcGAeg9_15gungraun_runner6runner9callgrind10flamegraphNtB5_10OutputPath8dest_dir
FNDA:0,_RNvMs3_NtNtNtCs5iQXrcGAeg9_15gungraun_runner6runner9callgrind10flamegraphNtB5_10OutputPath9extension
FNDA:0,_RNvMs3_NtNtNtCs5iQXrcGAeg9_15gungraun_runner6runner9callgrind10flamegraphNtB5_10OutputPath9file_name
FNDA:0,_RNvNtNtNtCs5iQXrcGAeg9_15gungraun_runner6runner9callgrind10flamegraph32total_flamegraph_map_from_parsed
FNDA:0,_RNvXNtNtNtCs5iQXrcGAeg9_15gungraun_runner6runner9callgrind10flamegraphNtB2_27BaselineFlamegraphGeneratorNtB2_19FlamegraphGenerator6create
FNDA:0,_RNvXs2_NtNtNtCs5iQXrcGAeg9_15gungraun_runner6runner9callgrind10flamegraphNtB5_31LoadBaselineFlamegraphGeneratorNtB5_19FlamegraphGenerator6create
FNDA:0,_RNvXs4_NtNtNtCs5iQXrcGAeg9_15gungraun_runner6runner9callgrind10flamegraphNtB5_31SaveBaselineFlamegraphGeneratorNtB5_19FlamegraphGenerator6create
FNDA:0,_RNvXs_NtNtNtCs5iQXrcGAeg9_15gungraun_runner6runner9callgrind10flamegraphNtB4_6ConfigINtNtCsgEmfK2I1SDS_4core7convert4FromNtNtBa_3api16FlamegraphConfigE4from
FNDA:0,_RINvMs1_NtNtNtCs34FkZ5Aug64_15gungraun_runner6runner9callgrind10flamegraphNtB6_10Flamegraph5parsepEBc_
FNDA:0,_RINvMs1_NtNtNtCs34FkZ5Aug64_15gungraun_runner6runner9callgrind10flamegraphNtB6_10Flamegraph5writepEBc_
FNDA:0,_RINvMs3_NtNtNtCs34FkZ5Aug64_15gungraun_runner6runner9callgrind10flamegraphNtB6_10OutputPath13set_modifiersppEBc_
FNDA:0,_RNCINvMs1_NtNtNtCs34FkZ5Aug64_15gungraun_runner6runner9callgrind10flamegraphNtB8_10Flamegraph5parsepE0Be_
FNDA:0,_RNCINvMs1_NtNtNtCs34FkZ5Aug64_15gungraun_runner6runner9callgrind10flamegraphNtB8_10Flamegraph5writepE0Be_
FNDA:0,_RNCINvMs1_NtNtNtCs34FkZ5Aug64_15gungraun_runner6runner9callgrind10flamegraphNtB8_10Flamegraph5writepEs_0Be_
FNDA:0,_RNCNvMs1_NtNtNtCs34FkZ5Aug64_15gungraun_runner6runner9callgrind10flamegraphNtB7_10Flamegraph20differential_options0Bd_
FNDA:0,_RNCNvMs3_NtNtNtCs34FkZ5Aug64_15gungraun_runner6runner9callgrind10flamegraphNtB7_10OutputPath10clear_diff0Bd_
FNDA:0,_RNCNvMs3_NtNtNtCs34FkZ5Aug64_15gungraun_runner6runner9callgrind10flamegraphNtB7_10OutputPath10clear_diffs0_0Bd_
FNDA:0,_RNCNvMs3_NtNtNtCs34FkZ5Aug64_15gungraun_runner6runner9callgrind10flamegraphNtB7_10OutputPath10clear_diffs1_0Bd_
FNDA:0,_RNCNvMs3_NtNtNtCs34FkZ5Aug64_15gungraun_runner6runner9callgrind10flamegraphNtB7_10OutputPath10clear_diffs_0Bd_
FNDA:0,_RNCNvMs3_NtNtNtCs34FkZ5Aug64_15gungraun_runner6runner9callgrind10flamegraphNtB7_10OutputPath13real_paths_in0Bd_
FNDA:0,_RNCNvMs3_NtNtNtCs34FkZ5Aug64_15gungraun_runner6runner9callgrind10flamegraphNtB7_10OutputPath4init0Bd_
FNDA:0,_RNCNvMs3_NtNtNtCs34FkZ5Aug64_15gungraun_runner6runner9callgrind10flamegraphNtB7_10OutputPath5shift0Bd_
FNDA:0,_RNCNvMs3_NtNtNtCs34FkZ5Aug64_15gungraun_runner6runner9callgrind10flamegraphNtB7_10OutputPath6create0Bd_
FNDA:0,_RNCNvXs2_NtNtNtCs34FkZ5Aug64_15gungraun_runner6runner9callgrind10flamegraphNtB7_31LoadBaselineFlamegraphGeneratorNtB7_19FlamegraphGenerator6create0Bd_
FNDA:0,_RNvMs1_NtNtNtCs34FkZ5Aug64_15gungraun_runner6runner9callgrind10flamegraphNtB5_10Flamegraph10is_regular
FNDA:0,_RNvMs1_NtNtNtCs34FkZ5Aug64_15gungraun_runner6runner9callgrind10flamegraphNtB5_10Flamegraph15is_differential
FNDA:0,_RNvMs1_NtNtNtCs34FkZ5Aug64_15gungraun_runner6runner9callgrind10flamegraphNtB5_10Flamegraph19create_differential
FNDA:0,_RNvMs1_NtNtNtCs34FkZ5Aug64_15gungraun_runner6runner9callgrind10flamegraphNtB5_10Flamegraph20differential_options
FNDA:0,_RNvMs1_NtNtNtCs34FkZ5Aug64_15gungraun_runner6runner9callgrind10flamegraphNtB5_10Flamegraph3new
FNDA:0,_RNvMs1_NtNtNtCs34FkZ5Aug64_15gungraun_runner6runner9callgrind10flamegraphNtB5_10Flamegraph7options
FNDA:0,_RNvMs3_NtNtNtCs34FkZ5Aug64_15gungraun_runner6runner9callgrind10flamegraphNtB5_10OutputPath10clear_diff
FNDA:0,_RNvMs3_NtNtNtCs34FkZ5Aug64_15gungraun_runner6runner9callgrind10flamegraphNtB5_10OutputPath12to_base_path
FNDA:0,_RNvMs3_NtNtNtCs34FkZ5Aug64_15gungraun_runner6runner9callgrind10flamegraphNtB5_10OutputPath12to_diff_path
FNDA:0,_RNvMs3_NtNtNtCs34FkZ5Aug64_15gungraun_runner6runner9callgrind10flamegraphNtB5_10OutputPath13real_paths_in
FNDA:0,_RNvMs3_NtNtNtCs34FkZ5Aug64_15gungraun_runner6runner9callgrind10flamegraphNtB5_10OutputPath14set_event_kind
FNDA:0,_RNvMs3_NtNtNtCs34FkZ5Aug64_15gungraun_runner6runner9callgrind10flamegraphNtB5_10OutputPath3new
FNDA:0,_RNvMs3_NtNtNtCs34FkZ5Aug64_15gungraun_runner6runner9callgrind10flamegraphNtB5_10OutputPath4init
FNDA:0,_RNvMs3_NtNtNtCs34FkZ5Aug64_15gungraun_runner6runner9callgrind10flamegraphNtB5_10OutputPath5clear
FNDA:0,_RNvMs3_NtNtNtCs34FkZ5Aug64_15gungraun_runner6runner9callgrind10flamegraphNtB5_10OutputPath5shift
FNDA:0,_RNvMs3_NtNtNtCs34FkZ5Aug64_15gungraun_runner6runner9callgrind10flamegraphNtB5_10OutputPath6create
FNDA:0,_RNvMs3_NtNtNtCs34FkZ5Aug64_15gungraun_runner6runner9callgrind10flamegraphNtB5_10OutputPath7to_path
FNDA:0,_RNvMs3_NtNtNtCs34FkZ5Aug64_15gungraun_runner6runner9callgrind10flamegraphNtB5_10OutputPath8dest_dir
FNDA:0,_RNvMs3_NtNtNtCs34FkZ5Aug64_15gungraun_runner6runner9callgrind10flamegraphNtB5_10OutputPath9extension
FNDA:0,_RNvMs3_NtNtNtCs34FkZ5Aug64_15gungraun_runner6runner9callgrind10flamegraphNtB5_10OutputPath9file_name
FNDA:0,_RNvNtNtNtCs34FkZ5Aug64_15gungraun_runner6runner9callgrind10flamegraph32total_flamegraph_map_from_parsed
FNDA:0,_RNvXNtNtNtCs34FkZ5Aug64_15gungraun_runner6runner9callgrind10flamegraphNtB2_27BaselineFlamegraphGeneratorNtB2_19FlamegraphGenerator6create
FNDA:0,_RNvXs2_NtNtNtCs34FkZ5Aug64_15gungraun_runner6runner9callgrind10flamegraphNtB5_31LoadBaselineFlamegraphGeneratorNtB5_19FlamegraphGenerator6create
FNDA:0,_RNvXs4_NtNtNtCs34FkZ5Aug64_15gungraun_runner6runner9callgrind10flamegraphNtB5_31SaveBaselineFlamegraphGeneratorNtB5_19FlamegraphGenerator6create
FNDA:0,_RNvXs_NtNtNtCs34FkZ5Aug64_15gungraun_runner6runner9callgrind10flamegraphNtB4_6ConfigINtNtCsgEmfK2I1SDS_4core7convert4FromNtNtBa_3api16FlamegraphConfigE4from
FNDA:0,_RNvXs0_NtNtNtCs34FkZ5Aug64_15gungraun_runner6runner9callgrind10flamegraphNtNtCs4ApkGVNAjnC_7inferno10flamegraph9DirectionINtNtCsgEmfK2I1SDS_4core7convert4FromNtNtBb_3api9DirectionE4from
FNDA:0,_RNCNvXs_NtNtNtCs34FkZ5Aug64_15gungraun_runner6runner9callgrind10flamegraphNtB6_6ConfigINtNtCsgEmfK2I1SDS_4core7convert4FromNtNtBc_3api16FlamegraphConfigE4from0Bc_
FNF:43
FNH:0
DA:107,0
DA:108,0
DA:109,0
DA:110,0
DA:111,0
DA:112,0
DA:113,0
DA:116,0
DA:117,0
DA:118,0
DA:119,0
DA:120,0
DA:122,0
DA:123,0
DA:125,0
DA:126,0
DA:128,0
DA:129,0
DA:131,0
DA:133,0
DA:134,0
DA:135,0
DA:136,0
DA:138,0
DA:139,0
DA:140,0
DA:141,0
DA:142,0
DA:143,0
DA:144,0
DA:145,0
DA:146,0
DA:148,0
DA:149,0
DA:151,0
DA:152,0
DA:153,0
DA:154,0
DA:157,0
DA:158,0
DA:159,0
DA:160,0
DA:162,0
DA:163,0
DA:164,0
DA:166,0
DA:169,0
DA:170,0
DA:174,0
DA:176,0
DA:177,0
DA:178,0
DA:179,0
DA:180,0
DA:181,0
DA:182,0
DA:183,0
DA:184,0
DA:185,0
DA:187,0
DA:191,0
DA:192,0
DA:193,0
DA:194,0
DA:196,0
DA:201,0
DA:202,0
DA:203,0
DA:204,0
DA:206,0
DA:207,0
DA:210,0
DA:211,0
DA:212,0
DA:215,0
DA:218,0
DA:219,0
DA:220,0
DA:223,0
DA:226,0
DA:227,0
DA:228,0
DA:229,0
DA:230,0
DA:231,0
DA:232,0
DA:233,0
DA:234,0
DA:237,0
DA:238,0
DA:240,0
DA:243,0
DA:244,0
DA:245,0
DA:246,0
DA:249,0
DA:250,0
DA:251,0
DA:252,0
DA:253,0
DA:254,0
DA:255,0
DA:258,0
DA:259,0
DA:260,0
DA:261,0
DA:262,0
DA:263,0
DA:264,0
DA:265,0
DA:266,0
DA:268,0
DA:270,0
DA:272,0
DA:273,0
DA:274,0
DA:275,0
DA:277,0
DA:278,0
DA:279,0
DA:281,0
DA:282,0
DA:283,0
DA:285,0
DA:286,0
DA:288,0
DA:289,0
DA:291,0
DA:292,0
DA:293,0
DA:294,0
DA:295,0
DA:296,0
DA:297,0
DA:298,0
DA:299,0
DA:301,0
DA:302,0
DA:303,0
DA:305,0
DA:306,0
DA:308,0
DA:309,0
DA:310,0
DA:311,0
DA:312,0
DA:314,0
DA:316,0
DA:317,0
DA:318,0
DA:319,0
DA:320,0
DA:321,0
DA:322,0
DA:323,0
DA:324,0
DA:326,0
DA:327,0
DA:328,0
DA:329,0
DA:333,0
DA:334,0
DA:335,0
DA:336,0
DA:337,0
DA:338,0
DA:339,0
DA:342,0
DA:344,0
DA:345,0
DA:346,0
DA:348,0
DA:349,0
DA:351,0
DA:352,0
DA:354,0
DA:355,0
DA:356,0
DA:358,0
DA:359,0
DA:360,0
DA:362,0
DA:363,0
DA:364,0
DA:365,0
DA:367,0
DA:368,0
DA:369,0
DA:370,0
DA:371,0
DA:373,0
DA:374,0
DA:375,0
DA:376,0
DA:378,0
DA:379,0
DA:380,0
DA:382,0
DA:384,0
DA:385,0
DA:387,0
DA:388,0
DA:392,0
DA:394,0
DA:398,0
DA:402,0
DA:403,0
DA:404,0
DA:405,0
DA:406,0
DA:408,0
DA:409,0
DA:410,0
DA:411,0
DA:412,0
DA:413,0
DA:415,0
DA:417,0
DA:418,0
DA:419,0
DA:421,0
DA:423,0
DA:424,0
DA:426,0
DA:427,0
DA:428,0
DA:429,0
DA:430,0
DA:432,0
DA:433,0
DA:434,0
DA:437,0
DA:438,0
DA:445,0
DA:446,0
DA:447,0
DA:448,0
DA:450,0
DA:451,0
DA:453,0
DA:454,0
DA:455,0
DA:456,0
DA:458,0
DA:460,0
DA:461,0
DA:462,0
DA:463,0
DA:464,0
DA:466,0
DA:467,0
DA:468,0
DA:469,0
DA:470,0
DA:471,0
DA:472,0
DA:473,0
DA:474,0
DA:475,0
DA:477,0
DA:478,0
DA:479,0
DA:480,0
DA:481,0
DA:482,0
DA:483,0
DA:484,0
DA:487,0
DA:488,0
DA:490,0
DA:491,0
DA:493,0
DA:494,0
DA:495,0
DA:496,0
DA:497,0
DA:499,0
DA:500,0
DA:502,0
DA:504,0
DA:506,0
DA:508,0
DA:510,0
DA:512,0
DA:513,0
DA:514,0
DA:515,0
DA:517,0
DA:518,0
DA:520,0
DA:521,0
DA:523,0
DA:525,0
DA:527,0
DA:529,0
DA:530,0
DA:531,0
DA:533,0
DA:535,0
DA:537,0
DA:538,0
DA:539,0
DA:540,0
DA:541,0
DA:542,0
DA:545,0
DA:547,0
DA:548,0
DA:550,0
DA:553,0
DA:554,0
DA:556,0
DA:560,0
DA:562,0
DA:563,0
DA:564,0
DA:565,0
DA:567,0
DA:568,0
DA:570,0
DA:571,0
DA:572,0
DA:574,0
DA:575,0
DA:576,0
DA:578,0
DA:580,0
DA:581,0
DA:582,0
DA:583,0
DA:584,0
DA:585,0
DA:586,0
DA:587,0
DA:589,0
DA:592,0
DA:593,0
DA:594,0
DA:596,0
DA:597,0
DA:598,0
DA:599,0
DA:601,0
DA:602,0
DA:603,0
DA:604,0
DA:607,0
DA:608,0
DA:610,0
DA:611,0
DA:612,0
DA:614,0
DA:617,0
DA:618,0
DA:621,0
DA:623,0
DA:624,0
DA:625,0
DA:629,0
DA:630,0
DA:631,0
DA:632,0
DA:633,0
DA:634,0
DA:635,0
DA:638,0
DA:639,0
DA:640,0
DA:641,0
DA:642,0
DA:644,0
DA:645,0
DA:646,0
DA:648,0
DA:649,0
DA:651,0
DA:652,0
DA:654,0
DA:655,0
DA:656,0
DA:657,0
DA:659,0
DA:660,0
DA:661,0
DA:662,0
DA:663,0
DA:664,0
DA:665,0
DA:666,0
DA:668,0
DA:669,0
DA:672,0
DA:673,0
DA:676,0
DA:677,0
DA:678,0
DA:679,0
DA:681,0
DA:682,0
DA:683,0
DA:684,0
DA:685,0
DA:688,0
BRF:0
BRH:0
LF:419
LH:0
end_of_record
SF:/fast/lenny/workspace/programming/gungraun/gungraun/gungraun-runner/src/runner/callgrind/flamegraph_parser.rs
FN:38,_RNvMNtNtNtCs5iQXrcGAeg9_15gungraun_runner6runner9callgrind17flamegraph_parserNtB2_13FlamegraphMap12make_summary
FN:73,_RNvMNtNtNtCs5iQXrcGAeg9_15gungraun_runner6runner9callgrind17flamegraph_parserNtB2_13FlamegraphMap15to_stack_format
FN:56,_RNvMNtNtNtCs5iQXrcGAeg9_15gungraun_runner6runner9callgrind17flamegraph_parserNtB2_13FlamegraphMap3add
FN:33,_RNvMNtNtNtCs5iQXrcGAeg9_15gungraun_runner6runner9callgrind17flamegraph_parserNtB2_13FlamegraphMap8is_empty
FN:190,_RNvXs0_NtNtNtCs5iQXrcGAeg9_15gungraun_runner6runner9callgrind17flamegraph_parserNtB5_16FlamegraphParserNtNtB7_6parser15CallgrindParser12parse_single
FN:205,_RNvXs1_NtNtNtCs5iQXrcGAeg9_15gungraun_runner6runner9callgrind17flamegraph_parserNtB5_8HeapElemNtNtCsgEmfK2I1SDS_4core3cmp3Ord3cmp
FN:214,_RNvXs2_NtNtNtCs5iQXrcGAeg9_15gungraun_runner6runner9callgrind17flamegraph_parserNtB5_8HeapElemNtNtCsgEmfK2I1SDS_4core3cmp10PartialOrd11partial_cmp
FN:176,_RINvMs_NtNtNtCs5iQXrcGAeg9_15gungraun_runner6runner9callgrind17flamegraph_parserNtB5_16FlamegraphParser3newRNtNtCsjrHSEGnQ3l9_3std4path4PathEBb_
FN:90,_RNCNCNvMNtNtNtCs5iQXrcGAeg9_15gungraun_runner6runner9callgrind17flamegraph_parserNtB6_13FlamegraphMap15to_stack_format00Bc_
FN:47,_RNCNvMNtNtNtCs5iQXrcGAeg9_15gungraun_runner6runner9callgrind17flamegraph_parserNtB4_13FlamegraphMap12make_summary0Ba_
FN:83,_RNCNvMNtNtNtCs5iQXrcGAeg9_15gungraun_runner6runner9callgrind17flamegraph_parserNtB4_13FlamegraphMap15to_stack_format0Ba_
FN:99,_RNCNvMNtNtNtCs5iQXrcGAeg9_15gungraun_runner6runner9callgrind17flamegraph_parserNtB4_13FlamegraphMap15to_stack_formats_0Ba_
FN:200,_RNCNvXs0_NtNtNtCs5iQXrcGAeg9_15gungraun_runner6runner9callgrind17flamegraph_parserNtB7_16FlamegraphParserNtNtB9_6parser15CallgrindParser12parse_single0Bd_
FN:209,_RNCNvXs1_NtNtNtCs5iQXrcGAeg9_15gungraun_runner6runner9callgrind17flamegraph_parserNtB7_8HeapElemNtNtCsgEmfK2I1SDS_4core3cmp3Ord3cmp0Bd_
FN:176,_RINvMs_NtNtNtCs34FkZ5Aug64_15gungraun_runner6runner9callgrind17flamegraph_parserNtB5_16FlamegraphParser3newpEBb_
FN:90,_RNCNCNvMNtNtNtCs34FkZ5Aug64_15gungraun_runner6runner9callgrind17flamegraph_parserNtB6_13FlamegraphMap15to_stack_format00Bc_
FN:47,_RNCNvMNtNtNtCs34FkZ5Aug64_15gungraun_runner6runner9callgrind17flamegraph_parserNtB4_13FlamegraphMap12make_summary0Ba_
FN:83,_RNCNvMNtNtNtCs34FkZ5Aug64_15gungraun_runner6runner9callgrind17flamegraph_parserNtB4_13FlamegraphMap15to_stack_format0Ba_
FN:99,_RNCNvMNtNtNtCs34FkZ5Aug64_15gungraun_runner6runner9callgrind17flamegraph_parserNtB4_13FlamegraphMap15to_stack_formats_0Ba_
FN:200,_RNCNvXs0_NtNtNtCs34FkZ5Aug64_15gungraun_runner6runner9callgrind17flamegraph_parserNtB7_16FlamegraphParserNtNtB9_6parser15CallgrindParser12parse_single0Bd_
FN:209,_RNCNvXs1_NtNtNtCs34FkZ5Aug64_15gungraun_runner6runner9callgrind17flamegraph_parserNtB7_8HeapElemNtNtCsgEmfK2I1SDS_4core3cmp3Ord3cmp0Bd_
FN:38,_RNvMNtNtNtCs34FkZ5Aug64_15gungraun_runner6runner9callgrind17flamegraph_parserNtB2_13FlamegraphMap12make_summary
FN:73,_RNvMNtNtNtCs34FkZ5Aug64_15gungraun_runner6runner9callgrind17flamegraph_parserNtB2_13FlamegraphMap15to_stack_format
FN:56,_RNvMNtNtNtCs34FkZ5Aug64_15gungraun_runner6runner9callgrind17flamegraph_parserNtB2_13FlamegraphMap3add
FN:33,_RNvMNtNtNtCs34FkZ5Aug64_15gungraun_runner6runner9callgrind17flamegraph_parserNtB2_13FlamegraphMap8is_empty
FN:190,_RNvXs0_NtNtNtCs34FkZ5Aug64_15gungraun_runner6runner9callgrind17flamegraph_parserNtB5_16FlamegraphParserNtNtB7_6parser15CallgrindParser12parse_single
FN:205,_RNvXs1_NtNtNtCs34FkZ5Aug64_15gungraun_runner6runner9callgrind17flamegraph_parserNtB5_8HeapElemNtNtCsgEmfK2I1SDS_4core3cmp3Ord3cmp
FN:214,_RNvXs2_NtNtNtCs34FkZ5Aug64_15gungraun_runner6runner9callgrind17flamegraph_parserNtB5_8HeapElemNtNtCsgEmfK2I1SDS_4core3cmp10PartialOrd11partial_cmp
FN:176,_RINvMs_NtNtNtCs5iQXrcGAeg9_15gungraun_runner6runner9callgrind17flamegraph_parserNtB5_16FlamegraphParser3newNtNtCsjrHSEGnQ3l9_3std4path7PathBufECs7pKWTov8ZUt_4main
FNDA:0,_RNvMNtNtNtCs5iQXrcGAeg9_15gungraun_runner6runner9callgrind17flamegraph_parserNtB2_13FlamegraphMap12make_summary
FNDA:2,_RNvMNtNtNtCs5iQXrcGAeg9_15gungraun_runner6runner9callgrind17flamegraph_parserNtB2_13FlamegraphMap15to_stack_format
FNDA:0,_RNvMNtNtNtCs5iQXrcGAeg9_15gungraun_runner6runner9callgrind17flamegraph_parserNtB2_13FlamegraphMap3add
FNDA:0,_RNvMNtNtNtCs5iQXrcGAeg9_15gungraun_runner6runner9callgrind17flamegraph_parserNtB2_13FlamegraphMap8is_empty
FNDA:2,_RNvXs0_NtNtNtCs5iQXrcGAeg9_15gungraun_runner6runner9callgrind17flamegraph_parserNtB5_16FlamegraphParserNtNtB7_6parser15CallgrindParser12parse_single
FNDA:6886,_RNvXs1_NtNtNtCs5iQXrcGAeg9_15gungraun_runner6runner9callgrind17flamegraph_parserNtB5_8HeapElemNtNtCsgEmfK2I1SDS_4core3cmp3Ord3cmp
FNDA:6886,_RNvXs2_NtNtNtCs5iQXrcGAeg9_15gungraun_runner6runner9callgrind17flamegraph_parserNtB5_8HeapElemNtNtCsgEmfK2I1SDS_4core3cmp10PartialOrd11partial_cmp
FNDA:0,_RINvMs_NtNtNtCs5iQXrcGAeg9_15gungraun_runner6runner9callgrind17flamegraph_parserNtB5_16FlamegraphParser3newRNtNtCsjrHSEGnQ3l9_3std4path4PathEBb_
FNDA:0,_RNCNCNvMNtNtNtCs5iQXrcGAeg9_15gungraun_runner6runner9callgrind17flamegraph_parserNtB6_13FlamegraphMap15to_stack_format00Bc_
FNDA:0,_RNCNvMNtNtNtCs5iQXrcGAeg9_15gungraun_runner6runner9callgrind17flamegraph_parserNtB4_13FlamegraphMap12make_summary0Ba_
FNDA:1,_RNCNvMNtNtNtCs5iQXrcGAeg9_15gungraun_runner6runner9callgrind17flamegraph_parserNtB4_13FlamegraphMap15to_stack_format0Ba_
FNDA:0,_RNCNvMNtNtNtCs5iQXrcGAeg9_15gungraun_runner6runner9callgrind17flamegraph_parserNtB4_13FlamegraphMap15to_stack_formats_0Ba_
FNDA:2,_RNCNvXs0_NtNtNtCs5iQXrcGAeg9_15gungraun_runner6runner9callgrind17flamegraph_parserNtB7_16FlamegraphParserNtNtB9_6parser15CallgrindParser12parse_single0Bd_
FNDA:535,_RNCNvXs1_NtNtNtCs5iQXrcGAeg9_15gungraun_runner6runner9callgrind17flamegraph_parserNtB7_8HeapElemNtNtCsgEmfK2I1SDS_4core3cmp3Ord3cmp0Bd_
FNDA:0,_RINvMs_NtNtNtCs34FkZ5Aug64_15gungraun_runner6runner9callgrind17flamegraph_parserNtB5_16FlamegraphParser3newpEBb_
FNDA:0,_RNCNCNvMNtNtNtCs34FkZ5Aug64_15gungraun_runner6runner9callgrind17flamegraph_parserNtB6_13FlamegraphMap15to_stack_format00Bc_
FNDA:0,_RNCNvMNtNtNtCs34FkZ5Aug64_15gungraun_runner6runner9callgrind17flamegraph_parserNtB4_13FlamegraphMap12make_summary0Ba_
FNDA:0,_RNCNvMNtNtNtCs34FkZ5Aug64_15gungraun_runner6runner9callgrind17flamegraph_parserNtB4_13FlamegraphMap15to_stack_format0Ba_
FNDA:0,_RNCNvMNtNtNtCs34FkZ5Aug64_15gungraun_runner6runner9callgrind17flamegraph_parserNtB4_13FlamegraphMap15to_stack_formats_0Ba_
FNDA:0,_RNCNvXs0_NtNtNtCs34FkZ5Aug64_15gungraun_runner6runner9callgrind17flamegraph_parserNtB7_16FlamegraphParserNtNtB9_6parser15CallgrindParser12parse_single0Bd_
FNDA:0,_RNCNvXs1_NtNtNtCs34FkZ5Aug64_15gungraun_runner6runner9callgrind17flamegraph_parserNtB7_8HeapElemNtNtCsgEmfK2I1SDS_4core3cmp3Ord3cmp0Bd_
FNDA:0,_RNvMNtNtNtCs34FkZ5Aug64_15gungraun_runner6runner9callgrind17flamegraph_parserNtB2_13FlamegraphMap12make_summary
FNDA:0,_RNvMNtNtNtCs34FkZ5Aug64_15gungraun_runner6runner9callgrind17flamegraph_parserNtB2_13FlamegraphMap15to_stack_format
FNDA:0,_RNvMNtNtNtCs34FkZ5Aug64_15gungraun_runner6runner9callgrind17flamegraph_parserNtB2_13FlamegraphMap3add
FNDA:0,_RNvMNtNtNtCs34FkZ5Aug64_15gungraun_runner6runner9callgrind17flamegraph_parserNtB2_13FlamegraphMap8is_empty
FNDA:0,_RNvXs0_NtNtNtCs34FkZ5Aug64_15gungraun_runner6runner9callgrind17flamegraph_parserNtB5_16FlamegraphParserNtNtB7_6parser15CallgrindParser12parse_single
FNDA:0,_RNvXs1_NtNtNtCs34FkZ5Aug64_15gungraun_runner6runner9callgrind17flamegraph_parserNtB5_8HeapElemNtNtCsgEmfK2I1SDS_4core3cmp3Ord3cmp
FNDA:0,_RNvXs2_NtNtNtCs34FkZ5Aug64_15gungraun_runner6runner9callgrind17flamegraph_parserNtB5_8HeapElemNtNtCsgEmfK2I1SDS_4core3cmp10PartialOrd11partial_cmp
FNDA:2,_RINvMs_NtNtNtCs5iQXrcGAeg9_15gungraun_runner6runner9callgrind17flamegraph_parserNtB5_16FlamegraphParser3newNtNtCsjrHSEGnQ3l9_3std4path7PathBufECs7pKWTov8ZUt_4main
FNF:14
FNH:8
DA:33,0
DA:34,0
DA:35,0
DA:38,0
DA:39,0
DA:40,0
DA:42,0
DA:43,0
DA:44,0
DA:45,0
DA:46,0
DA:47,0
DA:49,0
DA:50,0
DA:52,0
DA:53,0
DA:56,0
DA:57,0
DA:60,0
DA:61,0
DA:62,0
DA:63,0
DA:64,0
DA:66,0
DA:73,2
DA:74,2
DA:75,0
DA:76,2
DA:78,2
DA:79,2
DA:80,2
DA:81,2
DA:82,2
DA:83,2
DA:84,1
DA:85,1
DA:86,1
DA:87,1
DA:88,1
DA:89,1
DA:90,1
DA:91,0
DA:94,0
DA:95,1
DA:96,2
DA:98,500
DA:99,500
DA:100,0
DA:101,0
DA:103,500
DA:104,115
DA:105,0
DA:106,115
DA:107,385
DA:109,500
DA:110,500
DA:111,500
DA:112,333
DA:113,160
DA:114,0
DA:115,167
DA:116,167
DA:117,167
DA:119,0
DA:120,0
DA:121,0
DA:123,500
DA:124,500
DA:125,12
DA:126,0
DA:127,179
DA:128,488
DA:129,488
DA:130,488
DA:132,0
DA:134,500
DA:137,2
DA:138,2
DA:139,2
DA:140,498
DA:142,498
DA:143,498
DA:145,496
DA:146,496
DA:148,2
DA:151,498
DA:154,498
DA:155,2
DA:156,2
DA:157,2
DA:158,2
DA:159,2
DA:160,2
DA:161,2
DA:162,496
DA:163,0
DA:165,0
DA:166,0
DA:167,0
DA:168,0
DA:169,0
DA:170,2
DA:171,2
DA:176,2
DA:177,2
DA:178,2
DA:180,2
DA:181,2
DA:182,2
DA:183,2
DA:184,2
DA:190,2
DA:191,2
DA:193,2
DA:194,2
DA:195,2
DA:196,2
DA:198,2
DA:199,2
DA:200,2
DA:201,2
DA:205,6886
DA:206,6886
DA:207,6886
DA:208,6886
DA:209,6886
DA:210,6886
DA:214,6886
DA:215,6886
DA:216,6886
BRF:0
BRH:0
LF:137
LH:91
end_of_record
SF:/fast/lenny/workspace/programming/gungraun/gungraun/gungraun-runner/src/runner/callgrind/hashmap_parser.rs
FN:99,_RNvMNtNtNtCs5iQXrcGAeg9_15gungraun_runner6runner9callgrind14hashmap_parserNtB2_12CallgrindMap13get_key_value
FN:94,_RNvMNtNtNtCs5iQXrcGAeg9_15gungraun_runner6runner9callgrind14hashmap_parserNtB2_12CallgrindMap4iter
FN:104,_RNvMNtNtNtCs5iQXrcGAeg9_15gungraun_runner6runner9callgrind14hashmap_parserNtB2_12CallgrindMap7add_mut
FN:89,_RNvMNtNtNtCs5iQXrcGAeg9_15gungraun_runner6runner9callgrind14hashmap_parserNtB2_12CallgrindMap8is_empty
FN:309,_RNvNtNtNtCs5iQXrcGAeg9_15gungraun_runner6runner9callgrind14hashmap_parser9make_path
FN:126,_RNvXs0_NtNtNtCs5iQXrcGAeg9_15gungraun_runner6runner9callgrind14hashmap_parserNtB5_9CurrentIdINtNtCsgEmfK2I1SDS_4core7convert4FromNtB5_2IdE4from
FN:139,_RNvXs1_NtNtNtCs5iQXrcGAeg9_15gungraun_runner6runner9callgrind14hashmap_parserNtB5_13HashMapParserNtNtB7_6parser15CallgrindParser12parse_single
FN:278,_RNvXs2_NtNtNtCs5iQXrcGAeg9_15gungraun_runner6runner9callgrind14hashmap_parserNtB5_2IdINtNtCsgEmfK2I1SDS_4core7convert7TryFromNtB5_9CurrentIdE8try_from
FN:290,_RNvXs3_NtNtNtCs5iQXrcGAeg9_15gungraun_runner6runner9callgrind14hashmap_parserNtB5_10SourcePathNtNtCsgEmfK2I1SDS_4core3cmp3Ord3cmp
FN:304,_RNvXs4_NtNtNtCs5iQXrcGAeg9_15gungraun_runner6runner9callgrind14hashmap_parserNtB5_10SourcePathNtNtCsgEmfK2I1SDS_4core3cmp10PartialOrd11partial_cmp
FN:120,_RNvXs_NtNtNtCs5iQXrcGAeg9_15gungraun_runner6runner9callgrind14hashmap_parserRNtB4_12CallgrindMapNtNtNtNtCsgEmfK2I1SDS_4core4iter6traits7collect12IntoIterator9into_iter
FN:144,_RNCNvXs1_NtNtNtCs5iQXrcGAeg9_15gungraun_runner6runner9callgrind14hashmap_parserNtB7_13HashMapParserNtNtB9_6parser15CallgrindParser12parse_single0Bd_
FN:211,_RNCNvXs1_NtNtNtCs5iQXrcGAeg9_15gungraun_runner6runner9callgrind14hashmap_parserNtB7_13HashMapParserNtNtB9_6parser15CallgrindParser12parse_singles0_0Bd_
FN:213,_RNCNvXs1_NtNtNtCs5iQXrcGAeg9_15gungraun_runner6runner9callgrind14hashmap_parserNtB7_13HashMapParserNtNtB9_6parser15CallgrindParser12parse_singles1_0Bd_
FN:221,_RNCNvXs1_NtNtNtCs5iQXrcGAeg9_15gungraun_runner6runner9callgrind14hashmap_parserNtB7_13HashMapParserNtNtB9_6parser15CallgrindParser12parse_singles2_0Bd_
FN:224,_RNCNvXs1_NtNtNtCs5iQXrcGAeg9_15gungraun_runner6runner9callgrind14hashmap_parserNtB7_13HashMapParserNtNtB9_6parser15CallgrindParser12parse_singles3_0Bd_
FN:234,_RNCNvXs1_NtNtNtCs5iQXrcGAeg9_15gungraun_runner6runner9callgrind14hashmap_parserNtB7_13HashMapParserNtNtB9_6parser15CallgrindParser12parse_singles4_0Bd_
FN:191,_RNCNvXs1_NtNtNtCs5iQXrcGAeg9_15gungraun_runner6runner9callgrind14hashmap_parserNtB7_13HashMapParserNtNtB9_6parser15CallgrindParser12parse_singles_0Bd_
FN:144,_RNCNvXs1_NtNtNtCs34FkZ5Aug64_15gungraun_runner6runner9callgrind14hashmap_parserNtB7_13HashMapParserNtNtB9_6parser15CallgrindParser12parse_single0Bd_
FN:211,_RNCNvXs1_NtNtNtCs34FkZ5Aug64_15gungraun_runner6runner9callgrind14hashmap_parserNtB7_13HashMapParserNtNtB9_6parser15CallgrindParser12parse_singles0_0Bd_
FN:213,_RNCNvXs1_NtNtNtCs34FkZ5Aug64_15gungraun_runner6runner9callgrind14hashmap_parserNtB7_13HashMapParserNtNtB9_6parser15CallgrindParser12parse_singles1_0Bd_
FN:221,_RNCNvXs1_NtNtNtCs34FkZ5Aug64_15gungraun_runner6runner9callgrind14hashmap_parserNtB7_13HashMapParserNtNtB9_6parser15CallgrindParser12parse_singles2_0Bd_
FN:224,_RNCNvXs1_NtNtNtCs34FkZ5Aug64_15gungraun_runner6runner9callgrind14hashmap_parserNtB7_13HashMapParserNtNtB9_6parser15CallgrindParser12parse_singles3_0Bd_
FN:234,_RNCNvXs1_NtNtNtCs34FkZ5Aug64_15gungraun_runner6runner9callgrind14hashmap_parserNtB7_13HashMapParserNtNtB9_6parser15CallgrindParser12parse_singles4_0Bd_
FN:191,_RNCNvXs1_NtNtNtCs34FkZ5Aug64_15gungraun_runner6runner9callgrind14hashmap_parserNtB7_13HashMapParserNtNtB9_6parser15CallgrindParser12parse_singles_0Bd_
FN:99,_RNvMNtNtNtCs34FkZ5Aug64_15gungraun_runner6runner9callgrind14hashmap_parserNtB2_12CallgrindMap13get_key_value
FN:94,_RNvMNtNtNtCs34FkZ5Aug64_15gungraun_runner6runner9callgrind14hashmap_parserNtB2_12CallgrindMap4iter
FN:104,_RNvMNtNtNtCs34FkZ5Aug64_15gungraun_runner6runner9callgrind14hashmap_parserNtB2_12CallgrindMap7add_mut
FN:89,_RNvMNtNtNtCs34FkZ5Aug64_15gungraun_runner6runner9callgrind14hashmap_parserNtB2_12CallgrindMap8is_empty
FN:309,_RNvNtNtNtCs34FkZ5Aug64_15gungraun_runner6runner9callgrind14hashmap_parser9make_path
FN:126,_RNvXs0_NtNtNtCs34FkZ5Aug64_15gungraun_runner6runner9callgrind14hashmap_parserNtB5_9CurrentIdINtNtCsgEmfK2I1SDS_4core7convert4FromNtB5_2IdE4from
FN:139,_RNvXs1_NtNtNtCs34FkZ5Aug64_15gungraun_runner6runner9callgrind14hashmap_parserNtB5_13HashMapParserNtNtB7_6parser15CallgrindParser12parse_single
FN:278,_RNvXs2_NtNtNtCs34FkZ5Aug64_15gungraun_runner6runner9callgrind14hashmap_parserNtB5_2IdINtNtCsgEmfK2I1SDS_4core7convert7TryFromNtB5_9CurrentIdE8try_from
FN:290,_RNvXs3_NtNtNtCs34FkZ5Aug64_15gungraun_runner6runner9callgrind14hashmap_parserNtB5_10SourcePathNtNtCsgEmfK2I1SDS_4core3cmp3Ord3cmp
FN:304,_RNvXs4_NtNtNtCs34FkZ5Aug64_15gungraun_runner6runner9callgrind14hashmap_parserNtB5_10SourcePathNtNtCsgEmfK2I1SDS_4core3cmp10PartialOrd11partial_cmp
FN:120,_RNvXs_NtNtNtCs34FkZ5Aug64_15gungraun_runner6runner9callgrind14hashmap_parserRNtB4_12CallgrindMapNtNtNtNtCsgEmfK2I1SDS_4core4iter6traits7collect12IntoIterator9into_iter
FNDA:0,_RNvMNtNtNtCs5iQXrcGAeg9_15gungraun_runner6runner9callgrind14hashmap_parserNtB2_12CallgrindMap13get_key_value
FNDA:0,_RNvMNtNtNtCs5iQXrcGAeg9_15gungraun_runner6runner9callgrind14hashmap_parserNtB2_12CallgrindMap4iter
FNDA:0,_RNvMNtNtNtCs5iQXrcGAeg9_15gungraun_runner6runner9callgrind14hashmap_parserNtB2_12CallgrindMap7add_mut
FNDA:0,_RNvMNtNtNtCs5iQXrcGAeg9_15gungraun_runner6runner9callgrind14hashmap_parserNtB2_12CallgrindMap8is_empty
FNDA:685,_RNvNtNtNtCs5iQXrcGAeg9_15gungraun_runner6runner9callgrind14hashmap_parser9make_path
FNDA:2000,_RNvXs0_NtNtNtCs5iQXrcGAeg9_15gungraun_runner6runner9callgrind14hashmap_parserNtB5_9CurrentIdINtNtCsgEmfK2I1SDS_4core7convert4FromNtB5_2IdE4from
FNDA:7,_RNvXs1_NtNtNtCs5iQXrcGAeg9_15gungraun_runner6runner9callgrind14hashmap_parserNtB5_13HashMapParserNtNtB7_6parser15CallgrindParser12parse_single
FNDA:2001,_RNvXs2_NtNtNtCs5iQXrcGAeg9_15gungraun_runner6runner9callgrind14hashmap_parserNtB5_2IdINtNtCsgEmfK2I1SDS_4core7convert7TryFromNtB5_9CurrentIdE8try_from
FNDA:0,_RNvXs3_NtNtNtCs5iQXrcGAeg9_15gungraun_runner6runner9callgrind14hashmap_parserNtB5_10SourcePathNtNtCsgEmfK2I1SDS_4core3cmp3Ord3cmp
FNDA:0,_RNvXs4_NtNtNtCs5iQXrcGAeg9_15gungraun_runner6runner9callgrind14hashmap_parserNtB5_10SourcePathNtNtCsgEmfK2I1SDS_4core3cmp10PartialOrd11partial_cmp
FNDA:0,_RNvXs_NtNtNtCs5iQXrcGAeg9_15gungraun_runner6runner9callgrind14hashmap_parserRNtB4_12CallgrindMapNtNtNtNtCsgEmfK2I1SDS_4core4iter6traits7collect12IntoIterator9into_iter
FNDA:2,_RNCNvXs1_NtNtNtCs5iQXrcGAeg9_15gungraun_runner6runner9callgrind14hashmap_parserNtB7_13HashMapParserNtNtB9_6parser15CallgrindParser12parse_single0Bd_
FNDA:442,_RNCNvXs1_NtNtNtCs5iQXrcGAeg9_15gungraun_runner6runner9callgrind14hashmap_parserNtB7_13HashMapParserNtNtB9_6parser15CallgrindParser12parse_singles0_0Bd_
FNDA:404,_RNCNvXs1_NtNtNtCs5iQXrcGAeg9_15gungraun_runner6runner9callgrind14hashmap_parserNtB7_13HashMapParserNtNtB9_6parser15CallgrindParser12parse_singles1_0Bd_
FNDA:604,_RNCNvXs1_NtNtNtCs5iQXrcGAeg9_15gungraun_runner6runner9callgrind14hashmap_parserNtB7_13HashMapParserNtNtB9_6parser15CallgrindParser12parse_singles2_0Bd_
FNDA:2002,_RNCNvXs1_NtNtNtCs5iQXrcGAeg9_15gungraun_runner6runner9callgrind14hashmap_parserNtB7_13HashMapParserNtNtB9_6parser15CallgrindParser12parse_singles3_0Bd_
FNDA:233,_RNCNvXs1_NtNtNtCs5iQXrcGAeg9_15gungraun_runner6runner9callgrind14hashmap_parserNtB7_13HashMapParserNtNtB9_6parser15CallgrindParser12parse_singles4_0Bd_
FNDA:66,_RNCNvXs1_NtNtNtCs5iQXrcGAeg9_15gungraun_runner6runner9callgrind14hashmap_parserNtB7_13HashMapParserNtNtB9_6parser15CallgrindParser12parse_singles_0Bd_
FNDA:0,_RNCNvXs1_NtNtNtCs34FkZ5Aug64_15gungraun_runner6runner9callgrind14hashmap_parserNtB7_13HashMapParserNtNtB9_6parser15CallgrindParser12parse_single0Bd_
FNDA:0,_RNCNvXs1_NtNtNtCs34FkZ5Aug64_15gungraun_runner6runner9callgrind14hashmap_parserNtB7_13HashMapParserNtNtB9_6parser15CallgrindParser12parse_singles0_0Bd_
FNDA:0,_RNCNvXs1_NtNtNtCs34FkZ5Aug64_15gungraun_runner6runner9callgrind14hashmap_parserNtB7_13HashMapParserNtNtB9_6parser15CallgrindParser12parse_singles1_0Bd_
FNDA:0,_RNCNvXs1_NtNtNtCs34FkZ5Aug64_15gungraun_runner6runner9callgrind14hashmap_parserNtB7_13HashMapParserNtNtB9_6parser15CallgrindParser12parse_singles2_0Bd_
FNDA:0,_RNCNvXs1_NtNtNtCs34FkZ5Aug64_15gungraun_runner6runner9callgrind14hashmap_parserNtB7_13HashMapParserNtNtB9_6parser15CallgrindParser12parse_singles3_0Bd_
FNDA:0,_RNCNvXs1_NtNtNtCs34FkZ5Aug64_15gungraun_runner6runner9callgrind14hashmap_parserNtB7_13HashMapParserNtNtB9_6parser15CallgrindParser12parse_singles4_0Bd_
FNDA:0,_RNCNvXs1_NtNtNtCs34FkZ5Aug64_15gungraun_runner6runner9callgrind14hashmap_parserNtB7_13HashMapParserNtNtB9_6parser15CallgrindParser12parse_singles_0Bd_
FNDA:0,_RNvMNtNtNtCs34FkZ5Aug64_15gungraun_runner6runner9callgrind14hashmap_parserNtB2_12CallgrindMap13get_key_value
FNDA:0,_RNvMNtNtNtCs34FkZ5Aug64_15gungraun_runner6runner9callgrind14hashmap_parserNtB2_12CallgrindMap4iter
FNDA:0,_RNvMNtNtNtCs34FkZ5Aug64_15gungraun_runner6runner9callgrind14hashmap_parserNtB2_12CallgrindMap7add_mut
FNDA:0,_RNvMNtNtNtCs34FkZ5Aug64_15gungraun_runner6runner9callgrind14hashmap_parserNtB2_12CallgrindMap8is_empty
FNDA:0,_RNvNtNtNtCs34FkZ5Aug64_15gungraun_runner6runner9callgrind14hashmap_parser9make_path
FNDA:0,_RNvXs0_NtNtNtCs34FkZ5Aug64_15gungraun_runner6runner9callgrind14hashmap_parserNtB5_9CurrentIdINtNtCsgEmfK2I1SDS_4core7convert4FromNtB5_2IdE4from
FNDA:0,_RNvXs1_NtNtNtCs34FkZ5Aug64_15gungraun_runner6runner9callgrind14hashmap_parserNtB5_13HashMapParserNtNtB7_6parser15CallgrindParser12parse_single
FNDA:0,_RNvXs2_NtNtNtCs34FkZ5Aug64_15gungraun_runner6runner9callgrind14hashmap_parserNtB5_2IdINtNtCsgEmfK2I1SDS_4core7convert7TryFromNtB5_9CurrentIdE8try_from
FNDA:0,_RNvXs3_NtNtNtCs34FkZ5Aug64_15gungraun_runner6runner9callgrind14hashmap_parserNtB5_10SourcePathNtNtCsgEmfK2I1SDS_4core3cmp3Ord3cmp
FNDA:0,_RNvXs4_NtNtNtCs34FkZ5Aug64_15gungraun_runner6runner9callgrind14hashmap_parserNtB5_10SourcePathNtNtCsgEmfK2I1SDS_4core3cmp10PartialOrd11partial_cmp
FNDA:0,_RNvXs_NtNtNtCs34FkZ5Aug64_15gungraun_runner6runner9callgrind14hashmap_parserRNtB4_12CallgrindMapNtNtNtNtCsgEmfK2I1SDS_4core4iter6traits7collect12IntoIterator9into_iter
FNF:18
FNH:11
DA:89,0
DA:90,0
DA:91,0
DA:94,0
DA:95,0
DA:96,0
DA:99,0
DA:100,0
DA:101,0
DA:104,0
DA:105,0
DA:106,0
DA:107,0
DA:108,0
DA:109,0
DA:110,0
DA:112,0
DA:120,0
DA:121,0
DA:122,0
DA:126,2000
DA:127,2000
DA:128,2000
DA:129,2000
DA:130,2000
DA:131,2000
DA:132,2000
DA:139,7
DA:140,7
DA:141,7
DA:142,7
DA:143,7
DA:144,7
DA:146,5
DA:147,5
DA:149,5
DA:150,5
DA:155,5
DA:158,5
DA:159,4652
DA:160,4652
DA:162,4652
DA:163,379
DA:164,4273
DA:167,4273
DA:168,7
DA:169,3
DA:170,3
DA:172,4
DA:175,4266
DA:178,2
DA:179,2267
DA:180,12
DA:181,12
DA:182,2255
DA:183,42
DA:184,42
DA:185,2213
DA:186,374
DA:188,374
DA:189,374
DA:190,374
DA:191,374
DA:193,1
DA:194,1
DA:195,373
DA:197,1839
DA:198,269
DA:199,269
DA:200,1570
DA:201,162
DA:202,162
DA:203,162
DA:204,1408
DA:205,200
DA:206,200
DA:207,200
DA:208,1208
DA:209,604
DA:210,604
DA:211,604
DA:212,604
DA:213,604
DA:216,604
DA:217,604
DA:218,604
DA:219,604
DA:220,604
DA:221,604
DA:222,604
DA:224,2002
DA:225,2000
DA:226,2000
DA:227,2000
DA:228,2000
DA:229,0
DA:231,2000
DA:232,604
DA:233,604
DA:234,604
DA:235,604
DA:236,604
DA:237,604
DA:238,1396
DA:240,2000
DA:241,2000
DA:242,1500
DA:243,500
DA:244,500
DA:245,500
DA:247,2000
DA:249,0
DA:250,0
DA:251,0
DA:252,2
DA:253,2
DA:254,2
DA:255,0
DA:260,371
DA:261,371
DA:262,371
DA:264,5
DA:265,5
DA:266,5
DA:267,5
DA:268,5
DA:269,5
DA:270,5
DA:271,5
DA:272,7
DA:278,2001
DA:279,2001
DA:280,2001
DA:281,2001
DA:282,2001
DA:283,2001
DA:284,2001
DA:285,0
DA:287,2001
DA:290,0
DA:291,0
DA:292,0
DA:293,0
DA:294,0
DA:296,0
DA:297,0
DA:298,0
DA:300,0
DA:304,0
DA:305,0
DA:306,0
DA:309,685
DA:310,685
DA:311,195
DA:313,490
DA:314,490
DA:315,0
DA:316,490
DA:317,478
DA:318,478
DA:319,305
DA:320,305
DA:321,305
DA:322,305
DA:323,305
DA:325,173
DA:328,12
DA:331,685
BRF:0
BRH:0
LF:175
LH:136
end_of_record
SF:/fast/lenny/workspace/programming/gungraun/gungraun/gungraun-runner/src/runner/callgrind/mod.rs
FN:84,_RNvMs_NtNtCs5iQXrcGAeg9_15gungraun_runner6runner9callgrindNtB4_15CyclesEstimator3new
FN:110,_RNvMs_NtNtCs5iQXrcGAeg9_15gungraun_runner6runner9callgrindNtB4_15CyclesEstimator9calculate
FN:64,_RNvXNtNtCs5iQXrcGAeg9_15gungraun_runner6runner9callgrindNtB2_12CacheSummaryINtNtCsgEmfK2I1SDS_4core7convert7TryFromRINtNtB4_7metrics7MetricsNtNtB6_3api9EventKindEE8try_from
FN:84,_RNvMs_NtNtCs34FkZ5Aug64_15gungraun_runner6runner9callgrindNtB4_15CyclesEstimator3new
FN:110,_RNvMs_NtNtCs34FkZ5Aug64_15gungraun_runner6runner9callgrindNtB4_15CyclesEstimator9calculate
FN:64,_RNvXNtNtCs34FkZ5Aug64_15gungraun_runner6runner9callgrindNtB2_12CacheSummaryINtNtCsgEmfK2I1SDS_4core7convert7TryFromRINtNtB4_7metrics7MetricsNtNtB6_3api9EventKindEE8try_from
FNDA:0,_RNvMs_NtNtCs5iQXrcGAeg9_15gungraun_runner6runner9callgrindNtB4_15CyclesEstimator3new
FNDA:0,_RNvMs_NtNtCs5iQXrcGAeg9_15gungraun_runner6runner9callgrindNtB4_15CyclesEstimator9calculate
FNDA:0,_RNvXNtNtCs5iQXrcGAeg9_15gungraun_runner6runner9callgrindNtB2_12CacheSummaryINtNtCsgEmfK2I1SDS_4core7convert7TryFromRINtNtB4_7metrics7MetricsNtNtB6_3api9EventKindEE8try_from
FNDA:31,_RNvMs_NtNtCs34FkZ5Aug64_15gungraun_runner6runner9callgrindNtB4_15CyclesEstimator3new
FNDA:31,_RNvMs_NtNtCs34FkZ5Aug64_15gungraun_runner6runner9callgrindNtB4_15CyclesEstimator9calculate
FNDA:73,_RNvXNtNtCs34FkZ5Aug64_15gungraun_runner6runner9callgrindNtB2_12CacheSummaryINtNtCsgEmfK2I1SDS_4core7convert7TryFromRINtNtB4_7metrics7MetricsNtNtB6_3api9EventKindEE8try_from
FNF:3
FNH:3
DA:64,73
DA:66,26
DA:67,73
DA:68,73
DA:69,26
DA:70,26
DA:71,26
DA:72,26
DA:73,26
DA:74,26
DA:75,26
DA:78,26
DA:79,73
DA:84,31
DA:85,31
DA:86,31
DA:87,31
DA:88,31
DA:89,31
DA:90,31
DA:91,31
DA:92,31
DA:93,31
DA:94,31
DA:95,31
DA:96,31
DA:97,31
DA:98,31
DA:99,31
DA:100,31
DA:101,31
DA:102,31
DA:103,31
DA:104,31
DA:105,31
DA:106,31
DA:110,31
DA:111,31
DA:112,31
DA:113,31
DA:114,31
DA:115,31
DA:116,31
DA:117,31
DA:119,31
DA:121,31
DA:122,31
DA:126,31
DA:128,31
DA:129,31
DA:130,31
DA:132,31
DA:133,31
DA:134,31
DA:135,31
DA:136,31
DA:137,31
DA:138,31
DA:139,31
DA:141,31
DA:143,31
DA:144,31
DA:146,31
DA:148,31
DA:149,31
DA:150,31
DA:151,31
DA:152,31
DA:153,31
DA:154,31
DA:155,31
DA:156,31
DA:157,31
DA:158,31
DA:159,31
DA:160,31
DA:161,31
DA:162,31
DA:163,31
BRF:0
BRH:0
LF:79
LH:79
end_of_record
SF:/fast/lenny/workspace/programming/gungraun/gungraun/gungraun-runner/src/runner/callgrind/model.rs
FN:141,_RINvMs3_NtNtNtCs5iQXrcGAeg9_15gungraun_runner6runner9callgrind5modelNtB6_9Positions17try_from_iter_strNtNtNtCsgEmfK2I1SDS_4core3str4iter20SplitAsciiWhitespaceEBc_
FN:145,_RNCINvMs3_NtNtNtCs5iQXrcGAeg9_15gungraun_runner6runner9callgrind5modelNtB8_9Positions17try_from_iter_strNtNtNtCsgEmfK2I1SDS_4core3str4iter20SplitAsciiWhitespaceE0Be_
FN:145,_RNCNCINvMs3_NtNtNtCs5iQXrcGAeg9_15gungraun_runner6runner9callgrind5modelNtBa_9Positions17try_from_iter_strNtNtNtCsgEmfK2I1SDS_4core3str4iter20SplitAsciiWhitespaceE00Bg_
FN:42,_RINvMNtNtNtCs5iQXrcGAeg9_15gungraun_runner6runner9callgrind5modelNtB3_5Calls4fromppEB9_
FN:151,_RINvMs3_NtNtNtCs5iQXrcGAeg9_15gungraun_runner6runner9callgrind5modelNtB6_9Positions12set_iter_strppEBc_
FN:70,_RNvMs0_NtNtNtCs5iQXrcGAeg9_15gungraun_runner6runner9callgrind5modelINtNtB9_7metrics7MetricsNtNtBb_3api9EventKindE12make_summary
FN:115,_RNvMs0_NtNtNtCs5iQXrcGAeg9_15gungraun_runner6runner9callgrind5modelINtNtB9_7metrics7MetricsNtNtBb_3api9EventKindE13can_summarize
FN:107,_RNvMs0_NtNtNtCs5iQXrcGAeg9_15gungraun_runner6runner9callgrind5modelINtNtB9_7metrics7MetricsNtNtBb_3api9EventKindE13is_summarized
FN:121,_RNvXs1_NtNtNtCs5iQXrcGAeg9_15gungraun_runner6runner9callgrind5modelINtNtB9_7metrics7MetricsNtNtBb_3api9EventKindENtNtCsgEmfK2I1SDS_4core7default7Default7default
FN:54,_RNvXs_NtNtNtCs5iQXrcGAeg9_15gungraun_runner6runner9callgrind5modelNtNtBa_3api9EventKindNtNtB8_7metrics9Summarize9summarize
FN:167,_RNvMs3_NtNtNtCs5iQXrcGAeg9_15gungraun_runner6runner9callgrind5modelNtB5_9Positions3len
FN:172,_RNvMs3_NtNtNtCs5iQXrcGAeg9_15gungraun_runner6runner9callgrind5modelNtB5_9Positions8is_empty
FN:129,_RNvXs2_NtNtNtCs5iQXrcGAeg9_15gungraun_runner6runner9callgrind5modelNtB5_12PositionTypeNtNtNtCsgEmfK2I1SDS_4core3str6traits7FromStr8from_str
FN:178,_RNvXs4_NtNtNtCs5iQXrcGAeg9_15gungraun_runner6runner9callgrind5modelNtB5_9PositionsNtNtCsgEmfK2I1SDS_4core7default7Default7default
FN:42,_RINvMNtNtNtCs34FkZ5Aug64_15gungraun_runner6runner9callgrind5modelNtB3_5Calls4fromppEB9_
FN:151,_RINvMs3_NtNtNtCs34FkZ5Aug64_15gungraun_runner6runner9callgrind5modelNtB6_9Positions12set_iter_strppEBc_
FN:141,_RINvMs3_NtNtNtCs34FkZ5Aug64_15gungraun_runner6runner9callgrind5modelNtB6_9Positions17try_from_iter_strpEBc_
FN:145,_RNCINvMs3_NtNtNtCs34FkZ5Aug64_15gungraun_runner6runner9callgrind5modelNtB8_9Positions17try_from_iter_strpE0Be_
FN:145,_RNCNCINvMs3_NtNtNtCs34FkZ5Aug64_15gungraun_runner6runner9callgrind5modelNtBa_9Positions17try_from_iter_strpE00Bg_
FN:115,_RNvMs0_NtNtNtCs34FkZ5Aug64_15gungraun_runner6runner9callgrind5modelINtNtB9_7metrics7MetricsNtNtBb_3api9EventKindE13can_summarize
FN:167,_RNvMs3_NtNtNtCs34FkZ5Aug64_15gungraun_runner6runner9callgrind5modelNtB5_9Positions3len
FN:172,_RNvMs3_NtNtNtCs34FkZ5Aug64_15gungraun_runner6runner9callgrind5modelNtB5_9Positions8is_empty
FN:121,_RNvXs1_NtNtNtCs34FkZ5Aug64_15gungraun_runner6runner9callgrind5modelINtNtB9_7metrics7MetricsNtNtBb_3api9EventKindENtNtCsgEmfK2I1SDS_4core7default7Default7default
FN:129,_RNvXs2_NtNtNtCs34FkZ5Aug64_15gungraun_runner6runner9callgrind5modelNtB5_12PositionTypeNtNtNtCsgEmfK2I1SDS_4core3str6traits7FromStr8from_str
FN:178,_RNvXs4_NtNtNtCs34FkZ5Aug64_15gungraun_runner6runner9callgrind5modelNtB5_9PositionsNtNtCsgEmfK2I1SDS_4core7default7Default7default
FN:70,_RNvMs0_NtNtNtCs34FkZ5Aug64_15gungraun_runner6runner9callgrind5modelINtNtB9_7metrics7MetricsNtNtBb_3api9EventKindE12make_summary
FN:107,_RNvMs0_NtNtNtCs34FkZ5Aug64_15gungraun_runner6runner9callgrind5modelINtNtB9_7metrics7MetricsNtNtBb_3api9EventKindE13is_summarized
FN:190,_RNvNtNtNtNtCs34FkZ5Aug64_15gungraun_runner6runner9callgrind5model5testss_40test_metrics_make_summary_when_cache_sim
FN:54,_RNvXs_NtNtNtCs34FkZ5Aug64_15gungraun_runner6runner9callgrind5modelNtNtBa_3api9EventKindNtNtB8_7metrics9Summarize9summarize
FNDA:11,_RINvMs3_NtNtNtCs5iQXrcGAeg9_15gungraun_runner6runner9callgrind5modelNtB6_9Positions17try_from_iter_strNtNtNtCsgEmfK2I1SDS_4core3str4iter20SplitAsciiWhitespaceEBc_
FNDA:11,_RNCINvMs3_NtNtNtCs5iQXrcGAeg9_15gungraun_runner6runner9callgrind5modelNtB8_9Positions17try_from_iter_strNtNtNtCsgEmfK2I1SDS_4core3str4iter20SplitAsciiWhitespaceE0Be_
FNDA:11,_RNCNCINvMs3_NtNtNtCs5iQXrcGAeg9_15gungraun_runner6runner9callgrind5modelNtBa_9Positions17try_from_iter_strNtNtNtCsgEmfK2I1SDS_4core3str4iter20SplitAsciiWhitespaceE00Bg_
FNDA:0,_RINvMNtNtNtCs5iQXrcGAeg9_15gungraun_runner6runner9callgrind5modelNtB3_5Calls4fromppEB9_
FNDA:0,_RINvMs3_NtNtNtCs5iQXrcGAeg9_15gungraun_runner6runner9callgrind5modelNtB6_9Positions12set_iter_strppEBc_
FNDA:0,_RNvMs0_NtNtNtCs5iQXrcGAeg9_15gungraun_runner6runner9callgrind5modelINtNtB9_7metrics7MetricsNtNtBb_3api9EventKindE12make_summary
FNDA:0,_RNvMs0_NtNtNtCs5iQXrcGAeg9_15gungraun_runner6runner9callgrind5modelINtNtB9_7metrics7MetricsNtNtBb_3api9EventKindE13can_summarize
FNDA:0,_RNvMs0_NtNtNtCs5iQXrcGAeg9_15gungraun_runner6runner9callgrind5modelINtNtB9_7metrics7MetricsNtNtBb_3api9EventKindE13is_summarized
FNDA:0,_RNvXs1_NtNtNtCs5iQXrcGAeg9_15gungraun_runner6runner9callgrind5modelINtNtB9_7metrics7MetricsNtNtBb_3api9EventKindENtNtCsgEmfK2I1SDS_4core7default7Default7default
FNDA:0,_RNvXs_NtNtNtCs5iQXrcGAeg9_15gungraun_runner6runner9callgrind5modelNtNtBa_3api9EventKindNtNtB8_7metrics9Summarize9summarize
FNDA:2000,_RNvMs3_NtNtNtCs5iQXrcGAeg9_15gungraun_runner6runner9callgrind5modelNtB5_9Positions3len
FNDA:0,_RNvMs3_NtNtNtCs5iQXrcGAeg9_15gungraun_runner6runner9callgrind5modelNtB5_9Positions8is_empty
FNDA:11,_RNvXs2_NtNtNtCs5iQXrcGAeg9_15gungraun_runner6runner9callgrind5modelNtB5_12PositionTypeNtNtNtCsgEmfK2I1SDS_4core3str6traits7FromStr8from_str
FNDA:0,_RNvXs4_NtNtNtCs5iQXrcGAeg9_15gungraun_runner6runner9callgrind5modelNtB5_9PositionsNtNtCsgEmfK2I1SDS_4core7default7Default7default
FNDA:0,_RINvMNtNtNtCs34FkZ5Aug64_15gungraun_runner6runner9callgrind5modelNtB3_5Calls4fromppEB9_
FNDA:0,_RINvMs3_NtNtNtCs34FkZ5Aug64_15gungraun_runner6runner9callgrind5modelNtB6_9Positions12set_iter_strppEBc_
FNDA:0,_RINvMs3_NtNtNtCs34FkZ5Aug64_15gungraun_runner6runner9callgrind5modelNtB6_9Positions17try_from_iter_strpEBc_
FNDA:0,_RNCINvMs3_NtNtNtCs34FkZ5Aug64_15gungraun_runner6runner9callgrind5modelNtB8_9Positions17try_from_iter_strpE0Be_
FNDA:0,_RNCNCINvMs3_NtNtNtCs34FkZ5Aug64_15gungraun_runner6runner9callgrind5modelNtBa_9Positions17try_from_iter_strpE00Bg_
FNDA:0,_RNvMs0_NtNtNtCs34FkZ5Aug64_15gungraun_runner6runner9callgrind5modelINtNtB9_7metrics7MetricsNtNtBb_3api9EventKindE13can_summarize
FNDA:0,_RNvMs3_NtNtNtCs34FkZ5Aug64_15gungraun_runner6runner9callgrind5modelNtB5_9Positions3len
FNDA:0,_RNvMs3_NtNtNtCs34FkZ5Aug64_15gungraun_runner6runner9callgrind5modelNtB5_9Positions8is_empty
FNDA:0,_RNvXs1_NtNtNtCs34FkZ5Aug64_15gungraun_runner6runner9callgrind5modelINtNtB9_7metrics7MetricsNtNtBb_3api9EventKindENtNtCsgEmfK2I1SDS_4core7default7Default7default
FNDA:0,_RNvXs2_NtNtNtCs34FkZ5Aug64_15gungraun_runner6runner9callgrind5modelNtB5_12PositionTypeNtNtNtCsgEmfK2I1SDS_4core3str6traits7FromStr8from_str
FNDA:0,_RNvXs4_NtNtNtCs34FkZ5Aug64_15gungraun_runner6runner9callgrind5modelNtB5_9PositionsNtNtCsgEmfK2I1SDS_4core7default7Default7default
FNDA:73,_RNvMs0_NtNtNtCs34FkZ5Aug64_15gungraun_runner6runner9callgrind5modelINtNtB9_7metrics7MetricsNtNtBb_3api9EventKindE12make_summary
FNDA:72,_RNvMs0_NtNtNtCs34FkZ5Aug64_15gungraun_runner6runner9callgrind5modelINtNtB9_7metrics7MetricsNtNtBb_3api9EventKindE13is_summarized
FNDA:1,_RNvNtNtNtNtCs34FkZ5Aug64_15gungraun_runner6runner9callgrind5model5testss_40test_metrics_make_summary_when_cache_sim
FNDA:72,_RNvXs_NtNtNtCs34FkZ5Aug64_15gungraun_runner6runner9callgrind5modelNtNtBa_3api9EventKindNtNtB8_7metrics9Summarize9summarize
FNF:15
FNH:9
DA:42,0
DA:43,0
DA:44,0
DA:45,0
DA:47,0
DA:48,0
DA:49,0
DA:50,0
DA:54,72
DA:55,72
DA:56,72
DA:57,72
DA:58,72
DA:70,73
DA:72,26
DA:73,26
DA:74,26
DA:75,26
DA:76,26
DA:77,26
DA:78,26
DA:79,26
DA:80,26
DA:81,26
DA:82,26
DA:83,26
DA:84,26
DA:85,73
DA:87,26
DA:88,26
DA:89,26
DA:90,26
DA:91,26
DA:92,26
DA:93,26
DA:94,26
DA:95,26
DA:96,26
DA:97,26
DA:98,26
DA:99,26
DA:101,26
DA:102,73
DA:107,72
DA:108,72
DA:109,72
DA:115,0
DA:116,0
DA:117,0
DA:121,0
DA:122,0
DA:123,0
DA:129,11
DA:131,11
DA:132,11
DA:133,11
DA:134,0
DA:136,11
DA:141,11
DA:142,11
DA:143,11
DA:145,11
DA:146,11
DA:147,11
DA:148,11
DA:151,0
DA:152,0
DA:153,0
DA:154,0
DA:156,0
DA:157,0
DA:158,0
DA:159,0
DA:161,0
DA:164,0
DA:167,2000
DA:168,2000
DA:169,2000
DA:172,0
DA:173,0
DA:174,0
DA:178,0
DA:179,0
DA:180,0
DA:190,1
DA:193,1
DA:194,1
DA:195,1
DA:196,1
DA:197,1
DA:198,1
DA:199,1
DA:200,1
DA:201,1
DA:202,1
DA:203,1
DA:204,1
DA:205,1
DA:206,1
DA:207,1
DA:208,1
DA:210,1
DA:211,1
DA:212,1
DA:213,1
DA:214,1
DA:215,1
DA:216,1
DA:217,1
DA:218,1
DA:219,1
DA:221,1
DA:222,1
DA:223,1
DA:224,1
DA:225,1
DA:226,1
DA:227,1
DA:228,1
DA:229,1
DA:230,1
DA:231,1
DA:233,1
DA:235,1
DA:236,1
BRF:0
BRH:0
LF:127
LH:96
end_of_record
SF:/fast/lenny/workspace/programming/gungraun/gungraun/gungraun-runner/src/runner/callgrind/parser.rs
FN:63,_RNCNvYNtNtNtNtCs5iQXrcGAeg9_15gungraun_runner6runner9callgrind14hashmap_parser13HashMapParserNtNtB8_6parser15CallgrindParser5parse0Csb039c427Ago_15benchmark_tests
FN:66,_RNCNvYNtNtNtNtCs5iQXrcGAeg9_15gungraun_runner6runner9callgrind14hashmap_parser13HashMapParserNtNtB8_6parser15CallgrindParser5parses_0Csb039c427Ago_15benchmark_tests
FN:85,_RNvMNtNtNtCs5iQXrcGAeg9_15gungraun_runner6runner9callgrind6parserNtB2_19CallgrindProperties18compare_target_ids
FN:151,_RNvMs0_NtNtNtCs5iQXrcGAeg9_15gungraun_runner6runner9callgrind6parserNtB5_8Sentinel7matches
FN:128,_RNvMs0_NtNtNtCs5iQXrcGAeg9_15gungraun_runner6runner9callgrind6parserNtB5_8Sentinel9from_path
FN:157,_RNvXs1_NtNtNtCs5iQXrcGAeg9_15gungraun_runner6runner9callgrind6parserNtB5_8SentinelINtNtCsgEmfK2I1SDS_4core7convert5AsRefB14_E6as_ref
FN:163,_RNvXs2_NtNtNtCs5iQXrcGAeg9_15gungraun_runner6runner9callgrind6parserNtB5_8SentinelNtNtCsgEmfK2I1SDS_4core7default7Default7default
FN:169,_RNvXs3_NtNtNtCs5iQXrcGAeg9_15gungraun_runner6runner9callgrind6parserNtB5_8SentinelNtNtCsgEmfK2I1SDS_4core3fmt7Display3fmt
FN:177,_RNvXs5_NtNtNtCs5iQXrcGAeg9_15gungraun_runner6runner9callgrind6parserNtB5_8SentinelNtNtCsgEmfK2I1SDS_4core3cmp9PartialEq2eq
FN:95,_RNvXs_NtNtNtCs5iQXrcGAeg9_15gungraun_runner6runner9callgrind6parserNtB4_19CallgrindPropertiesINtNtCsgEmfK2I1SDS_4core7convert4FromNtNtNtB8_4tool6parser12ParserOutputE4from
FN:133,_RINvMs0_NtNtNtCs5iQXrcGAeg9_15gungraun_runner6runner9callgrind6parserNtB6_8Sentinel13from_segmentsppEBc_
FN:139,_RNCINvMs0_NtNtNtCs5iQXrcGAeg9_15gungraun_runner6runner9callgrind6parserNtB8_8Sentinel13from_segmentsppE0Be_
FN:120,_RINvMs0_NtNtNtCs5iQXrcGAeg9_15gungraun_runner6runner9callgrind6parserNtB6_8Sentinel3newNtNtCslNYArtu3iFV_5alloc6string6StringEBc_
FN:120,_RINvMs0_NtNtNtCs5iQXrcGAeg9_15gungraun_runner6runner9callgrind6parserNtB6_8Sentinel3newReEBc_
FN:189,_RINvNtNtNtCs5iQXrcGAeg9_15gungraun_runner6runner9callgrind6parser12parse_headerINtNtNtNtCsgEmfK2I1SDS_4core4iter8adapters3map3MapINtNtCsjrHSEGnQ3l9_3std2io5LinesINtNtNtB26_8buffered9bufreader9BufReaderNtNtB28_2fs4FileEENvMNtB1o_6resultINtB3y_6ResultNtNtCslNYArtu3iFV_5alloc6string6StringNtNtB26_5error5ErrorE6unwrapEEB8_
FN:195,_RNCINvNtNtNtCs5iQXrcGAeg9_15gungraun_runner6runner9callgrind6parser12parse_headerINtNtNtNtCsgEmfK2I1SDS_4core4iter8adapters3map3MapINtNtCsjrHSEGnQ3l9_3std2io5LinesINtNtNtB28_8buffered9bufreader9BufReaderNtNtB2a_2fs4FileEENvMNtB1q_6resultINtB3A_6ResultNtNtCslNYArtu3iFV_5alloc6string6StringNtNtB28_5error5ErrorE6unwrapEE0Ba_
FN:211,_RNCINvNtNtNtCs5iQXrcGAeg9_15gungraun_runner6runner9callgrind6parser12parse_headerINtNtNtNtCsgEmfK2I1SDS_4core4iter8adapters3map3MapINtNtCsjrHSEGnQ3l9_3std2io5LinesINtNtNtB28_8buffered9bufreader9BufReaderNtNtB2a_2fs4FileEENvMNtB1q_6resultINtB3A_6ResultNtNtCslNYArtu3iFV_5alloc6string6StringNtNtB28_5error5ErrorE6unwrapEEs0_0Ba_
FN:215,_RNCINvNtNtNtCs5iQXrcGAeg9_15gungraun_runner6runner9callgrind6parser12parse_headerINtNtNtNtCsgEmfK2I1SDS_4core4iter8adapters3map3MapINtNtCsjrHSEGnQ3l9_3std2io5LinesINtNtNtB28_8buffered9bufreader9BufReaderNtNtB2a_2fs4FileEENvMNtB1q_6resultINtB3A_6ResultNtNtCslNYArtu3iFV_5alloc6string6StringNtNtB28_5error5ErrorE6unwrapEEs1_0Ba_
FN:272,_RNCINvNtNtNtCs5iQXrcGAeg9_15gungraun_runner6runner9callgrind6parser12parse_headerINtNtNtNtCsgEmfK2I1SDS_4core4iter8adapters3map3MapINtNtCsjrHSEGnQ3l9_3std2io5LinesINtNtNtB28_8buffered9bufreader9BufReaderNtNtB2a_2fs4FileEENvMNtB1q_6resultINtB3A_6ResultNtNtCslNYArtu3iFV_5alloc6string6StringNtNtB28_5error5ErrorE6unwrapEEs2_0Ba_
FN:196,_RNCINvNtNtNtCs5iQXrcGAeg9_15gungraun_runner6runner9callgrind6parser12parse_headerINtNtNtNtCsgEmfK2I1SDS_4core4iter8adapters3map3MapINtNtCsjrHSEGnQ3l9_3std2io5LinesINtNtNtB28_8buffered9bufreader9BufReaderNtNtB2a_2fs4FileEENvMNtB1q_6resultINtB3A_6ResultNtNtCslNYArtu3iFV_5alloc6string6StringNtNtB28_5error5ErrorE6unwrapEEs_0Ba_
FN:89,_RNCNCNvMNtNtNtCs5iQXrcGAeg9_15gungraun_runner6runner9callgrind6parserNtB6_19CallgrindProperties18compare_target_ids00Bc_
FN:86,_RNCNvMNtNtNtCs5iQXrcGAeg9_15gungraun_runner6runner9callgrind6parserNtB4_19CallgrindProperties18compare_target_ids0Ba_
FN:63,_RNCNvYNtNtNtNtCs5iQXrcGAeg9_15gungraun_runner6runner9callgrind17flamegraph_parser16FlamegraphParserNtNtB8_6parser15CallgrindParser5parse0Bc_
FN:66,_RNCNvYNtNtNtNtCs5iQXrcGAeg9_15gungraun_runner6runner9callgrind17flamegraph_parser16FlamegraphParserNtNtB8_6parser15CallgrindParser5parses_0Bc_
FN:183,_RNvXs6_NtNtNtCs5iQXrcGAeg9_15gungraun_runner6runner9callgrind6parserNtNtCslNYArtu3iFV_5alloc6string6StringINtNtCsgEmfK2I1SDS_4core7convert4FromNtB5_8SentinelE4from
FN:55,_RNvYNtNtNtNtCs5iQXrcGAeg9_15gungraun_runner6runner9callgrind17flamegraph_parser16FlamegraphParserNtNtB6_6parser15CallgrindParser5parseBa_
FN:133,_RINvMs0_NtNtNtCs34FkZ5Aug64_15gungraun_runner6runner9callgrind6parserNtB6_8Sentinel13from_segmentsppEBc_
FN:189,_RINvNtNtNtCs34FkZ5Aug64_15gungraun_runner6runner9callgrind6parser12parse_headerpEB8_
FN:139,_RNCINvMs0_NtNtNtCs34FkZ5Aug64_15gungraun_runner6runner9callgrind6parserNtB8_8Sentinel13from_segmentsppE0Be_
FN:195,_RNCINvNtNtNtCs34FkZ5Aug64_15gungraun_runner6runner9callgrind6parser12parse_headerpE0Ba_
FN:211,_RNCINvNtNtNtCs34FkZ5Aug64_15gungraun_runner6runner9callgrind6parser12parse_headerpEs0_0Ba_
FN:215,_RNCINvNtNtNtCs34FkZ5Aug64_15gungraun_runner6runner9callgrind6parser12parse_headerpEs1_0Ba_
FN:272,_RNCINvNtNtNtCs34FkZ5Aug64_15gungraun_runner6runner9callgrind6parser12parse_headerpEs2_0Ba_
FN:196,_RNCINvNtNtNtCs34FkZ5Aug64_15gungraun_runner6runner9callgrind6parser12parse_headerpEs_0Ba_
FN:89,_RNCNCNvMNtNtNtCs34FkZ5Aug64_15gungraun_runner6runner9callgrind6parserNtB6_19CallgrindProperties18compare_target_ids00Bc_
FN:86,_RNCNvMNtNtNtCs34FkZ5Aug64_15gungraun_runner6runner9callgrind6parserNtB4_19CallgrindProperties18compare_target_ids0Ba_
FN:63,_RNCNvYpNtNtNtNtCs34FkZ5Aug64_15gungraun_runner6runner9callgrind6parser15CallgrindParser5parse0Bd_
FN:66,_RNCNvYpNtNtNtNtCs34FkZ5Aug64_15gungraun_runner6runner9callgrind6parser15CallgrindParser5parses_0Bd_
FN:85,_RNvMNtNtNtCs34FkZ5Aug64_15gungraun_runner6runner9callgrind6parserNtB2_19CallgrindProperties18compare_target_ids
FN:128,_RNvMs0_NtNtNtCs34FkZ5Aug64_15gungraun_runner6runner9callgrind6parserNtB5_8Sentinel9from_path
FN:157,_RNvXs1_NtNtNtCs34FkZ5Aug64_15gungraun_runner6runner9callgrind6parserNtB5_8SentinelINtNtCsgEmfK2I1SDS_4core7convert5AsRefB14_E6as_ref
FN:163,_RNvXs2_NtNtNtCs34FkZ5Aug64_15gungraun_runner6runner9callgrind6parserNtB5_8SentinelNtNtCsgEmfK2I1SDS_4core7default7Default7default
FN:169,_RNvXs3_NtNtNtCs34FkZ5Aug64_15gungraun_runner6runner9callgrind6parserNtB5_8SentinelNtNtCsgEmfK2I1SDS_4core3fmt7Display3fmt
FN:177,_RNvXs5_NtNtNtCs34FkZ5Aug64_15gungraun_runner6runner9callgrind6parserNtB5_8SentinelNtNtCsgEmfK2I1SDS_4core3cmp9PartialEq2eq
FN:183,_RNvXs6_NtNtNtCs34FkZ5Aug64_15gungraun_runner6runner9callgrind6parserNtNtCslNYArtu3iFV_5alloc6string6StringINtNtCsgEmfK2I1SDS_4core7convert4FromNtB5_8SentinelE4from
FN:95,_RNvXs_NtNtNtCs34FkZ5Aug64_15gungraun_runner6runner9callgrind6parserNtB4_19CallgrindPropertiesINtNtCsgEmfK2I1SDS_4core7convert4FromNtNtNtB8_4tool6parser12ParserOutputE4from
FN:55,_RNvYpNtNtNtNtCs34FkZ5Aug64_15gungraun_runner6runner9callgrind6parser15CallgrindParser5parseBb_
FN:151,_RNvMs0_NtNtNtCs34FkZ5Aug64_15gungraun_runner6runner9callgrind6parserNtB5_8Sentinel7matches
FN:120,_RINvMs0_NtNtNtCs34FkZ5Aug64_15gungraun_runner6runner9callgrind6parserNtB6_8Sentinel3newReEBc_
FN:55,_RNvYNtNtNtNtCs5iQXrcGAeg9_15gungraun_runner6runner9callgrind14summary_parser13SummaryParserNtNtB6_6parser15CallgrindParser5parseCs7pKWTov8ZUt_4main
FN:55,_RNvYNtNtNtNtCs5iQXrcGAeg9_15gungraun_runner6runner9callgrind14hashmap_parser13HashMapParserNtNtB6_6parser15CallgrindParser5parseCs7pKWTov8ZUt_4main
FN:63,_RNCNvYNtNtNtNtCs5iQXrcGAeg9_15gungraun_runner6runner9callgrind14hashmap_parser13HashMapParserNtNtB8_6parser15CallgrindParser5parse0Cs7pKWTov8ZUt_4main
FN:66,_RNCNvYNtNtNtNtCs5iQXrcGAeg9_15gungraun_runner6runner9callgrind14hashmap_parser13HashMapParserNtNtB8_6parser15CallgrindParser5parses_0Cs7pKWTov8ZUt_4main
FN:63,_RNCNvYNtNtNtNtCs5iQXrcGAeg9_15gungraun_runner6runner9callgrind14summary_parser13SummaryParserNtNtB8_6parser15CallgrindParser5parse0Cs7pKWTov8ZUt_4main
FN:66,_RNCNvYNtNtNtNtCs5iQXrcGAeg9_15gungraun_runner6runner9callgrind14summary_parser13SummaryParserNtNtB8_6parser15CallgrindParser5parses_0Cs7pKWTov8ZUt_4main
FNDA:0,_RNCNvYNtNtNtNtCs5iQXrcGAeg9_15gungraun_runner6runner9callgrind14hashmap_parser13HashMapParserNtNtB8_6parser15CallgrindParser5parse0Csb039c427Ago_15benchmark_tests
FNDA:0,_RNCNvYNtNtNtNtCs5iQXrcGAeg9_15gungraun_runner6runner9callgrind14hashmap_parser13HashMapParserNtNtB8_6parser15CallgrindParser5parses_0Csb039c427Ago_15benchmark_tests
FNDA:0,_RNvMNtNtNtCs5iQXrcGAeg9_15gungraun_runner6runner9callgrind6parserNtB2_19CallgrindProperties18compare_target_ids
FNDA:66,_RNvMs0_NtNtNtCs5iQXrcGAeg9_15gungraun_runner6runner9callgrind6parserNtB5_8Sentinel7matches
FNDA:0,_RNvMs0_NtNtNtCs5iQXrcGAeg9_15gungraun_runner6runner9callgrind6parserNtB5_8Sentinel9from_path
FNDA:0,_RNvXs1_NtNtNtCs5iQXrcGAeg9_15gungraun_runner6runner9callgrind6parserNtB5_8SentinelINtNtCsgEmfK2I1SDS_4core7convert5AsRefB14_E6as_ref
FNDA:0,_RNvXs2_NtNtNtCs5iQXrcGAeg9_15gungraun_runner6runner9callgrind6parserNtB5_8SentinelNtNtCsgEmfK2I1SDS_4core7default7Default7default
FNDA:0,_RNvXs3_NtNtNtCs5iQXrcGAeg9_15gungraun_runner6runner9callgrind6parserNtB5_8SentinelNtNtCsgEmfK2I1SDS_4core3fmt7Display3fmt
FNDA:0,_RNvXs5_NtNtNtCs5iQXrcGAeg9_15gungraun_runner6runner9callgrind6parserNtB5_8SentinelNtNtCsgEmfK2I1SDS_4core3cmp9PartialEq2eq
FNDA:0,_RNvXs_NtNtNtCs5iQXrcGAeg9_15gungraun_runner6runner9callgrind6parserNtB4_19CallgrindPropertiesINtNtCsgEmfK2I1SDS_4core7convert4FromNtNtNtB8_4tool6parser12ParserOutputE4from
FNDA:0,_RINvMs0_NtNtNtCs5iQXrcGAeg9_15gungraun_runner6runner9callgrind6parserNtB6_8Sentinel13from_segmentsppEBc_
FNDA:0,_RNCINvMs0_NtNtNtCs5iQXrcGAeg9_15gungraun_runner6runner9callgrind6parserNtB8_8Sentinel13from_segmentsppE0Be_
FNDA:0,_RINvMs0_NtNtNtCs5iQXrcGAeg9_15gungraun_runner6runner9callgrind6parserNtB6_8Sentinel3newNtNtCslNYArtu3iFV_5alloc6string6StringEBc_
FNDA:1,_RINvMs0_NtNtNtCs5iQXrcGAeg9_15gungraun_runner6runner9callgrind6parserNtB6_8Sentinel3newReEBc_
FNDA:13,_RINvNtNtNtCs5iQXrcGAeg9_15gungraun_runner6runner9callgrind6parser12parse_headerINtNtNtNtCsgEmfK2I1SDS_4core4iter8adapters3map3MapINtNtCsjrHSEGnQ3l9_3std2io5LinesINtNtNtB26_8buffered9bufreader9BufReaderNtNtB28_2fs4FileEENvMNtB1o_6resultINtB3y_6ResultNtNtCslNYArtu3iFV_5alloc6string6StringNtNtB26_5error5ErrorE6unwrapEEB8_
FNDA:12,_RNCINvNtNtNtCs5iQXrcGAeg9_15gungraun_runner6runner9callgrind6parser12parse_headerINtNtNtNtCsgEmfK2I1SDS_4core4iter8adapters3map3MapINtNtCsjrHSEGnQ3l9_3std2io5LinesINtNtNtB28_8buffered9bufreader9BufReaderNtNtB2a_2fs4FileEENvMNtB1q_6resultINtB3A_6ResultNtNtCslNYArtu3iFV_5alloc6string6StringNtNtB28_5error5ErrorE6unwrapEE0Ba_
FNDA:177,_RNCINvNtNtNtCs5iQXrcGAeg9_15gungraun_runner6runner9callgrind6parser12parse_headerINtNtNtNtCsgEmfK2I1SDS_4core4iter8adapters3map3MapINtNtCsjrHSEGnQ3l9_3std2io5LinesINtNtNtB28_8buffered9bufreader9BufReaderNtNtB2a_2fs4FileEENvMNtB1q_6resultINtB3A_6ResultNtNtCslNYArtu3iFV_5alloc6string6StringNtNtB28_5error5ErrorE6unwrapEEs0_0Ba_
FNDA:133,_RNCINvNtNtNtCs5iQXrcGAeg9_15gungraun_runner6runner9callgrind6parser12parse_headerINtNtNtNtCsgEmfK2I1SDS_4core4iter8adapters3map3MapINtNtCsjrHSEGnQ3l9_3std2io5LinesINtNtNtB28_8buffered9bufreader9BufReaderNtNtB2a_2fs4FileEENvMNtB1q_6resultINtB3A_6ResultNtNtCslNYArtu3iFV_5alloc6string6StringNtNtB28_5error5ErrorE6unwrapEEs1_0Ba_
FNDA:0,_RNCINvNtNtNtCs5iQXrcGAeg9_15gungraun_runner6runner9callgrind6parser12parse_headerINtNtNtNtCsgEmfK2I1SDS_4core4iter8adapters3map3MapINtNtCsjrHSEGnQ3l9_3std2io5LinesINtNtNtB28_8buffered9bufreader9BufReaderNtNtB2a_2fs4FileEENvMNtB1q_6resultINtB3A_6ResultNtNtCslNYArtu3iFV_5alloc6string6StringNtNtB28_5error5ErrorE6unwrapEEs2_0Ba_
FNDA:1,_RNCINvNtNtNtCs5iQXrcGAeg9_15gungraun_runner6runner9callgrind6parser12parse_headerINtNtNtNtCsgEmfK2I1SDS_4core4iter8adapters3map3MapINtNtCsjrHSEGnQ3l9_3std2io5LinesINtNtNtB28_8buffered9bufreader9BufReaderNtNtB2a_2fs4FileEENvMNtB1q_6resultINtB3A_6ResultNtNtCslNYArtu3iFV_5alloc6string6StringNtNtB28_5error5ErrorE6unwrapEEs_0Ba_
FNDA:0,_RNCNCNvMNtNtNtCs5iQXrcGAeg9_15gungraun_runner6runner9callgrind6parserNtB6_19CallgrindProperties18compare_target_ids00Bc_
FNDA:0,_RNCNvMNtNtNtCs5iQXrcGAeg9_15gungraun_runner6runner9callgrind6parserNtB4_19CallgrindProperties18compare_target_ids0Ba_
FNDA:2,_RNCNvYNtNtNtNtCs5iQXrcGAeg9_15gungraun_runner6runner9callgrind17flamegraph_parser16FlamegraphParserNtNtB8_6parser15CallgrindParser5parse0Bc_
FNDA:0,_RNCNvYNtNtNtNtCs5iQXrcGAeg9_15gungraun_runner6runner9callgrind17flamegraph_parser16FlamegraphParserNtNtB8_6parser15CallgrindParser5parses_0Bc_
FNDA:0,_RNvXs6_NtNtNtCs5iQXrcGAeg9_15gungraun_runner6runner9callgrind6parserNtNtCslNYArtu3iFV_5alloc6string6StringINtNtCsgEmfK2I1SDS_4core7convert4FromNtB5_8SentinelE4from
FNDA:2,_RNvYNtNtNtNtCs5iQXrcGAeg9_15gungraun_runner6runner9callgrind17flamegraph_parser16FlamegraphParserNtNtB6_6parser15CallgrindParser5parseBa_
FNDA:0,_RINvMs0_NtNtNtCs34FkZ5Aug64_15gungraun_runner6runner9callgrind6parserNtB6_8Sentinel13from_segmentsppEBc_
FNDA:0,_RINvNtNtNtCs34FkZ5Aug64_15gungraun_runner6runner9callgrind6parser12parse_headerpEB8_
FNDA:0,_RNCINvMs0_NtNtNtCs34FkZ5Aug64_15gungraun_runner6runner9callgrind6parserNtB8_8Sentinel13from_segmentsppE0Be_
FNDA:0,_RNCINvNtNtNtCs34FkZ5Aug64_15gungraun_runner6runner9callgrind6parser12parse_headerpE0Ba_
FNDA:0,_RNCINvNtNtNtCs34FkZ5Aug64_15gungraun_runner6runner9callgrind6parser12parse_headerpEs0_0Ba_
FNDA:0,_RNCINvNtNtNtCs34FkZ5Aug64_15gungraun_runner6runner9callgrind6parser12parse_headerpEs1_0Ba_
FNDA:0,_RNCINvNtNtNtCs34FkZ5Aug64_15gungraun_runner6runner9callgrind6parser12parse_headerpEs2_0Ba_
FNDA:0,_RNCINvNtNtNtCs34FkZ5Aug64_15gungraun_runner6runner9callgrind6parser12parse_headerpEs_0Ba_
FNDA:0,_RNCNCNvMNtNtNtCs34FkZ5Aug64_15gungraun_runner6runner9callgrind6parserNtB6_19CallgrindProperties18compare_target_ids00Bc_
FNDA:0,_RNCNvMNtNtNtCs34FkZ5Aug64_15gungraun_runner6runner9callgrind6parserNtB4_19CallgrindProperties18compare_target_ids0Ba_
FNDA:0,_RNCNvYpNtNtNtNtCs34FkZ5Aug64_15gungraun_runner6runner9callgrind6parser15CallgrindParser5parse0Bd_
FNDA:0,_RNCNvYpNtNtNtNtCs34FkZ5Aug64_15gungraun_runner6runner9callgrind6parser15CallgrindParser5parses_0Bd_
FNDA:0,_RNvMNtNtNtCs34FkZ5Aug64_15gungraun_runner6runner9callgrind6parserNtB2_19CallgrindProperties18compare_target_ids
FNDA:0,_RNvMs0_NtNtNtCs34FkZ5Aug64_15gungraun_runner6runner9callgrind6parserNtB5_8Sentinel9from_path
FNDA:0,_RNvXs1_NtNtNtCs34FkZ5Aug64_15gungraun_runner6runner9callgrind6parserNtB5_8SentinelINtNtCsgEmfK2I1SDS_4core7convert5AsRefB14_E6as_ref
FNDA:0,_RNvXs2_NtNtNtCs34FkZ5Aug64_15gungraun_runner6runner9callgrind6parserNtB5_8SentinelNtNtCsgEmfK2I1SDS_4core7default7Default7default
FNDA:0,_RNvXs3_NtNtNtCs34FkZ5Aug64_15gungraun_runner6runner9callgrind6parserNtB5_8SentinelNtNtCsgEmfK2I1SDS_4core3fmt7Display3fmt
FNDA:0,_RNvXs5_NtNtNtCs34FkZ5Aug64_15gungraun_runner6runner9callgrind6parserNtB5_8SentinelNtNtCsgEmfK2I1SDS_4core3cmp9PartialEq2eq
FNDA:0,_RNvXs6_NtNtNtCs34FkZ5Aug64_15gungraun_runner6runner9callgrind6parserNtNtCslNYArtu3iFV_5alloc6string6StringINtNtCsgEmfK2I1SDS_4core7convert4FromNtB5_8SentinelE4from
FNDA:0,_RNvXs_NtNtNtCs34FkZ5Aug64_15gungraun_runner6runner9callgrind6parserNtB4_19CallgrindPropertiesINtNtCsgEmfK2I1SDS_4core7convert4FromNtNtNtB8_4tool6parser12ParserOutputE4from
FNDA:0,_RNvYpNtNtNtNtCs34FkZ5Aug64_15gungraun_runner6runner9callgrind6parser15CallgrindParser5parseBb_
FNDA:11,_RNvMs0_NtNtNtCs34FkZ5Aug64_15gungraun_runner6runner9callgrind6parserNtB5_8Sentinel7matches
FNDA:11,_RINvMs0_NtNtNtCs34FkZ5Aug64_15gungraun_runner6runner9callgrind6parserNtB6_8Sentinel3newReEBc_
FNDA:6,_RNvYNtNtNtNtCs5iQXrcGAeg9_15gungraun_runner6runner9callgrind14summary_parser13SummaryParserNtNtB6_6parser15CallgrindParser5parseCs7pKWTov8ZUt_4main
FNDA:5,_RNvYNtNtNtNtCs5iQXrcGAeg9_15gungraun_runner6runner9callgrind14hashmap_parser13HashMapParserNtNtB6_6parser15CallgrindParser5parseCs7pKWTov8ZUt_4main
FNDA:3,_RNCNvYNtNtNtNtCs5iQXrcGAeg9_15gungraun_runner6runner9callgrind14hashmap_parser13HashMapParserNtNtB8_6parser15CallgrindParser5parse0Cs7pKWTov8ZUt_4main
FNDA:0,_RNCNvYNtNtNtNtCs5iQXrcGAeg9_15gungraun_runner6runner9callgrind14hashmap_parser13HashMapParserNtNtB8_6parser15CallgrindParser5parses_0Cs7pKWTov8ZUt_4main
FNDA:5,_RNCNvYNtNtNtNtCs5iQXrcGAeg9_15gungraun_runner6runner9callgrind14summary_parser13SummaryParserNtNtB8_6parser15CallgrindParser5parse0Cs7pKWTov8ZUt_4main
FNDA:0,_RNCNvYNtNtNtNtCs5iQXrcGAeg9_15gungraun_runner6runner9callgrind14summary_parser13SummaryParserNtNtB8_6parser15CallgrindParser5parses_0Cs7pKWTov8ZUt_4main
FNF:23
FNH:9
DA:55,13
DA:56,13
DA:57,13
DA:58,13
DA:59,13
DA:60,13
DA:61,13
DA:62,13
DA:63,13
DA:65,10
DA:66,10
DA:67,10
DA:69,10
DA:72,10
DA:73,13
DA:85,0
DA:86,0
DA:87,0
DA:88,0
DA:89,0
DA:90,0
DA:91,0
DA:95,0
DA:96,0
DA:97,0
DA:98,0
DA:99,0
DA:100,0
DA:101,0
DA:102,0
DA:103,0
DA:104,0
DA:105,0
DA:106,0
DA:120,12
DA:121,12
DA:122,12
DA:124,12
DA:125,12
DA:128,0
DA:129,0
DA:130,0
DA:133,0
DA:134,0
DA:135,0
DA:136,0
DA:138,0
DA:139,0
DA:140,0
DA:141,0
DA:142,0
DA:143,0
DA:145,0
DA:147,0
DA:148,0
DA:151,77
DA:152,77
DA:153,77
DA:157,0
DA:158,0
DA:159,0
DA:163,0
DA:164,0
DA:165,0
DA:169,0
DA:170,0
DA:171,0
DA:177,0
DA:178,0
DA:179,0
DA:183,0
DA:184,0
DA:185,0
DA:189,13
DA:190,13
DA:191,13
DA:193,13
DA:194,13
DA:195,13
DA:196,13
DA:197,12
DA:199,0
DA:200,12
DA:202,12
DA:203,12
DA:204,12
DA:205,12
DA:206,12
DA:207,12
DA:208,12
DA:209,12
DA:211,177
DA:212,177
DA:213,177
DA:214,177
DA:215,133
DA:216,133
DA:217,1
DA:218,1
DA:219,1
DA:221,121
DA:222,11
DA:223,11
DA:225,110
DA:226,0
DA:227,0
DA:229,110
DA:230,11
DA:231,11
DA:233,99
DA:234,55
DA:235,55
DA:237,44
DA:238,11
DA:239,11
DA:241,33
DA:242,11
DA:243,11
DA:245,22
DA:246,11
DA:247,11
DA:248,11
DA:249,0
DA:254,11
DA:255,11
DA:256,11
DA:257,11
DA:258,11
DA:259,11
DA:260,11
DA:262,11
DA:266,11
DA:271,11
DA:272,11
DA:273,11
DA:274,11
DA:275,11
DA:276,11
DA:277,11
DA:278,11
DA:279,11
DA:281,13
BRF:0
BRH:0
LF:152
LH:93
end_of_record
SF:/fast/lenny/workspace/programming/gungraun/gungraun/gungraun-runner/src/runner/callgrind/regression.rs
FN:71,_RNCNCNCNvXs0_NtNtNtCs5iQXrcGAeg9_15gungraun_runner6runner9callgrind10regressionNtBb_25CallgrindRegressionConfigINtNtCsgEmfK2I1SDS_4core7convert7TryFromNtNtBh_3api25CallgrindRegressionConfigE8try_from000Bh_
FN:68,_RNCNCNvXs0_NtNtNtCs5iQXrcGAeg9_15gungraun_runner6runner9callgrind10regressionNtB9_25CallgrindRegressionConfigINtNtCsgEmfK2I1SDS_4core7convert7TryFromNtNtBf_3api25CallgrindRegressionConfigE8try_from00Bf_
FN:84,_RNCNCNvXs0_NtNtNtCs5iQXrcGAeg9_15gungraun_runner6runner9callgrind10regressionNtB9_25CallgrindRegressionConfigINtNtCsgEmfK2I1SDS_4core7convert7TryFromNtNtBf_3api25CallgrindRegressionConfigE8try_froms_00Bf_
FN:65,_RNCNvXs0_NtNtNtCs5iQXrcGAeg9_15gungraun_runner6runner9callgrind10regressionNtB7_25CallgrindRegressionConfigINtNtCsgEmfK2I1SDS_4core7convert7TryFromNtNtBd_3api25CallgrindRegressionConfigE8try_from0Bd_
FN:84,_RNCNvXs0_NtNtNtCs5iQXrcGAeg9_15gungraun_runner6runner9callgrind10regressionNtB7_25CallgrindRegressionConfigINtNtCsgEmfK2I1SDS_4core7convert7TryFromNtNtBd_3api25CallgrindRegressionConfigE8try_froms_0Bd_
FN:37,_RNCNvXs_NtNtNtCs5iQXrcGAeg9_15gungraun_runner6runner9callgrind10regressionNtB6_25CallgrindRegressionConfigINtNtNtBa_4tool10regression16RegressionConfigNtNtBc_3api9EventKindE5check0Bc_
FN:21,_RNvXNtNtNtCs5iQXrcGAeg9_15gungraun_runner6runner9callgrind10regressionNtB2_25CallgrindRegressionConfigNtNtCsgEmfK2I1SDS_4core7default7Default7default
FN:53,_RNvXs0_NtNtNtCs5iQXrcGAeg9_15gungraun_runner6runner9callgrind10regressionNtB5_25CallgrindRegressionConfigINtNtCsgEmfK2I1SDS_4core7convert7TryFromNtNtBb_3api25CallgrindRegressionConfigE8try_from
FN:45,_RNvXs_NtNtNtCs5iQXrcGAeg9_15gungraun_runner6runner9callgrind10regressionNtB4_25CallgrindRegressionConfigINtNtNtB8_4tool10regression16RegressionConfigNtNtBa_3api9EventKindE15get_hard_limits
FN:41,_RNvXs_NtNtNtCs5iQXrcGAeg9_15gungraun_runner6runner9callgrind10regressionNtB4_25CallgrindRegressionConfigINtNtNtB8_4tool10regression16RegressionConfigNtNtBa_3api9EventKindE15get_soft_limits
FN:34,_RNvXs_NtNtNtCs5iQXrcGAeg9_15gungraun_runner6runner9callgrind10regressionNtB4_25CallgrindRegressionConfigINtNtNtB8_4tool10regression16RegressionConfigNtNtBa_3api9EventKindE5check
FN:21,_RNvXNtNtNtCs34FkZ5Aug64_15gungraun_runner6runner9callgrind10regressionNtB2_25CallgrindRegressionConfigNtNtCsgEmfK2I1SDS_4core7default7Default7default
FN:53,_RNvXs0_NtNtNtCs34FkZ5Aug64_15gungraun_runner6runner9callgrind10regressionNtB5_25CallgrindRegressionConfigINtNtCsgEmfK2I1SDS_4core7convert7TryFromNtNtBb_3api25CallgrindRegressionConfigE8try_from
FN:45,_RNvXs_NtNtNtCs34FkZ5Aug64_15gungraun_runner6runner9callgrind10regressionNtB4_25CallgrindRegressionConfigINtNtNtB8_4tool10regression16RegressionConfigNtNtBa_3api9EventKindE15get_hard_limits
FN:41,_RNvXs_NtNtNtCs34FkZ5Aug64_15gungraun_runner6runner9callgrind10regressionNtB4_25CallgrindRegressionConfigINtNtNtB8_4tool10regression16RegressionConfigNtNtBa_3api9EventKindE15get_soft_limits
FN:34,_RNvXs_NtNtNtCs34FkZ5Aug64_15gungraun_runner6runner9callgrind10regressionNtB4_25CallgrindRegressionConfigINtNtNtB8_4tool10regression16RegressionConfigNtNtBa_3api9EventKindE5check
FN:276,_RNCNvNtNtNtNtNtCs34FkZ5Aug64_15gungraun_runner6runner9callgrind10regression5tests47test_try_from_regression_config_for_hard_limitss_19case_09_mixed_group0Bd_
FN:304,_RNCINvNtNtNtNtCs34FkZ5Aug64_15gungraun_runner6runner9callgrind10regression5tests47test_try_from_regression_config_for_hard_limitsNtNtBc_3api16CallgrindMetricsddE0Bc_
FN:312,_RNCINvNtNtNtNtCs34FkZ5Aug64_15gungraun_runner6runner9callgrind10regression5tests47test_try_from_regression_config_for_hard_limitsNtNtBc_3api16CallgrindMetricsddEs_0Bc_
FN:304,_RNCINvNtNtNtNtCs34FkZ5Aug64_15gungraun_runner6runner9callgrind10regression5tests47test_try_from_regression_config_for_hard_limitsNtNtBc_3api16CallgrindMetricsyNtNtBa_7metrics6MetricE0Bc_
FN:312,_RNCINvNtNtNtNtCs34FkZ5Aug64_15gungraun_runner6runner9callgrind10regression5tests47test_try_from_regression_config_for_hard_limitsNtNtBc_3api16CallgrindMetricsyNtNtBa_7metrics6MetricEs_0Bc_
FN:304,_RNCINvNtNtNtNtCs34FkZ5Aug64_15gungraun_runner6runner9callgrind10regression5tests47test_try_from_regression_config_for_hard_limitsNtNtBc_3api16CallgrindMetricsydE0Bc_
FN:312,_RNCINvNtNtNtNtCs34FkZ5Aug64_15gungraun_runner6runner9callgrind10regression5tests47test_try_from_regression_config_for_hard_limitsNtNtBc_3api16CallgrindMetricsydEs_0Bc_
FN:304,_RNCINvNtNtNtNtCs34FkZ5Aug64_15gungraun_runner6runner9callgrind10regression5tests47test_try_from_regression_config_for_hard_limitsNtNtBc_3api16CallgrindMetricsyyE0Bc_
FN:312,_RNCINvNtNtNtNtCs34FkZ5Aug64_15gungraun_runner6runner9callgrind10regression5tests47test_try_from_regression_config_for_hard_limitsNtNtBc_3api16CallgrindMetricsyyEs_0Bc_
FN:304,_RNCINvNtNtNtNtCs34FkZ5Aug64_15gungraun_runner6runner9callgrind10regression5tests47test_try_from_regression_config_for_hard_limitsNtNtBc_3api9EventKindddE0Bc_
FN:312,_RNCINvNtNtNtNtCs34FkZ5Aug64_15gungraun_runner6runner9callgrind10regression5tests47test_try_from_regression_config_for_hard_limitsNtNtBc_3api9EventKindddEs_0Bc_
FN:304,_RNCINvNtNtNtNtCs34FkZ5Aug64_15gungraun_runner6runner9callgrind10regression5tests47test_try_from_regression_config_for_hard_limitsNtNtBc_3api9EventKindydE0Bc_
FN:312,_RNCINvNtNtNtNtCs34FkZ5Aug64_15gungraun_runner6runner9callgrind10regression5tests47test_try_from_regression_config_for_hard_limitsNtNtBc_3api9EventKindydEs_0Bc_
FN:304,_RNCINvNtNtNtNtCs34FkZ5Aug64_15gungraun_runner6runner9callgrind10regression5tests47test_try_from_regression_config_for_hard_limitsNtNtBc_3api9EventKindyyE0Bc_
FN:312,_RNCINvNtNtNtNtCs34FkZ5Aug64_15gungraun_runner6runner9callgrind10regression5tests47test_try_from_regression_config_for_hard_limitsNtNtBc_3api9EventKindyyEs_0Bc_
FN:242,_RNCINvNtNtNtNtCs34FkZ5Aug64_15gungraun_runner6runner9callgrind10regression5tests47test_try_from_regression_config_for_soft_limitsNtNtBc_3api16CallgrindMetricsE0Bc_
FN:242,_RNCINvNtNtNtNtCs34FkZ5Aug64_15gungraun_runner6runner9callgrind10regression5tests47test_try_from_regression_config_for_soft_limitsNtNtBc_3api9EventKindE0Bc_
FN:204,_RNCNvNtNtNtNtCs34FkZ5Aug64_15gungraun_runner6runner9callgrind10regression5tests47test_regression_check_when_soft_and_old_is_some0Bb_
FN:71,_RNCNCNCNvXs0_NtNtNtCs34FkZ5Aug64_15gungraun_runner6runner9callgrind10regressionNtBb_25CallgrindRegressionConfigINtNtCsgEmfK2I1SDS_4core7convert7TryFromNtNtBh_3api25CallgrindRegressionConfigE8try_from000Bh_
FN:68,_RNCNCNvXs0_NtNtNtCs34FkZ5Aug64_15gungraun_runner6runner9callgrind10regressionNtB9_25CallgrindRegressionConfigINtNtCsgEmfK2I1SDS_4core7convert7TryFromNtNtBf_3api25CallgrindRegressionConfigE8try_from00Bf_
FN:84,_RNCNCNvXs0_NtNtNtCs34FkZ5Aug64_15gungraun_runner6runner9callgrind10regressionNtB9_25CallgrindRegressionConfigINtNtCsgEmfK2I1SDS_4core7convert7TryFromNtNtBf_3api25CallgrindRegressionConfigE8try_froms_00Bf_
FN:65,_RNCNvXs0_NtNtNtCs34FkZ5Aug64_15gungraun_runner6runner9callgrind10regressionNtB7_25CallgrindRegressionConfigINtNtCsgEmfK2I1SDS_4core7convert7TryFromNtNtBd_3api25CallgrindRegressionConfigE8try_from0Bd_
FN:84,_RNCNvXs0_NtNtNtCs34FkZ5Aug64_15gungraun_runner6runner9callgrind10regressionNtB7_25CallgrindRegressionConfigINtNtCsgEmfK2I1SDS_4core7convert7TryFromNtNtBd_3api25CallgrindRegressionConfigE8try_froms_0Bd_
FN:37,_RNCNvXs_NtNtNtCs34FkZ5Aug64_15gungraun_runner6runner9callgrind10regressionNtB6_25CallgrindRegressionConfigINtNtNtBa_4tool10regression16RegressionConfigNtNtBc_3api9EventKindE5check0Bc_
FN:109,_RNvNtNtNtNtCs34FkZ5Aug64_15gungraun_runner6runner9callgrind10regression5tests14cachesim_costs
FN:324,_RNvNtNtNtNtCs34FkZ5Aug64_15gungraun_runner6runner9callgrind10regression5testss_58test_try_from_regression_config_for_hard_limits_then_error
FNDA:0,_RNCNCNCNvXs0_NtNtNtCs5iQXrcGAeg9_15gungraun_runner6runner9callgrind10regressionNtBb_25CallgrindRegressionConfigINtNtCsgEmfK2I1SDS_4core7convert7TryFromNtNtBh_3api25CallgrindRegressionConfigE8try_from000Bh_
FNDA:0,_RNCNCNvXs0_NtNtNtCs5iQXrcGAeg9_15gungraun_runner6runner9callgrind10regressionNtB9_25CallgrindRegressionConfigINtNtCsgEmfK2I1SDS_4core7convert7TryFromNtNtBf_3api25CallgrindRegressionConfigE8try_from00Bf_
FNDA:0,_RNCNCNvXs0_NtNtNtCs5iQXrcGAeg9_15gungraun_runner6runner9callgrind10regressionNtB9_25CallgrindRegressionConfigINtNtCsgEmfK2I1SDS_4core7convert7TryFromNtNtBf_3api25CallgrindRegressionConfigE8try_froms_00Bf_
FNDA:0,_RNCNvXs0_NtNtNtCs5iQXrcGAeg9_15gungraun_runner6runner9callgrind10regressionNtB7_25CallgrindRegressionConfigINtNtCsgEmfK2I1SDS_4core7convert7TryFromNtNtBd_3api25CallgrindRegressionConfigE8try_from0Bd_
FNDA:0,_RNCNvXs0_NtNtNtCs5iQXrcGAeg9_15gungraun_runner6runner9callgrind10regressionNtB7_25CallgrindRegressionConfigINtNtCsgEmfK2I1SDS_4core7convert7TryFromNtNtBd_3api25CallgrindRegressionConfigE8try_froms_0Bd_
FNDA:0,_RNCNvXs_NtNtNtCs5iQXrcGAeg9_15gungraun_runner6runner9callgrind10regressionNtB6_25CallgrindRegressionConfigINtNtNtBa_4tool10regression16RegressionConfigNtNtBc_3api9EventKindE5check0Bc_
FNDA:0,_RNvXNtNtNtCs5iQXrcGAeg9_15gungraun_runner6runner9callgrind10regressionNtB2_25CallgrindRegressionConfigNtNtCsgEmfK2I1SDS_4core7default7Default7default
FNDA:0,_RNvXs0_NtNtNtCs5iQXrcGAeg9_15gungraun_runner6runner9callgrind10regressionNtB5_25CallgrindRegressionConfigINtNtCsgEmfK2I1SDS_4core7convert7TryFromNtNtBb_3api25CallgrindRegressionConfigE8try_from
FNDA:0,_RNvXs_NtNtNtCs5iQXrcGAeg9_15gungraun_runner6runner9callgrind10regressionNtB4_25CallgrindRegressionConfigINtNtNtB8_4tool10regression16RegressionConfigNtNtBa_3api9EventKindE15get_hard_limits
FNDA:0,_RNvXs_NtNtNtCs5iQXrcGAeg9_15gungraun_runner6runner9callgrind10regressionNtB4_25CallgrindRegressionConfigINtNtNtB8_4tool10regression16RegressionConfigNtNtBa_3api9EventKindE15get_soft_limits
FNDA:0,_RNvXs_NtNtNtCs5iQXrcGAeg9_15gungraun_runner6runner9callgrind10regressionNtB4_25CallgrindRegressionConfigINtNtNtB8_4tool10regression16RegressionConfigNtNtBa_3api9EventKindE5check
FNDA:25,_RNvXNtNtNtCs34FkZ5Aug64_15gungraun_runner6runner9callgrind10regressionNtB2_25CallgrindRegressionConfigNtNtCsgEmfK2I1SDS_4core7default7Default7default
FNDA:18,_RNvXs0_NtNtNtCs34FkZ5Aug64_15gungraun_runner6runner9callgrind10regressionNtB5_25CallgrindRegressionConfigINtNtCsgEmfK2I1SDS_4core7convert7TryFromNtNtBb_3api25CallgrindRegressionConfigE8try_from
FNDA:10,_RNvXs_NtNtNtCs34FkZ5Aug64_15gungraun_runner6runner9callgrind10regressionNtB4_25CallgrindRegressionConfigINtNtNtB8_4tool10regression16RegressionConfigNtNtBa_3api9EventKindE15get_hard_limits
FNDA:10,_RNvXs_NtNtNtCs34FkZ5Aug64_15gungraun_runner6runner9callgrind10regressionNtB4_25CallgrindRegressionConfigINtNtNtB8_4tool10regression16RegressionConfigNtNtBa_3api9EventKindE15get_soft_limits
FNDA:10,_RNvXs_NtNtNtCs34FkZ5Aug64_15gungraun_runner6runner9callgrind10regressionNtB4_25CallgrindRegressionConfigINtNtNtB8_4tool10regression16RegressionConfigNtNtBa_3api9EventKindE5check
FNDA:21,_RNCNvNtNtNtNtNtCs34FkZ5Aug64_15gungraun_runner6runner9callgrind10regression5tests47test_try_from_regression_config_for_hard_limitss_19case_09_mixed_group0Bd_
FNDA:3,_RNCINvNtNtNtNtCs34FkZ5Aug64_15gungraun_runner6runner9callgrind10regression5tests47test_try_from_regression_config_for_hard_limitsNtNtBc_3api16CallgrindMetricsddE0Bc_
FNDA:1,_RNCINvNtNtNtNtCs34FkZ5Aug64_15gungraun_runner6runner9callgrind10regression5tests47test_try_from_regression_config_for_hard_limitsNtNtBc_3api16CallgrindMetricsddEs_0Bc_
FNDA:21,_RNCINvNtNtNtNtCs34FkZ5Aug64_15gungraun_runner6runner9callgrind10regression5tests47test_try_from_regression_config_for_hard_limitsNtNtBc_3api16CallgrindMetricsyNtNtBa_7metrics6MetricE0Bc_
FNDA:1,_RNCINvNtNtNtNtCs34FkZ5Aug64_15gungraun_runner6runner9callgrind10regression5tests47test_try_from_regression_config_for_hard_limitsNtNtBc_3api16CallgrindMetricsyNtNtBa_7metrics6MetricEs_0Bc_
FNDA:3,_RNCINvNtNtNtNtCs34FkZ5Aug64_15gungraun_runner6runner9callgrind10regression5tests47test_try_from_regression_config_for_hard_limitsNtNtBc_3api16CallgrindMetricsydE0Bc_
FNDA:1,_RNCINvNtNtNtNtCs34FkZ5Aug64_15gungraun_runner6runner9callgrind10regression5tests47test_try_from_regression_config_for_hard_limitsNtNtBc_3api16CallgrindMetricsydEs_0Bc_
FNDA:6,_RNCINvNtNtNtNtCs34FkZ5Aug64_15gungraun_runner6runner9callgrind10regression5tests47test_try_from_regression_config_for_hard_limitsNtNtBc_3api16CallgrindMetricsyyE0Bc_
FNDA:3,_RNCINvNtNtNtNtCs34FkZ5Aug64_15gungraun_runner6runner9callgrind10regression5tests47test_try_from_regression_config_for_hard_limitsNtNtBc_3api16CallgrindMetricsyyEs_0Bc_
FNDA:0,_RNCINvNtNtNtNtCs34FkZ5Aug64_15gungraun_runner6runner9callgrind10regression5tests47test_try_from_regression_config_for_hard_limitsNtNtBc_3api9EventKindddE0Bc_
FNDA:0,_RNCINvNtNtNtNtCs34FkZ5Aug64_15gungraun_runner6runner9callgrind10regression5tests47test_try_from_regression_config_for_hard_limitsNtNtBc_3api9EventKindddEs_0Bc_
FNDA:1,_RNCINvNtNtNtNtCs34FkZ5Aug64_15gungraun_runner6runner9callgrind10regression5tests47test_try_from_regression_config_for_hard_limitsNtNtBc_3api9EventKindydE0Bc_
FNDA:1,_RNCINvNtNtNtNtCs34FkZ5Aug64_15gungraun_runner6runner9callgrind10regression5tests47test_try_from_regression_config_for_hard_limitsNtNtBc_3api9EventKindydEs_0Bc_
FNDA:4,_RNCINvNtNtNtNtCs34FkZ5Aug64_15gungraun_runner6runner9callgrind10regression5tests47test_try_from_regression_config_for_hard_limitsNtNtBc_3api9EventKindyyE0Bc_
FNDA:5,_RNCINvNtNtNtNtCs34FkZ5Aug64_15gungraun_runner6runner9callgrind10regression5tests47test_try_from_regression_config_for_hard_limitsNtNtBc_3api9EventKindyyEs_0Bc_
FNDA:3,_RNCINvNtNtNtNtCs34FkZ5Aug64_15gungraun_runner6runner9callgrind10regression5tests47test_try_from_regression_config_for_soft_limitsNtNtBc_3api16CallgrindMetricsE0Bc_
FNDA:5,_RNCINvNtNtNtNtCs34FkZ5Aug64_15gungraun_runner6runner9callgrind10regression5tests47test_try_from_regression_config_for_soft_limitsNtNtBc_3api9EventKindE0Bc_
FNDA:6,_RNCNvNtNtNtNtCs34FkZ5Aug64_15gungraun_runner6runner9callgrind10regression5tests47test_regression_check_when_soft_and_old_is_some0Bb_
FNDA:2,_RNCNCNCNvXs0_NtNtNtCs34FkZ5Aug64_15gungraun_runner6runner9callgrind10regressionNtBb_25CallgrindRegressionConfigINtNtCsgEmfK2I1SDS_4core7convert7TryFromNtNtBh_3api25CallgrindRegressionConfigE8try_from000Bh_
FNDA:42,_RNCNCNvXs0_NtNtNtCs34FkZ5Aug64_15gungraun_runner6runner9callgrind10regressionNtB9_25CallgrindRegressionConfigINtNtCsgEmfK2I1SDS_4core7convert7TryFromNtNtBf_3api25CallgrindRegressionConfigE8try_from00Bf_
FNDA:12,_RNCNCNvXs0_NtNtNtCs34FkZ5Aug64_15gungraun_runner6runner9callgrind10regressionNtB9_25CallgrindRegressionConfigINtNtCsgEmfK2I1SDS_4core7convert7TryFromNtNtBf_3api25CallgrindRegressionConfigE8try_froms_00Bf_
FNDA:14,_RNCNvXs0_NtNtNtCs34FkZ5Aug64_15gungraun_runner6runner9callgrind10regressionNtB7_25CallgrindRegressionConfigINtNtCsgEmfK2I1SDS_4core7convert7TryFromNtNtBd_3api25CallgrindRegressionConfigE8try_from0Bd_
FNDA:8,_RNCNvXs0_NtNtNtCs34FkZ5Aug64_15gungraun_runner6runner9callgrind10regressionNtB7_25CallgrindRegressionConfigINtNtCsgEmfK2I1SDS_4core7convert7TryFromNtNtBd_3api25CallgrindRegressionConfigE8try_froms_0Bd_
FNDA:6,_RNCNvXs_NtNtNtCs34FkZ5Aug64_15gungraun_runner6runner9callgrind10regressionNtB6_25CallgrindRegressionConfigINtNtNtBa_4tool10regression16RegressionConfigNtNtBc_3api9EventKindE5check0Bc_
FNDA:19,_RNvNtNtNtNtCs34FkZ5Aug64_15gungraun_runner6runner9callgrind10regression5tests14cachesim_costs
FNDA:1,_RNvNtNtNtNtCs34FkZ5Aug64_15gungraun_runner6runner9callgrind10regression5testss_58test_try_from_regression_config_for_hard_limits_then_error
FNF:18
FNH:18
DA:21,25
DA:22,25
DA:23,25
DA:24,25
DA:25,25
DA:26,25
DA:27,25
DA:34,10
DA:35,10
DA:36,10
DA:37,10
DA:38,10
DA:39,10
DA:41,10
DA:42,10
DA:43,10
DA:45,10
DA:46,10
DA:47,10
DA:53,18
DA:55,18
DA:56,18
DA:57,18
DA:58,18
DA:60,18
DA:61,2
DA:63,16
DA:64,16
DA:65,16
DA:66,14
DA:67,14
DA:68,42
DA:69,42
DA:70,42
DA:71,42
DA:72,2
DA:77,2
DA:78,42
DA:79,14
DA:80,16
DA:82,14
DA:83,14
DA:84,14
DA:85,14
DA:87,14
DA:90,16
DA:91,16
DA:92,16
DA:93,16
DA:94,16
DA:95,18
DA:109,19
DA:110,19
DA:111,19
DA:112,19
DA:113,19
DA:114,19
DA:115,19
DA:116,19
DA:117,19
DA:118,19
DA:119,19
DA:120,19
DA:121,19
DA:204,6
DA:205,6
DA:206,6
DA:207,6
DA:208,6
DA:209,6
DA:242,8
DA:276,21
DA:277,21
DA:278,13
DA:280,8
DA:282,21
DA:304,38
DA:312,12
DA:324,1
DA:325,1
DA:326,1
DA:327,1
DA:328,1
DA:329,1
DA:331,1
DA:333,1
DA:334,1
DA:335,1
DA:336,1
DA:337,1
DA:339,1
DA:340,1
BRF:0
BRH:0
LF:98
LH:98
end_of_record
SF:/fast/lenny/workspace/programming/gungraun/gungraun/gungraun-runner/src/runner/callgrind/summary_parser.rs
FN:41,_RNvMNtNtNtCs5iQXrcGAeg9_15gungraun_runner6runner9callgrind14summary_parserNtB2_13SummaryParser3new
FN:101,_RNvXs0_NtNtNtCs5iQXrcGAeg9_15gungraun_runner6runner9callgrind14summary_parserNtB5_13SummaryParserNtNtNtB9_4tool6parser6Parser12parse_single
FN:117,_RNvXs0_NtNtNtCs5iQXrcGAeg9_15gungraun_runner6runner9callgrind14summary_parserNtB5_13SummaryParserNtNtNtB9_4tool6parser6Parser15get_output_path
FN:51,_RNvXs_NtNtNtCs5iQXrcGAeg9_15gungraun_runner6runner9callgrind14summary_parserNtB4_13SummaryParserNtNtB6_6parser15CallgrindParser12parse_single
FN:103,_RNCNvXs0_NtNtNtCs5iQXrcGAeg9_15gungraun_runner6runner9callgrind14summary_parserNtB7_13SummaryParserNtNtNtBb_4tool6parser6Parser12parse_single0Bd_
FN:62,_RNCNvXs_NtNtNtCs5iQXrcGAeg9_15gungraun_runner6runner9callgrind14summary_parserNtB6_13SummaryParserNtNtB8_6parser15CallgrindParser12parse_single0Bc_
FN:103,_RNCNvXs0_NtNtNtCs34FkZ5Aug64_15gungraun_runner6runner9callgrind14summary_parserNtB7_13SummaryParserNtNtNtBb_4tool6parser6Parser12parse_single0Bd_
FN:62,_RNCNvXs_NtNtNtCs34FkZ5Aug64_15gungraun_runner6runner9callgrind14summary_parserNtB6_13SummaryParserNtNtB8_6parser15CallgrindParser12parse_single0Bc_
FN:41,_RNvMNtNtNtCs34FkZ5Aug64_15gungraun_runner6runner9callgrind14summary_parserNtB2_13SummaryParser3new
FN:101,_RNvXs0_NtNtNtCs34FkZ5Aug64_15gungraun_runner6runner9callgrind14summary_parserNtB5_13SummaryParserNtNtNtB9_4tool6parser6Parser12parse_single
FN:117,_RNvXs0_NtNtNtCs34FkZ5Aug64_15gungraun_runner6runner9callgrind14summary_parserNtB5_13SummaryParserNtNtNtB9_4tool6parser6Parser15get_output_path
FN:51,_RNvXs_NtNtNtCs34FkZ5Aug64_15gungraun_runner6runner9callgrind14summary_parserNtB4_13SummaryParserNtNtB6_6parser15CallgrindParser12parse_single
FNDA:6,_RNvMNtNtNtCs5iQXrcGAeg9_15gungraun_runner6runner9callgrind14summary_parserNtB2_13SummaryParser3new
FNDA:0,_RNvXs0_NtNtNtCs5iQXrcGAeg9_15gungraun_runner6runner9callgrind14summary_parserNtB5_13SummaryParserNtNtNtB9_4tool6parser6Parser12parse_single
FNDA:0,_RNvXs0_NtNtNtCs5iQXrcGAeg9_15gungraun_runner6runner9callgrind14summary_parserNtB5_13SummaryParserNtNtNtB9_4tool6parser6Parser15get_output_path
FNDA:6,_RNvXs_NtNtNtCs5iQXrcGAeg9_15gungraun_runner6runner9callgrind14summary_parserNtB4_13SummaryParserNtNtB6_6parser15CallgrindParser12parse_single
FNDA:0,_RNCNvXs0_NtNtNtCs5iQXrcGAeg9_15gungraun_runner6runner9callgrind14summary_parserNtB7_13SummaryParserNtNtNtBb_4tool6parser6Parser12parse_single0Bd_
FNDA:0,_RNCNvXs_NtNtNtCs5iQXrcGAeg9_15gungraun_runner6runner9callgrind14summary_parserNtB6_13SummaryParserNtNtB8_6parser15CallgrindParser12parse_single0Bc_
FNDA:0,_RNCNvXs0_NtNtNtCs34FkZ5Aug64_15gungraun_runner6runner9callgrind14summary_parserNtB7_13SummaryParserNtNtNtBb_4tool6parser6Parser12parse_single0Bd_
FNDA:0,_RNCNvXs_NtNtNtCs34FkZ5Aug64_15gungraun_runner6runner9callgrind14summary_parserNtB6_13SummaryParserNtNtB8_6parser15CallgrindParser12parse_single0Bc_
FNDA:0,_RNvMNtNtNtCs34FkZ5Aug64_15gungraun_runner6runner9callgrind14summary_parserNtB2_13SummaryParser3new
FNDA:0,_RNvXs0_NtNtNtCs34FkZ5Aug64_15gungraun_runner6runner9callgrind14summary_parserNtB5_13SummaryParserNtNtNtB9_4tool6parser6Parser12parse_single
FNDA:0,_RNvXs0_NtNtNtCs34FkZ5Aug64_15gungraun_runner6runner9callgrind14summary_parserNtB5_13SummaryParserNtNtNtB9_4tool6parser6Parser15get_output_path
FNDA:0,_RNvXs_NtNtNtCs34FkZ5Aug64_15gungraun_runner6runner9callgrind14summary_parserNtB4_13SummaryParserNtNtB6_6parser15CallgrindParser12parse_single
FNF:6
FNH:2
DA:41,6
DA:42,6
DA:43,6
DA:44,6
DA:45,6
DA:51,6
DA:52,6
DA:54,0
DA:57,6
DA:58,6
DA:59,6
DA:61,6
DA:62,6
DA:64,6
DA:65,3857
DA:66,3857
DA:67,4
DA:69,4
DA:70,4
DA:71,4
DA:73,4
DA:74,3853
DA:76,3857
DA:77,4
DA:79,4
DA:80,4
DA:81,4
DA:83,4
DA:84,4
DA:85,3853
DA:88,6
DA:89,5
DA:91,1
DA:92,1
DA:93,1
DA:94,1
DA:95,1
DA:97,6
DA:101,0
DA:102,0
DA:103,0
DA:104,0
DA:105,0
DA:106,0
DA:107,0
DA:108,0
DA:109,0
DA:110,0
DA:111,0
DA:112,0
DA:113,0
DA:114,0
DA:115,0
DA:117,0
DA:118,0
DA:119,0
BRF:0
BRH:0
LF:57
LH:37
end_of_record
SF:/fast/lenny/workspace/programming/gungraun/gungraun/gungraun-runner/src/runner/common.rs
FN:1818,_RNvXsd_NtNtCs5iQXrcGAeg9_15gungraun_runner6runner6commonNtNtCslNYArtu3iFV_5alloc6string6StringINtNtCsgEmfK2I1SDS_4core7convert4FromNtB5_10ModulePathE4from
FN:427,_RNvMNtNtCs5iQXrcGAeg9_15gungraun_runner6runner6commonNtB2_9Assistant11is_parallel
FN:488,_RNvMNtNtCs5iQXrcGAeg9_15gungraun_runner6runner6commonNtB2_9Assistant15executable_args
FN:432,_RNvMNtNtCs5iQXrcGAeg9_15gungraun_runner6runner6commonNtB2_9Assistant18new_main_assistant
FN:469,_RNvMNtNtCs5iQXrcGAeg9_15gungraun_runner6runner6commonNtB2_9Assistant19new_bench_assistant
FN:448,_RNvMNtNtCs5iQXrcGAeg9_15gungraun_runner6runner6commonNtB2_9Assistant19new_group_assistant
FN:515,_RNvMNtNtCs5iQXrcGAeg9_15gungraun_runner6runner6commonNtB2_9Assistant3run
FN:419,_RNvMNtNtCs5iQXrcGAeg9_15gungraun_runner6runner6commonNtB2_9Assistant4kind
FN:662,_RNvMs1_NtNtCs5iQXrcGAeg9_15gungraun_runner6runner6commonNtB5_7Benches14push_bin_bench
FN:654,_RNvMs1_NtNtCs5iQXrcGAeg9_15gungraun_runner6runner6commonNtB5_7Benches14push_lib_bench
FN:646,_RNvMs1_NtNtCs5iQXrcGAeg9_15gungraun_runner6runner6commonNtB5_7Benches3len
FN:670,_RNvMs1_NtNtCs5iQXrcGAeg9_15gungraun_runner6runner6commonNtB5_7Benches8is_empty
FN:680,_RNvMs2_NtNtCs5iQXrcGAeg9_15gungraun_runner6runner6commonNtB5_18BenchmarkSummaries11add_summary
FN:694,_RNvMs2_NtNtCs5iQXrcGAeg9_15gungraun_runner6runner6commonNtB5_18BenchmarkSummaries12is_regressed
FN:704,_RNvMs2_NtNtCs5iQXrcGAeg9_15gungraun_runner6runner6commonNtB5_18BenchmarkSummaries14num_benchmarks
FN:712,_RNvMs2_NtNtCs5iQXrcGAeg9_15gungraun_runner6runner6commonNtB5_18BenchmarkSummaries5print
FN:699,_RNvMs2_NtNtCs5iQXrcGAeg9_15gungraun_runner6runner6commonNtB5_18BenchmarkSummaries7elapsed
FN:687,_RNvMs2_NtNtCs5iQXrcGAeg9_15gungraun_runner6runner6commonNtB5_18BenchmarkSummaries9add_other
FN:741,_RNvMs3_NtNtCs5iQXrcGAeg9_15gungraun_runner6runner6commonNtB5_5Group17start_bin_benches
FN:791,_RNvMs3_NtNtCs5iQXrcGAeg9_15gungraun_runner6runner6commonNtB5_5Group17start_lib_benches
FN:852,_RNvMs3_NtNtCs5iQXrcGAeg9_15gungraun_runner6runner6commonNtB5_5Group3run
FN:721,_RNvMs3_NtNtCs5iQXrcGAeg9_15gungraun_runner6runner6commonNtB5_5Group4list
FN:1330,_RNvMs5_NtNtCs5iQXrcGAeg9_15gungraun_runner6runner6commonNtB5_6Groups12num_filtered
FN:1315,_RNvMs5_NtNtCs5iQXrcGAeg9_15gungraun_runner6runner6commonNtB5_6Groups14has_benchmarks
FN:1028,_RNvMs5_NtNtCs5iQXrcGAeg9_15gungraun_runner6runner6commonNtB5_6Groups21from_binary_benchmark
FN:1189,_RNvMs5_NtNtCs5iQXrcGAeg9_15gungraun_runner6runner6commonNtB5_6Groups22from_library_benchmark
FN:1339,_RNvMs5_NtNtCs5iQXrcGAeg9_15gungraun_runner6runner6commonNtB5_6Groups3run
FN:1320,_RNvMs5_NtNtCs5iQXrcGAeg9_15gungraun_runner6runner6commonNtB5_6Groups4list
FN:1429,_RNvMs7_NtNtCs5iQXrcGAeg9_15gungraun_runner6runner6commonNtB5_10ModulePath10components
FN:1392,_RNvMs7_NtNtCs5iQXrcGAeg9_15gungraun_runner6runner6commonNtB5_10ModulePath3new
FN:1398,_RNvMs7_NtNtCs5iQXrcGAeg9_15gungraun_runner6runner6commonNtB5_10ModulePath4join
FN:1417,_RNvMs7_NtNtCs5iQXrcGAeg9_15gungraun_runner6runner6commonNtB5_10ModulePath4last
FN:1409,_RNvMs7_NtNtCs5iQXrcGAeg9_15gungraun_runner6runner6commonNtB5_10ModulePath5first
FN:1404,_RNvMs7_NtNtCs5iQXrcGAeg9_15gungraun_runner6runner6commonNtB5_10ModulePath6as_str
FN:1422,_RNvMs7_NtNtCs5iQXrcGAeg9_15gungraun_runner6runner6commonNtB5_10ModulePath6parent
FN:1447,_RNvMs9_NtNtCs5iQXrcGAeg9_15gungraun_runner6runner6commonNtB5_6Runner12num_filtered
FN:1442,_RNvMs9_NtNtCs5iQXrcGAeg9_15gungraun_runner6runner6commonNtB5_6Runner14has_benchmarks
FN:1495,_RNvMs9_NtNtCs5iQXrcGAeg9_15gungraun_runner6runner6commonNtB5_6Runner21from_binary_benchmark
FN:1458,_RNvMs9_NtNtCs5iQXrcGAeg9_15gungraun_runner6runner6commonNtB5_6Runner22from_library_benchmark
FN:1526,_RNvMs9_NtNtCs5iQXrcGAeg9_15gungraun_runner6runner6commonNtB5_6Runner3run
FN:580,_RNvMs_NtNtCs5iQXrcGAeg9_15gungraun_runner6runner6commonNtB4_13AssistantKind2id
FN:1628,_RNvMsa_NtNtCs5iQXrcGAeg9_15gungraun_runner6runner6commonNtB5_7Sandbox4path
FN:1612,_RNvMsa_NtNtCs5iQXrcGAeg9_15gungraun_runner6runner6commonNtB5_7Sandbox5reset
FN:1573,_RNvMsa_NtNtCs5iQXrcGAeg9_15gungraun_runner6runner6commonNtB5_7Sandbox5setup
FN:1744,_RNvMsc_NtNtCs5iQXrcGAeg9_15gungraun_runner6runner6commonNtB5_14CapturedOutput10into_stdio
FN:1771,_RNvMsc_NtNtCs5iQXrcGAeg9_15gungraun_runner6runner6commonNtB5_14CapturedOutput11dump_cloned
FN:1789,_RNvMsc_NtNtCs5iQXrcGAeg9_15gungraun_runner6runner6commonNtB5_14CapturedOutput11dump_stderr
FN:1805,_RNvMsc_NtNtCs5iQXrcGAeg9_15gungraun_runner6runner6commonNtB5_14CapturedOutput11dump_stdout
FN:1703,_RNvMsc_NtNtCs5iQXrcGAeg9_15gungraun_runner6runner6commonNtB5_14CapturedOutput3new
FN:1754,_RNvMsc_NtNtCs5iQXrcGAeg9_15gungraun_runner6runner6commonNtB5_14CapturedOutput4dump
FN:1730,_RNvMsc_NtNtCs5iQXrcGAeg9_15gungraun_runner6runner6commonNtB5_14CapturedOutput5reset
FN:1714,_RNvMsc_NtNtCs5iQXrcGAeg9_15gungraun_runner6runner6commonNtB5_14CapturedOutput9try_clone
FN:608,_RNvXs0_NtNtCs5iQXrcGAeg9_15gungraun_runner6runner6commonNtB5_21BaselineDataProcessorNtB5_22BenchmarkDataProcessor14has_benchmarks
FN:612,_RNvXs0_NtNtCs5iQXrcGAeg9_15gungraun_runner6runner6commonNtB5_21BaselineDataProcessorNtB5_22BenchmarkDataProcessor20generate_flamegraphs
FN:590,_RNvXs0_NtNtCs5iQXrcGAeg9_15gungraun_runner6runner6commonNtB5_21BaselineDataProcessorNtB5_22BenchmarkDataProcessor8finalize
FN:639,_RNvXs0_NtNtCs5iQXrcGAeg9_15gungraun_runner6runner6commonNtB5_21BaselineDataProcessorNtB5_22BenchmarkDataProcessor9analyzers
FN:974,_RNvXs4_NtNtCs5iQXrcGAeg9_15gungraun_runner6runner6commonNtB5_25LoadBaselineDataProcessorNtB5_22BenchmarkDataProcessor14has_benchmarks
FN:982,_RNvXs4_NtNtCs5iQXrcGAeg9_15gungraun_runner6runner6commonNtB5_25LoadBaselineDataProcessorNtB5_22BenchmarkDataProcessor20generate_flamegraphs
FN:965,_RNvXs4_NtNtCs5iQXrcGAeg9_15gungraun_runner6runner6commonNtB5_25LoadBaselineDataProcessorNtB5_22BenchmarkDataProcessor8finalize
FN:978,_RNvXs4_NtNtCs5iQXrcGAeg9_15gungraun_runner6runner6commonNtB5_25LoadBaselineDataProcessorNtB5_22BenchmarkDataProcessor9analyzers
FN:1378,_RNvXs6_NtNtCs5iQXrcGAeg9_15gungraun_runner6runner6commonNtB5_11MaxParallelINtNtCsgEmfK2I1SDS_4core7convert4FromINtNtB1f_6option6OptionjEE4from
FN:1435,_RNvXs8_NtNtCs5iQXrcGAeg9_15gungraun_runner6runner6commonNtB5_10ModulePathNtNtCsgEmfK2I1SDS_4core3fmt7Display3fmt
FN:1661,_RNvXsb_NtNtCs5iQXrcGAeg9_15gungraun_runner6runner6commonNtB5_25SaveBaselineDataProcessorNtB5_22BenchmarkDataProcessor14has_benchmarks
FN:1669,_RNvXsb_NtNtCs5iQXrcGAeg9_15gungraun_runner6runner6commonNtB5_25SaveBaselineDataProcessorNtB5_22BenchmarkDataProcessor20generate_flamegraphs
FN:1634,_RNvXsb_NtNtCs5iQXrcGAeg9_15gungraun_runner6runner6commonNtB5_25SaveBaselineDataProcessorNtB5_22BenchmarkDataProcessor8finalize
FN:1665,_RNvXsb_NtNtCs5iQXrcGAeg9_15gungraun_runner6runner6commonNtB5_25SaveBaselineDataProcessorNtB5_22BenchmarkDataProcessor9analyzers
FN:1778,_RNCNCNvMsc_NtNtCs5iQXrcGAeg9_15gungraun_runner6runner6commonNtB9_14CapturedOutput11dump_cloned00Bd_
FN:1705,_RNCNCNvMsc_NtNtCs5iQXrcGAeg9_15gungraun_runner6runner6commonNtB9_14CapturedOutput3new00Bd_
FN:1760,_RNCNCNvMsc_NtNtCs5iQXrcGAeg9_15gungraun_runner6runner6commonNtB9_14CapturedOutput4dump00Bd_
FN:1720,_RNCNCNvMsc_NtNtCs5iQXrcGAeg9_15gungraun_runner6runner6commonNtB9_14CapturedOutput9try_clone00Bd_
FN:554,_RNCNvMNtNtCs5iQXrcGAeg9_15gungraun_runner6runner6commonNtB4_9Assistant3run0B8_
FN:562,_RNCNvMNtNtCs5iQXrcGAeg9_15gungraun_runner6runner6commonNtB4_9Assistant3runs0_0B8_
FN:561,_RNCNvMNtNtCs5iQXrcGAeg9_15gungraun_runner6runner6commonNtB4_9Assistant3runs_0B8_
FN:688,_RNCNvMs2_NtNtCs5iQXrcGAeg9_15gungraun_runner6runner6commonNtB7_18BenchmarkSummaries9add_other0Bb_
FN:757,_RNCNvMs3_NtNtCs5iQXrcGAeg9_15gungraun_runner6runner6commonNtB7_5Group17start_bin_benches0Bb_
FN:808,_RNCNvMs3_NtNtCs5iQXrcGAeg9_15gungraun_runner6runner6commonNtB7_5Group17start_lib_benches0Bb_
FN:909,_RNCNvMs3_NtNtCs5iQXrcGAeg9_15gungraun_runner6runner6commonNtB7_5Group3run0Bb_
FN:923,_RNCNvMs3_NtNtCs5iQXrcGAeg9_15gungraun_runner6runner6commonNtB7_5Group3runs0_0Bb_
FN:931,_RNCNvMs3_NtNtCs5iQXrcGAeg9_15gungraun_runner6runner6commonNtB7_5Group3runs1_0Bb_
FN:910,_RNCNvMs3_NtNtCs5iQXrcGAeg9_15gungraun_runner6runner6commonNtB7_5Group3runs_0Bb_
FN:1331,_RNCNvMs5_NtNtCs5iQXrcGAeg9_15gungraun_runner6runner6commonNtB7_6Groups12num_filtered0Bb_
FN:1316,_RNCNvMs5_NtNtCs5iQXrcGAeg9_15gungraun_runner6runner6commonNtB7_6Groups14has_benchmarks0Bb_
FN:1418,_RNCNvMs7_NtNtCs5iQXrcGAeg9_15gungraun_runner6runner6commonNtB7_10ModulePath4last0Bb_
FN:1412,_RNCNvMs7_NtNtCs5iQXrcGAeg9_15gungraun_runner6runner6commonNtB7_10ModulePath5first0Bb_
FN:1413,_RNCNvMs7_NtNtCs5iQXrcGAeg9_15gungraun_runner6runner6commonNtB7_10ModulePath5firsts_0Bb_
FN:1425,_RNCNvMs7_NtNtCs5iQXrcGAeg9_15gungraun_runner6runner6commonNtB7_10ModulePath6parent0Bb_
FN:1579,_RNCNvMsa_NtNtCs5iQXrcGAeg9_15gungraun_runner6runner6commonNtB7_7Sandbox5setup0Bb_
FN:1586,_RNCNvMsa_NtNtCs5iQXrcGAeg9_15gungraun_runner6runner6commonNtB7_7Sandbox5setups_0Bb_
FN:1746,_RNCNvMsc_NtNtCs5iQXrcGAeg9_15gungraun_runner6runner6commonNtB7_14CapturedOutput10into_stdio0Bb_
FN:1773,_RNCNvMsc_NtNtCs5iQXrcGAeg9_15gungraun_runner6runner6commonNtB7_14CapturedOutput11dump_cloned0Bb_
FN:1792,_RNCNvMsc_NtNtCs5iQXrcGAeg9_15gungraun_runner6runner6commonNtB7_14CapturedOutput11dump_stderr0Bb_
FN:1793,_RNCNvMsc_NtNtCs5iQXrcGAeg9_15gungraun_runner6runner6commonNtB7_14CapturedOutput11dump_stderrs_0Bb_
FN:1808,_RNCNvMsc_NtNtCs5iQXrcGAeg9_15gungraun_runner6runner6commonNtB7_14CapturedOutput11dump_stdout0Bb_
FN:1809,_RNCNvMsc_NtNtCs5iQXrcGAeg9_15gungraun_runner6runner6commonNtB7_14CapturedOutput11dump_stdouts_0Bb_
FN:1705,_RNCNvMsc_NtNtCs5iQXrcGAeg9_15gungraun_runner6runner6commonNtB7_14CapturedOutput3new0Bb_
FN:1755,_RNCNvMsc_NtNtCs5iQXrcGAeg9_15gungraun_runner6runner6commonNtB7_14CapturedOutput4dump0Bb_
FN:1733,_RNCNvMsc_NtNtCs5iQXrcGAeg9_15gungraun_runner6runner6commonNtB7_14CapturedOutput5reset0Bb_
FN:1735,_RNCNvMsc_NtNtCs5iQXrcGAeg9_15gungraun_runner6runner6commonNtB7_14CapturedOutput5resets0_0Bb_
FN:1734,_RNCNvMsc_NtNtCs5iQXrcGAeg9_15gungraun_runner6runner6commonNtB7_14CapturedOutput5resets_0Bb_
FN:1717,_RNCNvMsc_NtNtCs5iQXrcGAeg9_15gungraun_runner6runner6commonNtB7_14CapturedOutput9try_clone0Bb_
FN:601,_RNCNvXs0_NtNtCs5iQXrcGAeg9_15gungraun_runner6runner6commonNtB7_21BaselineDataProcessorNtB7_22BenchmarkDataProcessor8finalize0Bb_
FN:603,_RNCNvXs0_NtNtCs5iQXrcGAeg9_15gungraun_runner6runner6commonNtB7_21BaselineDataProcessorNtB7_22BenchmarkDataProcessor8finalizes0_0Bb_
FN:604,_RNCNvXs0_NtNtCs5iQXrcGAeg9_15gungraun_runner6runner6commonNtB7_21BaselineDataProcessorNtB7_22BenchmarkDataProcessor8finalizes1_0Bb_
FN:605,_RNCNvXs0_NtNtCs5iQXrcGAeg9_15gungraun_runner6runner6commonNtB7_21BaselineDataProcessorNtB7_22BenchmarkDataProcessor8finalizes2_0Bb_
FN:602,_RNCNvXs0_NtNtCs5iQXrcGAeg9_15gungraun_runner6runner6commonNtB7_21BaselineDataProcessorNtB7_22BenchmarkDataProcessor8finalizes_0Bb_
FN:1649,_RNCNvXsb_NtNtCs5iQXrcGAeg9_15gungraun_runner6runner6commonNtB7_25SaveBaselineDataProcessorNtB7_22BenchmarkDataProcessor8finalize0Bb_
FN:1654,_RNCNvXsb_NtNtCs5iQXrcGAeg9_15gungraun_runner6runner6commonNtB7_25SaveBaselineDataProcessorNtB7_22BenchmarkDataProcessor8finalizes0_0Bb_
FN:1655,_RNCNvXsb_NtNtCs5iQXrcGAeg9_15gungraun_runner6runner6commonNtB7_25SaveBaselineDataProcessorNtB7_22BenchmarkDataProcessor8finalizes1_0Bb_
FN:1656,_RNCNvXsb_NtNtCs5iQXrcGAeg9_15gungraun_runner6runner6commonNtB7_25SaveBaselineDataProcessorNtB7_22BenchmarkDataProcessor8finalizes2_0Bb_
FN:1657,_RNCNvXsb_NtNtCs5iQXrcGAeg9_15gungraun_runner6runner6commonNtB7_25SaveBaselineDataProcessorNtB7_22BenchmarkDataProcessor8finalizes3_0Bb_
FN:1653,_RNCNvXsb_NtNtCs5iQXrcGAeg9_15gungraun_runner6runner6commonNtB7_25SaveBaselineDataProcessorNtB7_22BenchmarkDataProcessor8finalizes_0Bb_
FN:368,_RNCNvYNtNtNtCs5iQXrcGAeg9_15gungraun_runner6runner6common21BaselineDataProcessorNtB6_22BenchmarkDataProcessor14remove_summary0Ba_
FN:246,_RNCNvYNtNtNtCs5iQXrcGAeg9_15gungraun_runner6runner6common21BaselineDataProcessorNtB6_22BenchmarkDataProcessor26create_benchmark_directory0Ba_
FN:323,_RNCNvYNtNtNtCs5iQXrcGAeg9_15gungraun_runner6runner6common21BaselineDataProcessorNtB6_22BenchmarkDataProcessor5parse0Ba_
FN:386,_RNCNvYNtNtNtCs5iQXrcGAeg9_15gungraun_runner6runner6common21BaselineDataProcessorNtB6_22BenchmarkDataProcessor8sanitize0Ba_
FN:235,_RNCNvYNtNtNtCs5iQXrcGAeg9_15gungraun_runner6runner6common21BaselineDataProcessorNtB6_22BenchmarkDataProcessor9copy_temp0Ba_
FN:289,_RNCNvYNtNtNtCs5iQXrcGAeg9_15gungraun_runner6runner6common21BaselineDataProcessorNtB6_22BenchmarkDataProcessor9move_temp0Ba_
FN:368,_RNCNvYNtNtNtCs5iQXrcGAeg9_15gungraun_runner6runner6common25LoadBaselineDataProcessorNtB6_22BenchmarkDataProcessor14remove_summary0Ba_
FN:246,_RNCNvYNtNtNtCs5iQXrcGAeg9_15gungraun_runner6runner6common25LoadBaselineDataProcessorNtB6_22BenchmarkDataProcessor26create_benchmark_directory0Ba_
FN:323,_RNCNvYNtNtNtCs5iQXrcGAeg9_15gungraun_runner6runner6common25LoadBaselineDataProcessorNtB6_22BenchmarkDataProcessor5parse0Ba_
FN:386,_RNCNvYNtNtNtCs5iQXrcGAeg9_15gungraun_runner6runner6common25LoadBaselineDataProcessorNtB6_22BenchmarkDataProcessor8sanitize0Ba_
FN:235,_RNCNvYNtNtNtCs5iQXrcGAeg9_15gungraun_runner6runner6common25LoadBaselineDataProcessorNtB6_22BenchmarkDataProcessor9copy_temp0Ba_
FN:289,_RNCNvYNtNtNtCs5iQXrcGAeg9_15gungraun_runner6runner6common25LoadBaselineDataProcessorNtB6_22BenchmarkDataProcessor9move_temp0Ba_
FN:368,_RNCNvYNtNtNtCs5iQXrcGAeg9_15gungraun_runner6runner6common25SaveBaselineDataProcessorNtB6_22BenchmarkDataProcessor14remove_summary0Ba_
FN:246,_RNCNvYNtNtNtCs5iQXrcGAeg9_15gungraun_runner6runner6common25SaveBaselineDataProcessorNtB6_22BenchmarkDataProcessor26create_benchmark_directory0Ba_
FN:323,_RNCNvYNtNtNtCs5iQXrcGAeg9_15gungraun_runner6runner6common25SaveBaselineDataProcessorNtB6_22BenchmarkDataProcessor5parse0Ba_
FN:386,_RNCNvYNtNtNtCs5iQXrcGAeg9_15gungraun_runner6runner6common25SaveBaselineDataProcessorNtB6_22BenchmarkDataProcessor8sanitize0Ba_
FN:235,_RNCNvYNtNtNtCs5iQXrcGAeg9_15gungraun_runner6runner6common25SaveBaselineDataProcessorNtB6_22BenchmarkDataProcessor9copy_temp0Ba_
FN:289,_RNCNvYNtNtNtCs5iQXrcGAeg9_15gungraun_runner6runner6common25SaveBaselineDataProcessorNtB6_22BenchmarkDataProcessor9move_temp0Ba_
FN:367,_RNvYNtNtNtCs5iQXrcGAeg9_15gungraun_runner6runner6common21BaselineDataProcessorNtB4_22BenchmarkDataProcessor14remove_summaryB8_
FN:243,_RNvYNtNtNtCs5iQXrcGAeg9_15gungraun_runner6runner6common21BaselineDataProcessorNtB4_22BenchmarkDataProcessor26create_benchmark_directoryB8_
FN:302,_RNvYNtNtNtCs5iQXrcGAeg9_15gungraun_runner6runner6common21BaselineDataProcessorNtB4_22BenchmarkDataProcessor5parseB8_
FN:396,_RNvYNtNtNtCs5iQXrcGAeg9_15gungraun_runner6runner6common21BaselineDataProcessorNtB4_22BenchmarkDataProcessor5shiftB8_
FN:383,_RNvYNtNtNtCs5iQXrcGAeg9_15gungraun_runner6runner6common21BaselineDataProcessorNtB4_22BenchmarkDataProcessor8sanitizeB8_
FN:232,_RNvYNtNtNtCs5iQXrcGAeg9_15gungraun_runner6runner6common21BaselineDataProcessorNtB4_22BenchmarkDataProcessor9copy_tempB8_
FN:286,_RNvYNtNtNtCs5iQXrcGAeg9_15gungraun_runner6runner6common21BaselineDataProcessorNtB4_22BenchmarkDataProcessor9move_tempB8_
FN:367,_RNvYNtNtNtCs5iQXrcGAeg9_15gungraun_runner6runner6common25LoadBaselineDataProcessorNtB4_22BenchmarkDataProcessor14remove_summaryB8_
FN:243,_RNvYNtNtNtCs5iQXrcGAeg9_15gungraun_runner6runner6common25LoadBaselineDataProcessorNtB4_22BenchmarkDataProcessor26create_benchmark_directoryB8_
FN:302,_RNvYNtNtNtCs5iQXrcGAeg9_15gungraun_runner6runner6common25LoadBaselineDataProcessorNtB4_22BenchmarkDataProcessor5parseB8_
FN:396,_RNvYNtNtNtCs5iQXrcGAeg9_15gungraun_runner6runner6common25LoadBaselineDataProcessorNtB4_22BenchmarkDataProcessor5shiftB8_
FN:383,_RNvYNtNtNtCs5iQXrcGAeg9_15gungraun_runner6runner6common25LoadBaselineDataProcessorNtB4_22BenchmarkDataProcessor8sanitizeB8_
FN:232,_RNvYNtNtNtCs5iQXrcGAeg9_15gungraun_runner6runner6common25LoadBaselineDataProcessorNtB4_22BenchmarkDataProcessor9copy_tempB8_
FN:286,_RNvYNtNtNtCs5iQXrcGAeg9_15gungraun_runner6runner6common25LoadBaselineDataProcessorNtB4_22BenchmarkDataProcessor9move_tempB8_
FN:367,_RNvYNtNtNtCs5iQXrcGAeg9_15gungraun_runner6runner6common25SaveBaselineDataProcessorNtB4_22BenchmarkDataProcessor14remove_summaryB8_
FN:243,_RNvYNtNtNtCs5iQXrcGAeg9_15gungraun_runner6runner6common25SaveBaselineDataProcessorNtB4_22BenchmarkDataProcessor26create_benchmark_directoryB8_
FN:302,_RNvYNtNtNtCs5iQXrcGAeg9_15gungraun_runner6runner6common25SaveBaselineDataProcessorNtB4_22BenchmarkDataProcessor5parseB8_
FN:396,_RNvYNtNtNtCs5iQXrcGAeg9_15gungraun_runner6runner6common25SaveBaselineDataProcessorNtB4_22BenchmarkDataProcessor5shiftB8_
FN:383,_RNvYNtNtNtCs5iQXrcGAeg9_15gungraun_runner6runner6common25SaveBaselineDataProcessorNtB4_22BenchmarkDataProcessor8sanitizeB8_
FN:232,_RNvYNtNtNtCs5iQXrcGAeg9_15gungraun_runner6runner6common25SaveBaselineDataProcessorNtB4_22BenchmarkDataProcessor9copy_tempB8_
FN:286,_RNvYNtNtNtCs5iQXrcGAeg9_15gungraun_runner6runner6common25SaveBaselineDataProcessorNtB4_22BenchmarkDataProcessor9move_tempB8_
FN:1705,_RNCNCNvMsc_NtNtCs34FkZ5Aug64_15gungraun_runner6runner6commonNtB9_14CapturedOutput3new00Bd_
FN:1760,_RNCNCNvMsc_NtNtCs34FkZ5Aug64_15gungraun_runner6runner6commonNtB9_14CapturedOutput4dump00Bd_
FN:554,_RNCNvMNtNtCs34FkZ5Aug64_15gungraun_runner6runner6commonNtB4_9Assistant3run0B8_
FN:562,_RNCNvMNtNtCs34FkZ5Aug64_15gungraun_runner6runner6commonNtB4_9Assistant3runs0_0B8_
FN:561,_RNCNvMNtNtCs34FkZ5Aug64_15gungraun_runner6runner6commonNtB4_9Assistant3runs_0B8_
FN:688,_RNCNvMs2_NtNtCs34FkZ5Aug64_15gungraun_runner6runner6commonNtB7_18BenchmarkSummaries9add_other0Bb_
FN:757,_RNCNvMs3_NtNtCs34FkZ5Aug64_15gungraun_runner6runner6commonNtB7_5Group17start_bin_benches0Bb_
FN:808,_RNCNvMs3_NtNtCs34FkZ5Aug64_15gungraun_runner6runner6commonNtB7_5Group17start_lib_benches0Bb_
FN:909,_RNCNvMs3_NtNtCs34FkZ5Aug64_15gungraun_runner6runner6commonNtB7_5Group3run0Bb_
FN:923,_RNCNvMs3_NtNtCs34FkZ5Aug64_15gungraun_runner6runner6commonNtB7_5Group3runs0_0Bb_
FN:931,_RNCNvMs3_NtNtCs34FkZ5Aug64_15gungraun_runner6runner6commonNtB7_5Group3runs1_0Bb_
FN:910,_RNCNvMs3_NtNtCs34FkZ5Aug64_15gungraun_runner6runner6commonNtB7_5Group3runs_0Bb_
FN:1331,_RNCNvMs5_NtNtCs34FkZ5Aug64_15gungraun_runner6runner6commonNtB7_6Groups12num_filtered0Bb_
FN:1316,_RNCNvMs5_NtNtCs34FkZ5Aug64_15gungraun_runner6runner6commonNtB7_6Groups14has_benchmarks0Bb_
FN:1418,_RNCNvMs7_NtNtCs34FkZ5Aug64_15gungraun_runner6runner6commonNtB7_10ModulePath4last0Bb_
FN:1425,_RNCNvMs7_NtNtCs34FkZ5Aug64_15gungraun_runner6runner6commonNtB7_10ModulePath6parent0Bb_
FN:1579,_RNCNvMsa_NtNtCs34FkZ5Aug64_15gungraun_runner6runner6commonNtB7_7Sandbox5setup0Bb_
FN:1586,_RNCNvMsa_NtNtCs34FkZ5Aug64_15gungraun_runner6runner6commonNtB7_7Sandbox5setups_0Bb_
FN:1746,_RNCNvMsc_NtNtCs34FkZ5Aug64_15gungraun_runner6runner6commonNtB7_14CapturedOutput10into_stdio0Bb_
FN:1792,_RNCNvMsc_NtNtCs34FkZ5Aug64_15gungraun_runner6runner6commonNtB7_14CapturedOutput11dump_stderr0Bb_
FN:1793,_RNCNvMsc_NtNtCs34FkZ5Aug64_15gungraun_runner6runner6commonNtB7_14CapturedOutput11dump_stderrs_0Bb_
FN:1808,_RNCNvMsc_NtNtCs34FkZ5Aug64_15gungraun_runner6runner6commonNtB7_14CapturedOutput11dump_stdout0Bb_
FN:1809,_RNCNvMsc_NtNtCs34FkZ5Aug64_15gungraun_runner6runner6commonNtB7_14CapturedOutput11dump_stdouts_0Bb_
FN:1705,_RNCNvMsc_NtNtCs34FkZ5Aug64_15gungraun_runner6runner6commonNtB7_14CapturedOutput3new0Bb_
FN:1755,_RNCNvMsc_NtNtCs34FkZ5Aug64_15gungraun_runner6runner6commonNtB7_14CapturedOutput4dump0Bb_
FN:601,_RNCNvXs0_NtNtCs34FkZ5Aug64_15gungraun_runner6runner6commonNtB7_21BaselineDataProcessorNtB7_22BenchmarkDataProcessor8finalize0Bb_
FN:603,_RNCNvXs0_NtNtCs34FkZ5Aug64_15gungraun_runner6runner6commonNtB7_21BaselineDataProcessorNtB7_22BenchmarkDataProcessor8finalizes0_0Bb_
FN:604,_RNCNvXs0_NtNtCs34FkZ5Aug64_15gungraun_runner6runner6commonNtB7_21BaselineDataProcessorNtB7_22BenchmarkDataProcessor8finalizes1_0Bb_
FN:605,_RNCNvXs0_NtNtCs34FkZ5Aug64_15gungraun_runner6runner6commonNtB7_21BaselineDataProcessorNtB7_22BenchmarkDataProcessor8finalizes2_0Bb_
FN:602,_RNCNvXs0_NtNtCs34FkZ5Aug64_15gungraun_runner6runner6commonNtB7_21BaselineDataProcessorNtB7_22BenchmarkDataProcessor8finalizes_0Bb_
FN:1649,_RNCNvXsb_NtNtCs34FkZ5Aug64_15gungraun_runner6runner6commonNtB7_25SaveBaselineDataProcessorNtB7_22BenchmarkDataProcessor8finalize0Bb_
FN:1654,_RNCNvXsb_NtNtCs34FkZ5Aug64_15gungraun_runner6runner6commonNtB7_25SaveBaselineDataProcessorNtB7_22BenchmarkDataProcessor8finalizes0_0Bb_
FN:1655,_RNCNvXsb_NtNtCs34FkZ5Aug64_15gungraun_runner6runner6commonNtB7_25SaveBaselineDataProcessorNtB7_22BenchmarkDataProcessor8finalizes1_0Bb_
FN:1656,_RNCNvXsb_NtNtCs34FkZ5Aug64_15gungraun_runner6runner6commonNtB7_25SaveBaselineDataProcessorNtB7_22BenchmarkDataProcessor8finalizes2_0Bb_
FN:1657,_RNCNvXsb_NtNtCs34FkZ5Aug64_15gungraun_runner6runner6commonNtB7_25SaveBaselineDataProcessorNtB7_22BenchmarkDataProcessor8finalizes3_0Bb_
FN:1653,_RNCNvXsb_NtNtCs34FkZ5Aug64_15gungraun_runner6runner6commonNtB7_25SaveBaselineDataProcessorNtB7_22BenchmarkDataProcessor8finalizes_0Bb_
FN:368,_RNCNvYpNtNtNtCs34FkZ5Aug64_15gungraun_runner6runner6common22BenchmarkDataProcessor14remove_summary0Bb_
FN:246,_RNCNvYpNtNtNtCs34FkZ5Aug64_15gungraun_runner6runner6common22BenchmarkDataProcessor26create_benchmark_directory0Bb_
FN:323,_RNCNvYpNtNtNtCs34FkZ5Aug64_15gungraun_runner6runner6common22BenchmarkDataProcessor5parse0Bb_
FN:386,_RNCNvYpNtNtNtCs34FkZ5Aug64_15gungraun_runner6runner6common22BenchmarkDataProcessor8sanitize0Bb_
FN:235,_RNCNvYpNtNtNtCs34FkZ5Aug64_15gungraun_runner6runner6common22BenchmarkDataProcessor9copy_temp0Bb_
FN:289,_RNCNvYpNtNtNtCs34FkZ5Aug64_15gungraun_runner6runner6common22BenchmarkDataProcessor9move_temp0Bb_
FN:427,_RNvMNtNtCs34FkZ5Aug64_15gungraun_runner6runner6commonNtB2_9Assistant11is_parallel
FN:488,_RNvMNtNtCs34FkZ5Aug64_15gungraun_runner6runner6commonNtB2_9Assistant15executable_args
FN:432,_RNvMNtNtCs34FkZ5Aug64_15gungraun_runner6runner6commonNtB2_9Assistant18new_main_assistant
FN:469,_RNvMNtNtCs34FkZ5Aug64_15gungraun_runner6runner6commonNtB2_9Assistant19new_bench_assistant
FN:448,_RNvMNtNtCs34FkZ5Aug64_15gungraun_runner6runner6commonNtB2_9Assistant19new_group_assistant
FN:515,_RNvMNtNtCs34FkZ5Aug64_15gungraun_runner6runner6commonNtB2_9Assistant3run
FN:419,_RNvMNtNtCs34FkZ5Aug64_15gungraun_runner6runner6commonNtB2_9Assistant4kind
FN:662,_RNvMs1_NtNtCs34FkZ5Aug64_15gungraun_runner6runner6commonNtB5_7Benches14push_bin_bench
FN:654,_RNvMs1_NtNtCs34FkZ5Aug64_15gungraun_runner6runner6commonNtB5_7Benches14push_lib_bench
FN:646,_RNvMs1_NtNtCs34FkZ5Aug64_15gungraun_runner6runner6commonNtB5_7Benches3len
FN:670,_RNvMs1_NtNtCs34FkZ5Aug64_15gungraun_runner6runner6commonNtB5_7Benches8is_empty
FN:680,_RNvMs2_NtNtCs34FkZ5Aug64_15gungraun_runner6runner6commonNtB5_18BenchmarkSummaries11add_summary
FN:694,_RNvMs2_NtNtCs34FkZ5Aug64_15gungraun_runner6runner6commonNtB5_18BenchmarkSummaries12is_regressed
FN:704,_RNvMs2_NtNtCs34FkZ5Aug64_15gungraun_runner6runner6commonNtB5_18BenchmarkSummaries14num_benchmarks
FN:712,_RNvMs2_NtNtCs34FkZ5Aug64_15gungraun_runner6runner6commonNtB5_18BenchmarkSummaries5print
FN:699,_RNvMs2_NtNtCs34FkZ5Aug64_15gungraun_runner6runner6commonNtB5_18BenchmarkSummaries7elapsed
FN:687,_RNvMs2_NtNtCs34FkZ5Aug64_15gungraun_runner6runner6commonNtB5_18BenchmarkSummaries9add_other
