SF:/fast/lenny/workspace/programming/gungraun/gungraun/benchmark-tests/src/assert.rs
FN:78,_RNCNvMNtCs3Sh0jWajYhY_15benchmark_tests6assertNtB4_6Assert7summary0B6_
FN:99,_RNvMNtCs3Sh0jWajYhY_15benchmark_tests6assertNtB2_6Assert13callgrind_map
FN:28,_RNvMNtCs3Sh0jWajYhY_15benchmark_tests6assertNtB2_6Assert3new
FN:74,_RNvMNtCs3Sh0jWajYhY_15benchmark_tests6assertNtB2_6Assert7summary
FN:78,_RNCNvMNtCsgE96Xjj5vmo_15benchmark_tests6assertNtB4_6Assert7summary0B6_
FN:99,_RNvMNtCsgE96Xjj5vmo_15benchmark_tests6assertNtB2_6Assert13callgrind_map
FN:28,_RNvMNtCsgE96Xjj5vmo_15benchmark_tests6assertNtB2_6Assert3new
FN:74,_RNvMNtCsgE96Xjj5vmo_15benchmark_tests6assertNtB2_6Assert7summary
FN:78,_RNCNvMNtCsjjTVGzuT1qt_15benchmark_tests6assertNtB4_6Assert7summary0B6_
FN:99,_RNvMNtCsjjTVGzuT1qt_15benchmark_tests6assertNtB2_6Assert13callgrind_map
FN:28,_RNvMNtCsjjTVGzuT1qt_15benchmark_tests6assertNtB2_6Assert3new
FN:74,_RNvMNtCsjjTVGzuT1qt_15benchmark_tests6assertNtB2_6Assert7summary
FNDA:0,_RNCNvMNtCs3Sh0jWajYhY_15benchmark_tests6assertNtB4_6Assert7summary0B6_
FNDA:4,_RNvMNtCs3Sh0jWajYhY_15benchmark_tests6assertNtB2_6Assert13callgrind_map
FNDA:6,_RNvMNtCs3Sh0jWajYhY_15benchmark_tests6assertNtB2_6Assert3new
FNDA:6,_RNvMNtCs3Sh0jWajYhY_15benchmark_tests6assertNtB2_6Assert7summary
FNDA:0,_RNCNvMNtCsgE96Xjj5vmo_15benchmark_tests6assertNtB4_6Assert7summary0B6_
FNDA:0,_RNvMNtCsgE96Xjj5vmo_15benchmark_tests6assertNtB2_6Assert13callgrind_map
FNDA:0,_RNvMNtCsgE96Xjj5vmo_15benchmark_tests6assertNtB2_6Assert3new
FNDA:0,_RNvMNtCsgE96Xjj5vmo_15benchmark_tests6assertNtB2_6Assert7summary
FNDA:0,_RNCNvMNtCsjjTVGzuT1qt_15benchmark_tests6assertNtB4_6Assert7summary0B6_
FNDA:0,_RNvMNtCsjjTVGzuT1qt_15benchmark_tests6assertNtB2_6Assert13callgrind_map
FNDA:0,_RNvMNtCsjjTVGzuT1qt_15benchmark_tests6assertNtB2_6Assert3new
FNDA:0,_RNvMNtCsjjTVGzuT1qt_15benchmark_tests6assertNtB2_6Assert7summary
FNF:4
FNH:3
DA:28,6
DA:29,6
DA:30,6
DA:32,6
DA:33,6
DA:34,6
DA:35,6
DA:36,6
DA:37,6
DA:39,6
DA:41,6
DA:43,6
DA:44,0
DA:46,0
DA:48,6
DA:50,6
DA:52,6
DA:53,6
DA:54,6
DA:55,6
DA:56,6
DA:57,6
DA:58,6
DA:59,6
DA:60,6
DA:61,6
DA:62,6
DA:63,6
DA:74,6
DA:75,6
DA:76,6
DA:77,6
DA:78,6
DA:79,0
DA:81,6
DA:83,6
DA:84,6
DA:99,4
DA:100,4
DA:101,4
DA:102,4
DA:103,4
DA:105,4
DA:106,4
DA:107,4
DA:108,4
DA:109,4
DA:110,4
DA:111,4
DA:112,4
DA:113,4
DA:114,4
DA:115,4
DA:116,4
DA:118,4
DA:120,4
DA:121,4
DA:122,4
DA:123,4
DA:125,4
DA:127,4
DA:128,4
BRF:0
BRH:0
LF:63
LH:59
end_of_record
SF:/fast/lenny/workspace/programming/gungraun/gungraun/benchmark-tests/src/bench.rs
FN:1604,_RINvCshbbKNLWs3nU_5bench10print_infoNtNtCslNYArtu3iFV_5alloc6string6StringEB2_
FN:1604,_RINvCshbbKNLWs3nU_5bench10print_infoReEB2_
FN:1592,_RINvCshbbKNLWs3nU_5bench11print_errorNtNtCslNYArtu3iFV_5alloc6string6StringEB2_
FN:701,_RNCNCNvMCshbbKNLWs3nU_5benchNtB6_9Benchmark3runs0_00B6_
FN:710,_RNCNCNvMCshbbKNLWs3nU_5benchNtB6_9Benchmark3runs0_0s_0B6_
FN:103,_RNCNvCshbbKNLWs3nU_5bench10COMMAND_RE0B3_
FN:110,_RNCNvCshbbKNLWs3nU_5bench10DETAILS_RE0B3_
FN:45,_RNCNvCshbbKNLWs3nU_5bench10NUMBERS_RE0B3_
FN:60,_RNCNvCshbbKNLWs3nU_5bench10RUNNING_RE0B3_
FN:112,_RNCNvCshbbKNLWs3nU_5bench14NOT_DETAILS_RE0B3_
FN:58,_RNCNvCshbbKNLWs3nU_5bench15NUMBERS_DIFF_RE0B3_
FN:121,_RNCNvCshbbKNLWs3nU_5bench15SUMMARY_LINE_RE0B3_
FN:124,_RNCNvCshbbKNLWs3nU_5bench15THREAD_PANICKED0B3_
FN:118,_RNCNvCshbbKNLWs3nU_5bench16ABSOLUTE_PATH_RE0B3_
FN:114,_RNCNvCshbbKNLWs3nU_5bench18FRAGMENT_HEADER_RE0B3_
FN:78,_RNCNvCshbbKNLWs3nU_5bench18REGRESSION_HARD_RE0B3_
FN:67,_RNCNvCshbbKNLWs3nU_5bench18REGRESSION_SOFT_RE0B3_
FN:95,_RNCNvCshbbKNLWs3nU_5bench26SUMMARY_REGRESSION_HARD_RE0B3_
FN:87,_RNCNvCshbbKNLWs3nU_5bench26SUMMARY_REGRESSION_SOFT_RE0B3_
FN:132,_RNCNvCshbbKNLWs3nU_5bench27ABSOLUTE_PATH_APOSTROPHE_RE0B3_
FN:61,_RNCNvCshbbKNLWs3nU_5bench36PROCESS_DID_NOT_EXIT_SUCCESSFULLY_RE0B3_
FN:108,_RNCNvCshbbKNLWs3nU_5bench6PID_RE0B3_
FN:466,_RNCNvMCshbbKNLWs3nU_5benchNtB4_9Benchmark3new0B4_
FN:680,_RNCNvMCshbbKNLWs3nU_5benchNtB4_9Benchmark3run0B4_
FN:700,_RNCNvMCshbbKNLWs3nU_5benchNtB4_9Benchmark3runs0_0B4_
FN:726,_RNCNvMCshbbKNLWs3nU_5benchNtB4_9Benchmark3runs1_0B4_
FN:742,_RNCNvMCshbbKNLWs3nU_5benchNtB4_9Benchmark3runs2_0B4_
FN:772,_RNCNvMCshbbKNLWs3nU_5benchNtB4_9Benchmark3runs3_0B4_
FN:689,_RNCNvMCshbbKNLWs3nU_5benchNtB4_9Benchmark3runs_0B4_
FN:1318,_RNCNvMs1_CshbbKNLWs3nU_5benchNtB7_11ExpectedRun6assert0B7_
FN:1478,_RNCNvMs2_CshbbKNLWs3nU_5benchNtB7_8Metadata20compare_rust_version0B7_
FN:1413,_RNCNvMs2_CshbbKNLWs3nU_5benchNtB7_8Metadata3new0B7_
FN:1433,_RNCNvMs2_CshbbKNLWs3nU_5benchNtB7_8Metadata3news1_0B7_
FN:1448,_RNCNvMs2_CshbbKNLWs3nU_5benchNtB7_8Metadata3news2_0B7_
FN:1449,_RNCNvMs2_CshbbKNLWs3nU_5benchNtB7_8Metadata3news3_0B7_
FN:1459,_RNCNvMs2_CshbbKNLWs3nU_5benchNtB7_8Metadata3news4_0B7_
FN:1469,_RNCNvMs2_CshbbKNLWs3nU_5benchNtB7_8Metadata3news5_0B7_
FN:1523,_RNCNvMs3_CshbbKNLWs3nU_5benchNtB7_9RunConfig6assert0B7_
FN:1566,_RNCNvMs3_CshbbKNLWs3nU_5benchNtB7_9RunConfig6asserts0_0B7_
FN:1543,_RNCNvMs3_CshbbKNLWs3nU_5benchNtB7_9RunConfig6asserts_0B7_
FN:1170,_RNCNvMs_CshbbKNLWs3nU_5benchNtB6_15BenchmarkOutput13filter_stdout0B6_
FN:1175,_RNCNvMs_CshbbKNLWs3nU_5benchNtB6_15BenchmarkOutput13filter_stdouts_0B6_
FN:841,_RNCNvMs_CshbbKNLWs3nU_5benchNtB6_15BenchmarkOutput6assert0B6_
FN:886,_RNCNvMs_CshbbKNLWs3nU_5benchNtB6_15BenchmarkOutput6asserts_0B6_
FN:1611,_RNvCshbbKNLWs3nU_5bench16get_rust_version
FN:1583,_RNvCshbbKNLWs3nU_5bench21build_gungraun_runner
FN:1615,_RNvCshbbKNLWs3nU_5bench4main
FN:642,_RNvMCshbbKNLWs3nU_5benchNtB2_9Benchmark12run_template
FN:809,_RNvMCshbbKNLWs3nU_5benchNtB2_9Benchmark14reset_template
FN:487,_RNvMCshbbKNLWs3nU_5benchNtB2_9Benchmark15clean_benchmark
FN:464,_RNvMCshbbKNLWs3nU_5benchNtB2_9Benchmark3new
FN:672,_RNvMCshbbKNLWs3nU_5benchNtB2_9Benchmark3run
FN:501,_RNvMCshbbKNLWs3nU_5benchNtB2_9Benchmark6backup
FN:511,_RNvMCshbbKNLWs3nU_5benchNtB2_9Benchmark7restore
FN:528,_RNvMCshbbKNLWs3nU_5benchNtB2_9Benchmark9run_bench
FN:1230,_RNvMs0_CshbbKNLWs3nU_5benchNtB5_15BenchmarkRunner3new
FN:1241,_RNvMs0_CshbbKNLWs3nU_5benchNtB5_15BenchmarkRunner3run
FN:1290,_RNvMs1_CshbbKNLWs3nU_5benchNtB5_11ExpectedRun6assert
FN:1473,_RNvMs2_CshbbKNLWs3nU_5benchNtB5_8Metadata12get_template
FN:1477,_RNvMs2_CshbbKNLWs3nU_5benchNtB5_8Metadata20compare_rust_version
FN:1394,_RNvMs2_CshbbKNLWs3nU_5benchNtB5_8Metadata3new
FN:1500,_RNvMs3_CshbbKNLWs3nU_5benchNtB5_9RunConfig6assert
FN:1203,_RNvMs_CshbbKNLWs3nU_5benchNtB4_15BenchmarkOutput11assert_exit
FN:939,_RNvMs_CshbbKNLWs3nU_5benchNtB4_15BenchmarkOutput13filter_stderr
FN:982,_RNvMs_CshbbKNLWs3nU_5benchNtB4_15BenchmarkOutput13filter_stdout
FN:919,_RNvMs_CshbbKNLWs3nU_5benchNtB4_15BenchmarkOutput25normalize_coverage_stdout
FN:816,_RNvMs_CshbbKNLWs3nU_5benchNtB4_15BenchmarkOutput6assert
FN:595,_RNCNvMCshbbKNLWs3nU_5benchNtB4_9Benchmark9run_bench0B4_
FN:1424,_RNCNvMs2_CshbbKNLWs3nU_5benchNtB7_8Metadata3news_0B7_
FN:1427,_RNCNvMs2_CshbbKNLWs3nU_5benchNtB7_8Metadata3news0_0B7_
FN:1604,_RINvCsj80dPWEOQyk_5bench10print_infoNtNtCslNYArtu3iFV_5alloc6string6StringEB2_
FN:1604,_RINvCsj80dPWEOQyk_5bench10print_infoReEB2_
FN:1592,_RINvCsj80dPWEOQyk_5bench11print_errorNtNtCslNYArtu3iFV_5alloc6string6StringEB2_
FN:701,_RNCNCNvMCsj80dPWEOQyk_5benchNtB6_9Benchmark3runs0_00B6_
FN:710,_RNCNCNvMCsj80dPWEOQyk_5benchNtB6_9Benchmark3runs0_0s_0B6_
FN:103,_RNCNvCsj80dPWEOQyk_5bench10COMMAND_RE0B3_
FN:110,_RNCNvCsj80dPWEOQyk_5bench10DETAILS_RE0B3_
FN:45,_RNCNvCsj80dPWEOQyk_5bench10NUMBERS_RE0B3_
FN:60,_RNCNvCsj80dPWEOQyk_5bench10RUNNING_RE0B3_
FN:112,_RNCNvCsj80dPWEOQyk_5bench14NOT_DETAILS_RE0B3_
FN:58,_RNCNvCsj80dPWEOQyk_5bench15NUMBERS_DIFF_RE0B3_
FN:121,_RNCNvCsj80dPWEOQyk_5bench15SUMMARY_LINE_RE0B3_
FN:124,_RNCNvCsj80dPWEOQyk_5bench15THREAD_PANICKED0B3_
FN:118,_RNCNvCsj80dPWEOQyk_5bench16ABSOLUTE_PATH_RE0B3_
FN:114,_RNCNvCsj80dPWEOQyk_5bench18FRAGMENT_HEADER_RE0B3_
FN:78,_RNCNvCsj80dPWEOQyk_5bench18REGRESSION_HARD_RE0B3_
FN:67,_RNCNvCsj80dPWEOQyk_5bench18REGRESSION_SOFT_RE0B3_
FN:95,_RNCNvCsj80dPWEOQyk_5bench26SUMMARY_REGRESSION_HARD_RE0B3_
FN:87,_RNCNvCsj80dPWEOQyk_5bench26SUMMARY_REGRESSION_SOFT_RE0B3_
FN:132,_RNCNvCsj80dPWEOQyk_5bench27ABSOLUTE_PATH_APOSTROPHE_RE0B3_
FN:61,_RNCNvCsj80dPWEOQyk_5bench36PROCESS_DID_NOT_EXIT_SUCCESSFULLY_RE0B3_
FN:108,_RNCNvCsj80dPWEOQyk_5bench6PID_RE0B3_
FN:466,_RNCNvMCsj80dPWEOQyk_5benchNtB4_9Benchmark3new0B4_
FN:680,_RNCNvMCsj80dPWEOQyk_5benchNtB4_9Benchmark3run0B4_
FN:700,_RNCNvMCsj80dPWEOQyk_5benchNtB4_9Benchmark3runs0_0B4_
FN:726,_RNCNvMCsj80dPWEOQyk_5benchNtB4_9Benchmark3runs1_0B4_
FN:742,_RNCNvMCsj80dPWEOQyk_5benchNtB4_9Benchmark3runs2_0B4_
FN:772,_RNCNvMCsj80dPWEOQyk_5benchNtB4_9Benchmark3runs3_0B4_
FN:689,_RNCNvMCsj80dPWEOQyk_5benchNtB4_9Benchmark3runs_0B4_
FN:1318,_RNCNvMs1_Csj80dPWEOQyk_5benchNtB7_11ExpectedRun6assert0B7_
FN:1478,_RNCNvMs2_Csj80dPWEOQyk_5benchNtB7_8Metadata20compare_rust_version0B7_
FN:1413,_RNCNvMs2_Csj80dPWEOQyk_5benchNtB7_8Metadata3new0B7_
FN:1433,_RNCNvMs2_Csj80dPWEOQyk_5benchNtB7_8Metadata3news1_0B7_
FN:1448,_RNCNvMs2_Csj80dPWEOQyk_5benchNtB7_8Metadata3news2_0B7_
FN:1449,_RNCNvMs2_Csj80dPWEOQyk_5benchNtB7_8Metadata3news3_0B7_
FN:1459,_RNCNvMs2_Csj80dPWEOQyk_5benchNtB7_8Metadata3news4_0B7_
FN:1469,_RNCNvMs2_Csj80dPWEOQyk_5benchNtB7_8Metadata3news5_0B7_
FN:1523,_RNCNvMs3_Csj80dPWEOQyk_5benchNtB7_9RunConfig6assert0B7_
FN:1566,_RNCNvMs3_Csj80dPWEOQyk_5benchNtB7_9RunConfig6asserts0_0B7_
FN:1543,_RNCNvMs3_Csj80dPWEOQyk_5benchNtB7_9RunConfig6asserts_0B7_
FN:1170,_RNCNvMs_Csj80dPWEOQyk_5benchNtB6_15BenchmarkOutput13filter_stdout0B6_
FN:1175,_RNCNvMs_Csj80dPWEOQyk_5benchNtB6_15BenchmarkOutput13filter_stdouts_0B6_
FN:841,_RNCNvMs_Csj80dPWEOQyk_5benchNtB6_15BenchmarkOutput6assert0B6_
FN:886,_RNCNvMs_Csj80dPWEOQyk_5benchNtB6_15BenchmarkOutput6asserts_0B6_
FN:1611,_RNvCsj80dPWEOQyk_5bench16get_rust_version
FN:1583,_RNvCsj80dPWEOQyk_5bench21build_gungraun_runner
FN:1615,_RNvCsj80dPWEOQyk_5bench4main
FN:642,_RNvMCsj80dPWEOQyk_5benchNtB2_9Benchmark12run_template
FN:809,_RNvMCsj80dPWEOQyk_5benchNtB2_9Benchmark14reset_template
FN:487,_RNvMCsj80dPWEOQyk_5benchNtB2_9Benchmark15clean_benchmark
FN:464,_RNvMCsj80dPWEOQyk_5benchNtB2_9Benchmark3new
FN:672,_RNvMCsj80dPWEOQyk_5benchNtB2_9Benchmark3run
FN:501,_RNvMCsj80dPWEOQyk_5benchNtB2_9Benchmark6backup
FN:511,_RNvMCsj80dPWEOQyk_5benchNtB2_9Benchmark7restore
FN:528,_RNvMCsj80dPWEOQyk_5benchNtB2_9Benchmark9run_bench
FN:1230,_RNvMs0_Csj80dPWEOQyk_5benchNtB5_15BenchmarkRunner3new
FN:1241,_RNvMs0_Csj80dPWEOQyk_5benchNtB5_15BenchmarkRunner3run
FN:1290,_RNvMs1_Csj80dPWEOQyk_5benchNtB5_11ExpectedRun6assert
FN:1473,_RNvMs2_Csj80dPWEOQyk_5benchNtB5_8Metadata12get_template
FN:1477,_RNvMs2_Csj80dPWEOQyk_5benchNtB5_8Metadata20compare_rust_version
FN:1394,_RNvMs2_Csj80dPWEOQyk_5benchNtB5_8Metadata3new
FN:1500,_RNvMs3_Csj80dPWEOQyk_5benchNtB5_9RunConfig6assert
FN:1203,_RNvMs_Csj80dPWEOQyk_5benchNtB4_15BenchmarkOutput11assert_exit
FN:939,_RNvMs_Csj80dPWEOQyk_5benchNtB4_15BenchmarkOutput13filter_stderr
FN:982,_RNvMs_Csj80dPWEOQyk_5benchNtB4_15BenchmarkOutput13filter_stdout
FN:919,_RNvMs_Csj80dPWEOQyk_5benchNtB4_15BenchmarkOutput25normalize_coverage_stdout
FN:816,_RNvMs_Csj80dPWEOQyk_5benchNtB4_15BenchmarkOutput6assert
FN:595,_RNCNvMCsj80dPWEOQyk_5benchNtB4_9Benchmark9run_bench0B4_
FN:1424,_RNCNvMs2_Csj80dPWEOQyk_5benchNtB7_8Metadata3news_0B7_
FN:1427,_RNCNvMs2_Csj80dPWEOQyk_5benchNtB7_8Metadata3news0_0B7_
FN:1604,_RINvCsiSg2epYAadG_5bench10print_infoNtNtCslNYArtu3iFV_5alloc6string6StringEB2_
FN:1604,_RINvCsiSg2epYAadG_5bench10print_infoReEB2_
FN:1592,_RINvCsiSg2epYAadG_5bench11print_errorNtNtCslNYArtu3iFV_5alloc6string6StringEB2_
FN:701,_RNCNCNvMCsiSg2epYAadG_5benchNtB6_9Benchmark3runs0_00B6_
FN:710,_RNCNCNvMCsiSg2epYAadG_5benchNtB6_9Benchmark3runs0_0s_0B6_
FN:103,_RNCNvCsiSg2epYAadG_5bench10COMMAND_RE0B3_
FN:110,_RNCNvCsiSg2epYAadG_5bench10DETAILS_RE0B3_
FN:45,_RNCNvCsiSg2epYAadG_5bench10NUMBERS_RE0B3_
FN:60,_RNCNvCsiSg2epYAadG_5bench10RUNNING_RE0B3_
FN:112,_RNCNvCsiSg2epYAadG_5bench14NOT_DETAILS_RE0B3_
FN:58,_RNCNvCsiSg2epYAadG_5bench15NUMBERS_DIFF_RE0B3_
FN:121,_RNCNvCsiSg2epYAadG_5bench15SUMMARY_LINE_RE0B3_
FN:124,_RNCNvCsiSg2epYAadG_5bench15THREAD_PANICKED0B3_
FN:118,_RNCNvCsiSg2epYAadG_5bench16ABSOLUTE_PATH_RE0B3_
FN:114,_RNCNvCsiSg2epYAadG_5bench18FRAGMENT_HEADER_RE0B3_
FN:78,_RNCNvCsiSg2epYAadG_5bench18REGRESSION_HARD_RE0B3_
FN:67,_RNCNvCsiSg2epYAadG_5bench18REGRESSION_SOFT_RE0B3_
FN:95,_RNCNvCsiSg2epYAadG_5bench26SUMMARY_REGRESSION_HARD_RE0B3_
FN:87,_RNCNvCsiSg2epYAadG_5bench26SUMMARY_REGRESSION_SOFT_RE0B3_
FN:132,_RNCNvCsiSg2epYAadG_5bench27ABSOLUTE_PATH_APOSTROPHE_RE0B3_
FN:61,_RNCNvCsiSg2epYAadG_5bench36PROCESS_DID_NOT_EXIT_SUCCESSFULLY_RE0B3_
FN:108,_RNCNvCsiSg2epYAadG_5bench6PID_RE0B3_
FN:466,_RNCNvMCsiSg2epYAadG_5benchNtB4_9Benchmark3new0B4_
FN:680,_RNCNvMCsiSg2epYAadG_5benchNtB4_9Benchmark3run0B4_
FN:700,_RNCNvMCsiSg2epYAadG_5benchNtB4_9Benchmark3runs0_0B4_
FN:726,_RNCNvMCsiSg2epYAadG_5benchNtB4_9Benchmark3runs1_0B4_
FN:742,_RNCNvMCsiSg2epYAadG_5benchNtB4_9Benchmark3runs2_0B4_
FN:772,_RNCNvMCsiSg2epYAadG_5benchNtB4_9Benchmark3runs3_0B4_
FN:689,_RNCNvMCsiSg2epYAadG_5benchNtB4_9Benchmark3runs_0B4_
FN:1318,_RNCNvMs1_CsiSg2epYAadG_5benchNtB7_11ExpectedRun6assert0B7_
FN:1478,_RNCNvMs2_CsiSg2epYAadG_5benchNtB7_8Metadata20compare_rust_version0B7_
FN:1413,_RNCNvMs2_CsiSg2epYAadG_5benchNtB7_8Metadata3new0B7_
FN:1433,_RNCNvMs2_CsiSg2epYAadG_5benchNtB7_8Metadata3news1_0B7_
FN:1448,_RNCNvMs2_CsiSg2epYAadG_5benchNtB7_8Metadata3news2_0B7_
FN:1449,_RNCNvMs2_CsiSg2epYAadG_5benchNtB7_8Metadata3news3_0B7_
FN:1459,_RNCNvMs2_CsiSg2epYAadG_5benchNtB7_8Metadata3news4_0B7_
FN:1469,_RNCNvMs2_CsiSg2epYAadG_5benchNtB7_8Metadata3news5_0B7_
FN:1523,_RNCNvMs3_CsiSg2epYAadG_5benchNtB7_9RunConfig6assert0B7_
FN:1566,_RNCNvMs3_CsiSg2epYAadG_5benchNtB7_9RunConfig6asserts0_0B7_
FN:1543,_RNCNvMs3_CsiSg2epYAadG_5benchNtB7_9RunConfig6asserts_0B7_
FN:1170,_RNCNvMs_CsiSg2epYAadG_5benchNtB6_15BenchmarkOutput13filter_stdout0B6_
FN:1175,_RNCNvMs_CsiSg2epYAadG_5benchNtB6_15BenchmarkOutput13filter_stdouts_0B6_
FN:841,_RNCNvMs_CsiSg2epYAadG_5benchNtB6_15BenchmarkOutput6assert0B6_
FN:886,_RNCNvMs_CsiSg2epYAadG_5benchNtB6_15BenchmarkOutput6asserts_0B6_
FN:1611,_RNvCsiSg2epYAadG_5bench16get_rust_version
FN:1583,_RNvCsiSg2epYAadG_5bench21build_gungraun_runner
FN:1615,_RNvCsiSg2epYAadG_5bench4main
FN:642,_RNvMCsiSg2epYAadG_5benchNtB2_9Benchmark12run_template
FN:809,_RNvMCsiSg2epYAadG_5benchNtB2_9Benchmark14reset_template
FN:487,_RNvMCsiSg2epYAadG_5benchNtB2_9Benchmark15clean_benchmark
FN:464,_RNvMCsiSg2epYAadG_5benchNtB2_9Benchmark3new
FN:672,_RNvMCsiSg2epYAadG_5benchNtB2_9Benchmark3run
FN:501,_RNvMCsiSg2epYAadG_5benchNtB2_9Benchmark6backup
FN:511,_RNvMCsiSg2epYAadG_5benchNtB2_9Benchmark7restore
FN:528,_RNvMCsiSg2epYAadG_5benchNtB2_9Benchmark9run_bench
FN:1230,_RNvMs0_CsiSg2epYAadG_5benchNtB5_15BenchmarkRunner3new
FN:1241,_RNvMs0_CsiSg2epYAadG_5benchNtB5_15BenchmarkRunner3run
FN:1290,_RNvMs1_CsiSg2epYAadG_5benchNtB5_11ExpectedRun6assert
FN:1473,_RNvMs2_CsiSg2epYAadG_5benchNtB5_8Metadata12get_template
FN:1477,_RNvMs2_CsiSg2epYAadG_5benchNtB5_8Metadata20compare_rust_version
FN:1394,_RNvMs2_CsiSg2epYAadG_5benchNtB5_8Metadata3new
FN:1500,_RNvMs3_CsiSg2epYAadG_5benchNtB5_9RunConfig6assert
FN:1203,_RNvMs_CsiSg2epYAadG_5benchNtB4_15BenchmarkOutput11assert_exit
FN:939,_RNvMs_CsiSg2epYAadG_5benchNtB4_15BenchmarkOutput13filter_stderr
FN:982,_RNvMs_CsiSg2epYAadG_5benchNtB4_15BenchmarkOutput13filter_stdout
FN:919,_RNvMs_CsiSg2epYAadG_5benchNtB4_15BenchmarkOutput25normalize_coverage_stdout
FN:816,_RNvMs_CsiSg2epYAadG_5benchNtB4_15BenchmarkOutput6assert
FN:595,_RNCNvMCsiSg2epYAadG_5benchNtB4_9Benchmark9run_bench0B4_
FN:1424,_RNCNvMs2_CsiSg2epYAadG_5benchNtB7_8Metadata3news_0B7_
FN:1427,_RNCNvMs2_CsiSg2epYAadG_5benchNtB7_8Metadata3news0_0B7_
FNDA:0,_RINvCshbbKNLWs3nU_5bench10print_infoNtNtCslNYArtu3iFV_5alloc6string6StringEB2_
FNDA:0,_RINvCshbbKNLWs3nU_5bench10print_infoReEB2_
FNDA:0,_RINvCshbbKNLWs3nU_5bench11print_errorNtNtCslNYArtu3iFV_5alloc6string6StringEB2_
FNDA:0,_RNCNCNvMCshbbKNLWs3nU_5benchNtB6_9Benchmark3runs0_00B6_
FNDA:0,_RNCNCNvMCshbbKNLWs3nU_5benchNtB6_9Benchmark3runs0_0s_0B6_
FNDA:0,_RNCNvCshbbKNLWs3nU_5bench10COMMAND_RE0B3_
FNDA:0,_RNCNvCshbbKNLWs3nU_5bench10DETAILS_RE0B3_
FNDA:0,_RNCNvCshbbKNLWs3nU_5bench10NUMBERS_RE0B3_
FNDA:0,_RNCNvCshbbKNLWs3nU_5bench10RUNNING_RE0B3_
FNDA:0,_RNCNvCshbbKNLWs3nU_5bench14NOT_DETAILS_RE0B3_
FNDA:0,_RNCNvCshbbKNLWs3nU_5bench15NUMBERS_DIFF_RE0B3_
FNDA:0,_RNCNvCshbbKNLWs3nU_5bench15SUMMARY_LINE_RE0B3_
FNDA:0,_RNCNvCshbbKNLWs3nU_5bench15THREAD_PANICKED0B3_
FNDA:0,_RNCNvCshbbKNLWs3nU_5bench16ABSOLUTE_PATH_RE0B3_
FNDA:0,_RNCNvCshbbKNLWs3nU_5bench18FRAGMENT_HEADER_RE0B3_
FNDA:0,_RNCNvCshbbKNLWs3nU_5bench18REGRESSION_HARD_RE0B3_
FNDA:0,_RNCNvCshbbKNLWs3nU_5bench18REGRESSION_SOFT_RE0B3_
FNDA:0,_RNCNvCshbbKNLWs3nU_5bench26SUMMARY_REGRESSION_HARD_RE0B3_
FNDA:0,_RNCNvCshbbKNLWs3nU_5bench26SUMMARY_REGRESSION_SOFT_RE0B3_
FNDA:0,_RNCNvCshbbKNLWs3nU_5bench27ABSOLUTE_PATH_APOSTROPHE_RE0B3_
FNDA:0,_RNCNvCshbbKNLWs3nU_5bench36PROCESS_DID_NOT_EXIT_SUCCESSFULLY_RE0B3_
FNDA:0,_RNCNvCshbbKNLWs3nU_5bench6PID_RE0B3_
FNDA:0,_RNCNvMCshbbKNLWs3nU_5benchNtB4_9Benchmark3new0B4_
FNDA:0,_RNCNvMCshbbKNLWs3nU_5benchNtB4_9Benchmark3run0B4_
FNDA:0,_RNCNvMCshbbKNLWs3nU_5benchNtB4_9Benchmark3runs0_0B4_
FNDA:0,_RNCNvMCshbbKNLWs3nU_5benchNtB4_9Benchmark3runs1_0B4_
FNDA:0,_RNCNvMCshbbKNLWs3nU_5benchNtB4_9Benchmark3runs2_0B4_
FNDA:0,_RNCNvMCshbbKNLWs3nU_5benchNtB4_9Benchmark3runs3_0B4_
FNDA:0,_RNCNvMCshbbKNLWs3nU_5benchNtB4_9Benchmark3runs_0B4_
FNDA:0,_RNCNvMs1_CshbbKNLWs3nU_5benchNtB7_11ExpectedRun6assert0B7_
FNDA:0,_RNCNvMs2_CshbbKNLWs3nU_5benchNtB7_8Metadata20compare_rust_version0B7_
FNDA:0,_RNCNvMs2_CshbbKNLWs3nU_5benchNtB7_8Metadata3new0B7_
FNDA:0,_RNCNvMs2_CshbbKNLWs3nU_5benchNtB7_8Metadata3news1_0B7_
FNDA:0,_RNCNvMs2_CshbbKNLWs3nU_5benchNtB7_8Metadata3news2_0B7_
FNDA:0,_RNCNvMs2_CshbbKNLWs3nU_5benchNtB7_8Metadata3news3_0B7_
FNDA:0,_RNCNvMs2_CshbbKNLWs3nU_5benchNtB7_8Metadata3news4_0B7_
FNDA:0,_RNCNvMs2_CshbbKNLWs3nU_5benchNtB7_8Metadata3news5_0B7_
FNDA:0,_RNCNvMs3_CshbbKNLWs3nU_5benchNtB7_9RunConfig6assert0B7_
FNDA:0,_RNCNvMs3_CshbbKNLWs3nU_5benchNtB7_9RunConfig6asserts0_0B7_
FNDA:0,_RNCNvMs3_CshbbKNLWs3nU_5benchNtB7_9RunConfig6asserts_0B7_
FNDA:0,_RNCNvMs_CshbbKNLWs3nU_5benchNtB6_15BenchmarkOutput13filter_stdout0B6_
FNDA:0,_RNCNvMs_CshbbKNLWs3nU_5benchNtB6_15BenchmarkOutput13filter_stdouts_0B6_
FNDA:0,_RNCNvMs_CshbbKNLWs3nU_5benchNtB6_15BenchmarkOutput6assert0B6_
FNDA:0,_RNCNvMs_CshbbKNLWs3nU_5benchNtB6_15BenchmarkOutput6asserts_0B6_
FNDA:0,_RNvCshbbKNLWs3nU_5bench16get_rust_version
FNDA:0,_RNvCshbbKNLWs3nU_5bench21build_gungraun_runner
FNDA:0,_RNvCshbbKNLWs3nU_5bench4main
FNDA:0,_RNvMCshbbKNLWs3nU_5benchNtB2_9Benchmark12run_template
FNDA:0,_RNvMCshbbKNLWs3nU_5benchNtB2_9Benchmark14reset_template
FNDA:0,_RNvMCshbbKNLWs3nU_5benchNtB2_9Benchmark15clean_benchmark
FNDA:0,_RNvMCshbbKNLWs3nU_5benchNtB2_9Benchmark3new
FNDA:0,_RNvMCshbbKNLWs3nU_5benchNtB2_9Benchmark3run
FNDA:0,_RNvMCshbbKNLWs3nU_5benchNtB2_9Benchmark6backup
FNDA:0,_RNvMCshbbKNLWs3nU_5benchNtB2_9Benchmark7restore
FNDA:0,_RNvMCshbbKNLWs3nU_5benchNtB2_9Benchmark9run_bench
FNDA:0,_RNvMs0_CshbbKNLWs3nU_5benchNtB5_15BenchmarkRunner3new
FNDA:0,_RNvMs0_CshbbKNLWs3nU_5benchNtB5_15BenchmarkRunner3run
FNDA:0,_RNvMs1_CshbbKNLWs3nU_5benchNtB5_11ExpectedRun6assert
FNDA:0,_RNvMs2_CshbbKNLWs3nU_5benchNtB5_8Metadata12get_template
FNDA:0,_RNvMs2_CshbbKNLWs3nU_5benchNtB5_8Metadata20compare_rust_version
FNDA:0,_RNvMs2_CshbbKNLWs3nU_5benchNtB5_8Metadata3new
FNDA:0,_RNvMs3_CshbbKNLWs3nU_5benchNtB5_9RunConfig6assert
FNDA:0,_RNvMs_CshbbKNLWs3nU_5benchNtB4_15BenchmarkOutput11assert_exit
FNDA:0,_RNvMs_CshbbKNLWs3nU_5benchNtB4_15BenchmarkOutput13filter_stderr
FNDA:0,_RNvMs_CshbbKNLWs3nU_5benchNtB4_15BenchmarkOutput13filter_stdout
FNDA:0,_RNvMs_CshbbKNLWs3nU_5benchNtB4_15BenchmarkOutput25normalize_coverage_stdout
FNDA:0,_RNvMs_CshbbKNLWs3nU_5benchNtB4_15BenchmarkOutput6assert
FNDA:0,_RNCNvMCshbbKNLWs3nU_5benchNtB4_9Benchmark9run_bench0B4_
FNDA:0,_RNCNvMs2_CshbbKNLWs3nU_5benchNtB7_8Metadata3news_0B7_
FNDA:0,_RNCNvMs2_CshbbKNLWs3nU_5benchNtB7_8Metadata3news0_0B7_
FNDA:0,_RINvCsj80dPWEOQyk_5bench10print_infoNtNtCslNYArtu3iFV_5alloc6string6StringEB2_
FNDA:0,_RINvCsj80dPWEOQyk_5bench10print_infoReEB2_
FNDA:0,_RINvCsj80dPWEOQyk_5bench11print_errorNtNtCslNYArtu3iFV_5alloc6string6StringEB2_
FNDA:0,_RNCNCNvMCsj80dPWEOQyk_5benchNtB6_9Benchmark3runs0_00B6_
FNDA:0,_RNCNCNvMCsj80dPWEOQyk_5benchNtB6_9Benchmark3runs0_0s_0B6_
FNDA:0,_RNCNvCsj80dPWEOQyk_5bench10COMMAND_RE0B3_
FNDA:0,_RNCNvCsj80dPWEOQyk_5bench10DETAILS_RE0B3_
FNDA:0,_RNCNvCsj80dPWEOQyk_5bench10NUMBERS_RE0B3_
FNDA:0,_RNCNvCsj80dPWEOQyk_5bench10RUNNING_RE0B3_
FNDA:0,_RNCNvCsj80dPWEOQyk_5bench14NOT_DETAILS_RE0B3_
FNDA:0,_RNCNvCsj80dPWEOQyk_5bench15NUMBERS_DIFF_RE0B3_
FNDA:0,_RNCNvCsj80dPWEOQyk_5bench15SUMMARY_LINE_RE0B3_
FNDA:0,_RNCNvCsj80dPWEOQyk_5bench15THREAD_PANICKED0B3_
FNDA:0,_RNCNvCsj80dPWEOQyk_5bench16ABSOLUTE_PATH_RE0B3_
FNDA:0,_RNCNvCsj80dPWEOQyk_5bench18FRAGMENT_HEADER_RE0B3_
FNDA:0,_RNCNvCsj80dPWEOQyk_5bench18REGRESSION_HARD_RE0B3_
FNDA:0,_RNCNvCsj80dPWEOQyk_5bench18REGRESSION_SOFT_RE0B3_
FNDA:0,_RNCNvCsj80dPWEOQyk_5bench26SUMMARY_REGRESSION_HARD_RE0B3_
FNDA:0,_RNCNvCsj80dPWEOQyk_5bench26SUMMARY_REGRESSION_SOFT_RE0B3_
FNDA:0,_RNCNvCsj80dPWEOQyk_5bench27ABSOLUTE_PATH_APOSTROPHE_RE0B3_
FNDA:0,_RNCNvCsj80dPWEOQyk_5bench36PROCESS_DID_NOT_EXIT_SUCCESSFULLY_RE0B3_
FNDA:0,_RNCNvCsj80dPWEOQyk_5bench6PID_RE0B3_
FNDA:0,_RNCNvMCsj80dPWEOQyk_5benchNtB4_9Benchmark3new0B4_
FNDA:0,_RNCNvMCsj80dPWEOQyk_5benchNtB4_9Benchmark3run0B4_
FNDA:0,_RNCNvMCsj80dPWEOQyk_5benchNtB4_9Benchmark3runs0_0B4_
FNDA:0,_RNCNvMCsj80dPWEOQyk_5benchNtB4_9Benchmark3runs1_0B4_
FNDA:0,_RNCNvMCsj80dPWEOQyk_5benchNtB4_9Benchmark3runs2_0B4_
FNDA:0,_RNCNvMCsj80dPWEOQyk_5benchNtB4_9Benchmark3runs3_0B4_
FNDA:0,_RNCNvMCsj80dPWEOQyk_5benchNtB4_9Benchmark3runs_0B4_
FNDA:0,_RNCNvMs1_Csj80dPWEOQyk_5benchNtB7_11ExpectedRun6assert0B7_
FNDA:0,_RNCNvMs2_Csj80dPWEOQyk_5benchNtB7_8Metadata20compare_rust_version0B7_
FNDA:0,_RNCNvMs2_Csj80dPWEOQyk_5benchNtB7_8Metadata3new0B7_
FNDA:0,_RNCNvMs2_Csj80dPWEOQyk_5benchNtB7_8Metadata3news1_0B7_
FNDA:0,_RNCNvMs2_Csj80dPWEOQyk_5benchNtB7_8Metadata3news2_0B7_
FNDA:0,_RNCNvMs2_Csj80dPWEOQyk_5benchNtB7_8Metadata3news3_0B7_
FNDA:0,_RNCNvMs2_Csj80dPWEOQyk_5benchNtB7_8Metadata3news4_0B7_
FNDA:0,_RNCNvMs2_Csj80dPWEOQyk_5benchNtB7_8Metadata3news5_0B7_
FNDA:0,_RNCNvMs3_Csj80dPWEOQyk_5benchNtB7_9RunConfig6assert0B7_
FNDA:0,_RNCNvMs3_Csj80dPWEOQyk_5benchNtB7_9RunConfig6asserts0_0B7_
FNDA:0,_RNCNvMs3_Csj80dPWEOQyk_5benchNtB7_9RunConfig6asserts_0B7_
FNDA:0,_RNCNvMs_Csj80dPWEOQyk_5benchNtB6_15BenchmarkOutput13filter_stdout0B6_
FNDA:0,_RNCNvMs_Csj80dPWEOQyk_5benchNtB6_15BenchmarkOutput13filter_stdouts_0B6_
FNDA:0,_RNCNvMs_Csj80dPWEOQyk_5benchNtB6_15BenchmarkOutput6assert0B6_
FNDA:0,_RNCNvMs_Csj80dPWEOQyk_5benchNtB6_15BenchmarkOutput6asserts_0B6_
FNDA:0,_RNvCsj80dPWEOQyk_5bench16get_rust_version
FNDA:0,_RNvCsj80dPWEOQyk_5bench21build_gungraun_runner
FNDA:0,_RNvCsj80dPWEOQyk_5bench4main
FNDA:0,_RNvMCsj80dPWEOQyk_5benchNtB2_9Benchmark12run_template
FNDA:0,_RNvMCsj80dPWEOQyk_5benchNtB2_9Benchmark14reset_template
FNDA:0,_RNvMCsj80dPWEOQyk_5benchNtB2_9Benchmark15clean_benchmark
FNDA:0,_RNvMCsj80dPWEOQyk_5benchNtB2_9Benchmark3new
FNDA:0,_RNvMCsj80dPWEOQyk_5benchNtB2_9Benchmark3run
FNDA:0,_RNvMCsj80dPWEOQyk_5benchNtB2_9Benchmark6backup
FNDA:0,_RNvMCsj80dPWEOQyk_5benchNtB2_9Benchmark7restore
FNDA:0,_RNvMCsj80dPWEOQyk_5benchNtB2_9Benchmark9run_bench
FNDA:0,_RNvMs0_Csj80dPWEOQyk_5benchNtB5_15BenchmarkRunner3new
FNDA:0,_RNvMs0_Csj80dPWEOQyk_5benchNtB5_15BenchmarkRunner3run
FNDA:0,_RNvMs1_Csj80dPWEOQyk_5benchNtB5_11ExpectedRun6assert
FNDA:0,_RNvMs2_Csj80dPWEOQyk_5benchNtB5_8Metadata12get_template
FNDA:0,_RNvMs2_Csj80dPWEOQyk_5benchNtB5_8Metadata20compare_rust_version
FNDA:0,_RNvMs2_Csj80dPWEOQyk_5benchNtB5_8Metadata3new
FNDA:0,_RNvMs3_Csj80dPWEOQyk_5benchNtB5_9RunConfig6assert
FNDA:0,_RNvMs_Csj80dPWEOQyk_5benchNtB4_15BenchmarkOutput11assert_exit
FNDA:0,_RNvMs_Csj80dPWEOQyk_5benchNtB4_15BenchmarkOutput13filter_stderr
FNDA:0,_RNvMs_Csj80dPWEOQyk_5benchNtB4_15BenchmarkOutput13filter_stdout
FNDA:0,_RNvMs_Csj80dPWEOQyk_5benchNtB4_15BenchmarkOutput25normalize_coverage_stdout
FNDA:0,_RNvMs_Csj80dPWEOQyk_5benchNtB4_15BenchmarkOutput6assert
FNDA:0,_RNCNvMCsj80dPWEOQyk_5benchNtB4_9Benchmark9run_bench0B4_
FNDA:0,_RNCNvMs2_Csj80dPWEOQyk_5benchNtB7_8Metadata3news_0B7_
FNDA:0,_RNCNvMs2_Csj80dPWEOQyk_5benchNtB7_8Metadata3news0_0B7_
FNDA:3636,_RINvCsiSg2epYAadG_5bench10print_infoNtNtCslNYArtu3iFV_5alloc6string6StringEB2_
FNDA:3406,_RINvCsiSg2epYAadG_5bench10print_infoReEB2_
FNDA:0,_RINvCsiSg2epYAadG_5bench11print_errorNtNtCslNYArtu3iFV_5alloc6string6StringEB2_
FNDA:5,_RNCNCNvMCsiSg2epYAadG_5benchNtB6_9Benchmark3runs0_00B6_
FNDA:2,_RNCNCNvMCsiSg2epYAadG_5benchNtB6_9Benchmark3runs0_0s_0B6_
FNDA:5,_RNCNvCsiSg2epYAadG_5bench10COMMAND_RE0B3_
FNDA:5,_RNCNvCsiSg2epYAadG_5bench10DETAILS_RE0B3_
FNDA:5,_RNCNvCsiSg2epYAadG_5bench10NUMBERS_RE0B3_
FNDA:2,_RNCNvCsiSg2epYAadG_5bench10RUNNING_RE0B3_
FNDA:4,_RNCNvCsiSg2epYAadG_5bench14NOT_DETAILS_RE0B3_
FNDA:5,_RNCNvCsiSg2epYAadG_5bench15NUMBERS_DIFF_RE0B3_
FNDA:5,_RNCNvCsiSg2epYAadG_5bench15SUMMARY_LINE_RE0B3_
FNDA:5,_RNCNvCsiSg2epYAadG_5bench15THREAD_PANICKED0B3_
FNDA:5,_RNCNvCsiSg2epYAadG_5bench16ABSOLUTE_PATH_RE0B3_
FNDA:5,_RNCNvCsiSg2epYAadG_5bench18FRAGMENT_HEADER_RE0B3_
FNDA:2,_RNCNvCsiSg2epYAadG_5bench18REGRESSION_HARD_RE0B3_
FNDA:2,_RNCNvCsiSg2epYAadG_5bench18REGRESSION_SOFT_RE0B3_
FNDA:5,_RNCNvCsiSg2epYAadG_5bench26SUMMARY_REGRESSION_HARD_RE0B3_
FNDA:5,_RNCNvCsiSg2epYAadG_5bench26SUMMARY_REGRESSION_SOFT_RE0B3_
FNDA:2,_RNCNvCsiSg2epYAadG_5bench27ABSOLUTE_PATH_APOSTROPHE_RE0B3_
FNDA:2,_RNCNvCsiSg2epYAadG_5bench36PROCESS_DID_NOT_EXIT_SUCCESSFULLY_RE0B3_
FNDA:5,_RNCNvCsiSg2epYAadG_5bench6PID_RE0B3_
FNDA:0,_RNCNvMCsiSg2epYAadG_5benchNtB4_9Benchmark3new0B4_
FNDA:57,_RNCNvMCsiSg2epYAadG_5benchNtB4_9Benchmark3run0B4_
FNDA:348,_RNCNvMCsiSg2epYAadG_5benchNtB4_9Benchmark3runs0_0B4_
FNDA:2,_RNCNvMCsiSg2epYAadG_5benchNtB4_9Benchmark3runs1_0B4_
FNDA:345,_RNCNvMCsiSg2epYAadG_5benchNtB4_9Benchmark3runs2_0B4_
FNDA:20,_RNCNvMCsiSg2epYAadG_5benchNtB4_9Benchmark3runs3_0B4_
FNDA:12,_RNCNvMCsiSg2epYAadG_5benchNtB4_9Benchmark3runs_0B4_
FNDA:8597,_RNCNvMs1_CsiSg2epYAadG_5benchNtB7_11ExpectedRun6assert0B7_
FNDA:14,_RNCNvMs2_CsiSg2epYAadG_5benchNtB7_8Metadata20compare_rust_version0B7_
FNDA:236,_RNCNvMs2_CsiSg2epYAadG_5benchNtB7_8Metadata3new0B7_
FNDA:0,_RNCNvMs2_CsiSg2epYAadG_5benchNtB7_8Metadata3news1_0B7_
FNDA:95,_RNCNvMs2_CsiSg2epYAadG_5benchNtB7_8Metadata3news2_0B7_
FNDA:0,_RNCNvMs2_CsiSg2epYAadG_5benchNtB7_8Metadata3news3_0B7_
FNDA:144,_RNCNvMs2_CsiSg2epYAadG_5benchNtB7_8Metadata3news4_0B7_
FNDA:4,_RNCNvMs2_CsiSg2epYAadG_5benchNtB7_8Metadata3news5_0B7_
FNDA:0,_RNCNvMs3_CsiSg2epYAadG_5benchNtB7_9RunConfig6assert0B7_
FNDA:343,_RNCNvMs3_CsiSg2epYAadG_5benchNtB7_9RunConfig6asserts0_0B7_
FNDA:0,_RNCNvMs3_CsiSg2epYAadG_5benchNtB7_9RunConfig6asserts_0B7_
FNDA:2032,_RNCNvMs_CsiSg2epYAadG_5benchNtB6_15BenchmarkOutput13filter_stdout0B6_
FNDA:868,_RNCNvMs_CsiSg2epYAadG_5benchNtB6_15BenchmarkOutput13filter_stdouts_0B6_
FNDA:0,_RNCNvMs_CsiSg2epYAadG_5benchNtB6_15BenchmarkOutput6assert0B6_
FNDA:0,_RNCNvMs_CsiSg2epYAadG_5benchNtB6_15BenchmarkOutput6asserts_0B6_
FNDA:4,_RNvCsiSg2epYAadG_5bench16get_rust_version
FNDA:4,_RNvCsiSg2epYAadG_5bench21build_gungraun_runner
FNDA:4,_RNvCsiSg2epYAadG_5bench4main
FNDA:42,_RNvMCsiSg2epYAadG_5benchNtB2_9Benchmark12run_template
FNDA:42,_RNvMCsiSg2epYAadG_5benchNtB2_9Benchmark14reset_template
FNDA:198,_RNvMCsiSg2epYAadG_5benchNtB2_9Benchmark15clean_benchmark
FNDA:236,_RNvMCsiSg2epYAadG_5benchNtB2_9Benchmark3new
FNDA:218,_RNvMCsiSg2epYAadG_5benchNtB2_9Benchmark3run
FNDA:20,_RNvMCsiSg2epYAadG_5benchNtB2_9Benchmark6backup
FNDA:0,_RNvMCsiSg2epYAadG_5benchNtB2_9Benchmark7restore
FNDA:347,_RNvMCsiSg2epYAadG_5benchNtB2_9Benchmark9run_bench
FNDA:4,_RNvMs0_CsiSg2epYAadG_5benchNtB5_15BenchmarkRunner3new
FNDA:4,_RNvMs0_CsiSg2epYAadG_5benchNtB5_15BenchmarkRunner3run
FNDA:1309,_RNvMs1_CsiSg2epYAadG_5benchNtB5_11ExpectedRun6assert
FNDA:84,_RNvMs2_CsiSg2epYAadG_5benchNtB5_8Metadata12get_template
FNDA:14,_RNvMs2_CsiSg2epYAadG_5benchNtB5_8Metadata20compare_rust_version
FNDA:4,_RNvMs2_CsiSg2epYAadG_5benchNtB5_8Metadata3new
FNDA:347,_RNvMs3_CsiSg2epYAadG_5benchNtB5_9RunConfig6assert
FNDA:344,_RNvMs_CsiSg2epYAadG_5benchNtB4_15BenchmarkOutput11assert_exit
FNDA:131,_RNvMs_CsiSg2epYAadG_5benchNtB4_15BenchmarkOutput13filter_stderr
FNDA:253,_RNvMs_CsiSg2epYAadG_5benchNtB4_15BenchmarkOutput13filter_stdout
FNDA:494,_RNvMs_CsiSg2epYAadG_5benchNtB4_15BenchmarkOutput25normalize_coverage_stdout
FNDA:253,_RNvMs_CsiSg2epYAadG_5benchNtB4_15BenchmarkOutput6assert
FNDA:377,_RNCNvMCsiSg2epYAadG_5benchNtB4_9Benchmark9run_bench0B4_
FNDA:236,_RNCNvMs2_CsiSg2epYAadG_5benchNtB7_8Metadata3news_0B7_
FNDA:944,_RNCNvMs2_CsiSg2epYAadG_5benchNtB7_8Metadata3news0_0B7_
FNF:69
FNH:60
DA:45,5
DA:46,5
DA:47,5
DA:48,5
DA:49,5
DA:50,5
DA:51,5
DA:52,5
DA:54,5
DA:55,5
DA:58,5
DA:60,2
DA:61,2
DA:62,2
DA:63,2
DA:64,2
DA:67,2
DA:68,2
DA:69,2
DA:70,2
DA:71,2
DA:72,2
DA:73,2
DA:74,2
DA:76,2
DA:77,2
DA:78,2
DA:79,2
DA:83,2
DA:84,2
DA:87,5
DA:88,5
DA:92,5
DA:93,5
DA:95,5
DA:96,5
DA:100,5
DA:101,5
DA:103,5
DA:104,5
DA:105,5
DA:106,5
DA:108,5
DA:110,5
DA:112,4
DA:114,5
DA:115,5
DA:116,5
DA:118,5
DA:121,5
DA:122,5
DA:123,5
DA:124,5
DA:125,5
DA:129,5
DA:130,5
DA:132,2
DA:464,236
DA:465,236
DA:466,236
DA:467,236
DA:469,236
DA:470,236
DA:471,236
DA:472,16
DA:474,220
DA:477,236
DA:478,236
DA:479,236
DA:480,236
DA:481,236
DA:482,236
DA:483,236
DA:484,236
DA:485,236
DA:487,198
DA:488,198
DA:489,134
DA:490,134
DA:491,198
DA:492,198
DA:493,198
DA:494,198
DA:495,198
DA:496,198
DA:497,2
DA:498,196
DA:499,198
DA:501,20
DA:502,20
DA:503,15
DA:504,15
DA:505,15
DA:507,5
DA:509,20
DA:511,0
DA:512,0
DA:514,0
DA:515,0
DA:516,0
DA:517,0
DA:518,0
DA:519,0
DA:520,0
DA:521,0
DA:522,0
DA:523,0
DA:524,0
DA:525,0
DA:528,347
DA:529,347
DA:530,347
DA:531,347
DA:532,347
DA:533,347
DA:534,347
DA:535,347
DA:536,347
DA:537,347
DA:538,347
DA:539,253
DA:540,253
DA:541,253
DA:542,253
DA:543,94
DA:544,94
DA:545,94
DA:546,94
DA:548,347
DA:549,347
DA:550,347
DA:553,347
DA:554,14
DA:555,14
DA:556,14
DA:557,14
DA:558,14
DA:559,14
DA:560,14
DA:561,14
DA:562,14
DA:563,14
DA:564,14
DA:567,14
DA:568,0
DA:569,14
DA:570,333
DA:572,347
DA:573,347
DA:574,347
DA:575,347
DA:577,347
DA:578,347
DA:579,347
DA:587,347
DA:588,347
DA:589,347
DA:590,347
DA:592,347
DA:593,347
DA:594,347
DA:595,377
DA:596,347
DA:597,347
DA:598,347
DA:599,347
DA:600,0
DA:601,347
DA:602,253
DA:603,253
DA:604,347
DA:605,253
DA:606,253
DA:607,253
DA:608,347
DA:609,22
DA:610,325
DA:612,347
DA:613,347
DA:614,347
DA:615,347
DA:616,347
DA:618,347
DA:619,2
DA:620,2
DA:621,2
DA:623,2
DA:624,2
DA:625,2
DA:626,2
DA:627,2
DA:628,2
DA:630,2
DA:631,0
DA:632,2
DA:633,345
DA:635,347
DA:636,347
DA:637,347
DA:638,347
DA:639,347
DA:642,42
DA:643,42
DA:644,42
DA:645,42
DA:646,42
DA:647,42
DA:648,42
DA:649,42
DA:650,42
DA:651,42
DA:652,42
DA:653,42
DA:654,42
DA:655,42
DA:656,42
DA:657,42
DA:658,42
DA:659,42
DA:661,42
DA:662,42
DA:663,42
DA:664,42
DA:666,42
DA:667,42
DA:669,42
DA:670,42
DA:672,218
DA:673,218
DA:674,218
DA:675,218
DA:676,218
DA:677,218
DA:678,218
DA:679,218
DA:680,218
DA:681,57
DA:682,14
DA:684,43
DA:686,204
DA:687,204
DA:688,204
DA:689,204
DA:691,20
DA:692,198
DA:694,198
DA:696,198
DA:697,345
DA:698,198
DA:699,198
DA:700,348
DA:701,348
DA:702,5
DA:703,4
DA:705,1
DA:707,348
DA:708,348
DA:709,348
DA:710,348
DA:711,348
DA:712,198
DA:714,345
DA:715,345
DA:717,347
DA:718,347
DA:720,347
DA:721,347
DA:722,347
DA:726,347
DA:727,0
DA:728,0
DA:729,0
DA:731,347
DA:732,4
DA:733,343
DA:735,347
DA:736,253
DA:737,94
DA:739,347
DA:740,347
DA:741,347
DA:742,347
DA:744,347
DA:745,42
DA:746,42
DA:747,42
DA:748,42
DA:749,42
DA:750,42
DA:751,42
DA:752,42
DA:753,42
DA:754,42
DA:755,42
DA:757,42
DA:758,42
DA:760,305
DA:761,305
DA:762,305
DA:763,305
DA:764,305
DA:765,305
DA:766,305
DA:767,305
DA:771,347
DA:772,20
DA:773,20
DA:774,20
DA:775,20
DA:776,20
DA:777,20
DA:778,20
DA:779,20
DA:781,20
DA:782,20
DA:784,20
DA:785,0
DA:786,0
DA:787,0
DA:788,0
DA:789,0
DA:790,0
DA:791,0
DA:792,0
DA:794,327
DA:795,327
DA:796,327
DA:797,327
DA:798,327
DA:799,327
DA:800,327
DA:805,345
DA:807,218
DA:809,42
DA:810,42
DA:811,42
DA:812,42
DA:816,253
DA:817,253
DA:819,253
DA:820,253
DA:821,253
DA:822,253
DA:824,253
DA:825,89
DA:826,89
DA:827,89
DA:828,89
DA:829,0
DA:831,164
DA:832,42
DA:833,42
DA:834,42
DA:835,42
DA:836,42
DA:838,42
DA:839,42
DA:841,42
DA:842,0
DA:843,0
DA:844,0
DA:845,0
DA:846,0
DA:847,0
DA:848,0
DA:849,0
DA:850,0
DA:851,0
DA:852,0
DA:853,0
DA:854,0
DA:855,0
DA:856,0
DA:858,42
DA:859,0
DA:861,0
DA:863,42
DA:865,42
DA:867,122
DA:869,253
DA:870,6
DA:871,6
DA:872,6
DA:873,6
DA:874,0
DA:876,247
DA:877,247
DA:878,247
DA:879,247
DA:880,247
DA:881,247
DA:883,247
DA:884,247
DA:886,247
DA:887,0
DA:888,0
DA:889,0
DA:890,0
DA:891,0
DA:892,0
DA:893,0
DA:894,0
DA:895,0
DA:896,0
DA:897,0
DA:898,0
DA:899,0
DA:900,0
DA:901,0
DA:903,247
DA:904,247
DA:905,247
DA:906,247
DA:908,247
DA:909,1
DA:911,1
DA:913,246
DA:914,246
DA:916,0
DA:917,252
DA:919,494
DA:920,494
DA:921,60021
DA:922,60021
DA:923,49584
DA:925,10437
DA:928,60021
DA:929,1792
DA:931,58229
DA:934,60021
DA:936,494
DA:937,494
DA:939,131
DA:940,131
DA:941,131
DA:942,131
DA:943,607
DA:944,607
DA:945,336
DA:946,131
DA:947,131
DA:948,205
DA:949,336
DA:950,271
DA:951,42
DA:952,7
DA:953,7
DA:954,35
DA:955,35
DA:956,229
DA:958,264
DA:959,7
DA:960,7
DA:961,7
DA:962,7
DA:963,7
DA:965,7
DA:967,7
DA:969,257
DA:972,264
DA:973,264
DA:974,264
DA:975,264
DA:976,264
DA:977,264
DA:979,131
DA:980,131
DA:982,253
DA:983,253
DA:984,253
DA:985,31323
DA:986,31323
DA:987,26101
DA:989,5222
DA:992,31323
DA:993,3
DA:994,3
DA:995,3
DA:996,3
DA:997,3
DA:999,3
DA:1001,3
DA:1003,31320
DA:1006,31323
DA:1037,31323
DA:1038,1460
DA:1039,151
DA:1040,151
DA:1041,1309
DA:1043,29863
DA:1044,151
DA:1045,151
DA:1046,151
DA:1047,29712
DA:1049,29863
DA:1050,20643
DA:1051,20643
DA:1052,20643
DA:1053,20643
DA:1054,20643
DA:1055,20643
DA:1057,0
DA:1060,20643
DA:1061,20643
DA:1062,20643
DA:1063,6947
DA:1065,13696
DA:1068,20643
DA:1090,20643
DA:1091,18863
DA:1092,17067
DA:1093,15287
DA:1094,13507
DA:1095,13393
DA:1097,13279
DA:1098,12502
DA:1100,11727
DA:1101,11279
DA:1103,9812
DA:1104,9812
DA:1105,9812
DA:1106,9812
DA:1107,6450
DA:1108,6450
DA:1109,3362
DA:1110,3362
DA:1111,0
DA:1113,10831
DA:1114,10831
DA:1115,10831
DA:1116,10831
DA:1117,10831
DA:1119,10489
DA:1120,342
DA:1121,342
DA:1122,342
DA:1123,342
DA:1124,342
DA:1125,342
DA:1126,342
DA:1127,342
DA:1128,342
DA:1129,10489
DA:1130,1168
DA:1131,1168
DA:1132,9321
DA:1133,9321
DA:1134,9321
DA:1136,0
DA:1137,10831
DA:1138,342
DA:1139,342
DA:1140,342
DA:1141,342
DA:1142,342
DA:1143,342
DA:1144,342
DA:1145,342
DA:1146,342
DA:1147,342
DA:1148,342
DA:1149,342
DA:1150,342
DA:1151,342
DA:1152,0
DA:1153,0
DA:1154,0
DA:1156,10489
DA:1158,20643
DA:1160,9220
DA:1163,584
DA:1166,8636
DA:1170,9220
DA:1171,2032
DA:1172,2032
DA:1175,9220
DA:1176,868
DA:1177,868
DA:1178,868
DA:1179,868
DA:1181,868
DA:1184,0
DA:1186,868
DA:1187,9220
DA:1188,9220
DA:1189,9220
DA:1190,9220
DA:1192,9220
DA:1193,9220
DA:1195,9220
DA:1196,9220
DA:1200,253
DA:1201,253
DA:1203,344
DA:1204,344
DA:1205,65
DA:1206,65
DA:1207,65
DA:1212,65
DA:1216,0
DA:1218,0
DA:1221,279
DA:1222,279
DA:1226,344
DA:1230,4
DA:1231,4
DA:1232,4
DA:1233,4
DA:1234,4
DA:1235,4
DA:1236,4
DA:1237,4
DA:1238,4
DA:1239,4
DA:1241,4
DA:1245,4
DA:1248,4
DA:1250,4
DA:1251,4
DA:1252,4
DA:1256,4
DA:1257,4
DA:1258,4
DA:1259,4
DA:1260,4
DA:1261,4
DA:1263,4
DA:1265,4
DA:1266,4
DA:1267,4
DA:1269,4
DA:1271,89
DA:1272,89
DA:1273,218
DA:1274,218
DA:1275,218
DA:1278,4
DA:1279,4
DA:1280,4
DA:1281,4
DA:1282,4
DA:1283,4
DA:1285,4
DA:1286,4
DA:1290,1309
DA:1291,1309
DA:1292,1309
DA:1293,1309
DA:1294,1309
DA:1296,1309
DA:1297,1122
DA:1299,187
DA:1301,1309
DA:1303,1309
DA:1306,1309
DA:1307,1309
DA:1309,0
DA:1312,1309
DA:1313,1309
DA:1314,1309
DA:1315,1309
DA:1317,1309
DA:1318,8597
DA:1319,8597
DA:1320,8597
DA:1321,1302
DA:1322,7295
DA:1323,0
DA:1325,8597
DA:1326,8597
DA:1328,0
DA:1330,8597
DA:1331,8597
DA:1334,0
DA:1338,2744
DA:1339,2744
DA:1340,2744
DA:1341,2744
DA:1342,2744
DA:1343,2744
DA:1345,2744
DA:1346,2744
DA:1350,0
DA:1353,5239
DA:1354,5239
DA:1355,5239
DA:1356,0
DA:1357,5239
DA:1358,0
DA:1359,5239
DA:1363,1309
DA:1364,1302
DA:1365,1302
DA:1366,1302
DA:1367,1302
DA:1368,1302
DA:1369,0
DA:1370,0
DA:1372,1302
DA:1373,1302
DA:1374,1302
DA:1375,1302
DA:1376,1302
DA:1377,1302
DA:1378,1302
DA:1382,7
DA:1384,1309
DA:1385,1309
DA:1387,1
DA:1390,1308
DA:1394,4
DA:1395,4
DA:1396,4
DA:1397,4
DA:1398,4
DA:1399,4
DA:1400,4
DA:1401,4
DA:1402,4
DA:1403,4
DA:1405,4
DA:1406,4
DA:1407,4
DA:1408,4
DA:1410,4
DA:1411,4
DA:1412,4
DA:1413,236
DA:1414,236
DA:1415,236
DA:1416,236
DA:1417,0
DA:1418,236
DA:1419,236
DA:1421,0
DA:1423,236
DA:1424,236
DA:1425,4
DA:1427,944
DA:1428,4
DA:1429,0
DA:1430,0
DA:1431,0
DA:1432,0
DA:1433,0
DA:1434,0
DA:1435,4
DA:1439,4
DA:1440,3
DA:1441,3
DA:1442,3
DA:1443,3
DA:1444,3
DA:1446,3
DA:1447,3
DA:1448,95
DA:1449,3
DA:1450,0
DA:1453,3
DA:1454,1
DA:1456,4
DA:1457,4
DA:1458,4
DA:1459,144
DA:1461,4
DA:1464,4
DA:1465,4
DA:1466,4
DA:1467,4
DA:1468,4
DA:1469,4
DA:1471,4
DA:1473,84
DA:1474,84
DA:1475,84
DA:1477,14
DA:1478,14
DA:1479,14
DA:1481,0
DA:1482,0
DA:1483,0
DA:1484,0
DA:1485,0
DA:1486,0
DA:1488,0
DA:1489,0
DA:1490,0
DA:1491,0
DA:1496,14
DA:1500,347
DA:1501,347
DA:1502,347
DA:1503,347
DA:1504,347
DA:1505,347
DA:1506,347
DA:1507,347
DA:1508,347
DA:1509,347
DA:1510,345
DA:1511,98
DA:1512,92
DA:1513,92
DA:1514,253
DA:1515,253
DA:1516,253
DA:1517,345
DA:1519,345
DA:1520,212
DA:1521,212
DA:1523,212
DA:1524,212
DA:1526,212
DA:1527,9
DA:1529,203
DA:1532,1307
DA:1533,1307
DA:1534,1307
DA:1535,133
DA:1536,6
DA:1537,6
DA:1539,6
DA:1540,0
DA:1541,0
DA:1542,0
DA:1543,0
DA:1544,0
DA:1545,0
DA:1546,0
DA:1547,0
DA:1548,0
DA:1550,0
DA:1552,6
DA:1553,6
DA:1554,6
DA:1555,6
DA:1556,6
DA:1557,6
DA:1558,127
DA:1559,127
DA:1560,127
DA:1561,2
DA:1563,347
DA:1564,347
DA:1565,347
DA:1566,347
DA:1568,335
DA:1571,2493
DA:1572,335
DA:1573,335
DA:1574,2493
DA:1575,2493
DA:1576,2493
DA:1577,2493
DA:1578,2493
DA:1579,12
DA:1580,347
DA:1583,4
DA:1584,4
DA:1585,4
DA:1586,4
DA:1587,4
DA:1588,4
DA:1589,4
DA:1590,4
DA:1592,0
DA:1593,0
DA:1594,0
DA:1596,0
DA:1598,0
DA:1599,0
DA:1600,0
DA:1602,0
DA:1604,7042
DA:1605,7042
DA:1606,7042
DA:1608,7042
DA:1609,7042
DA:1611,4
DA:1612,4
DA:1613,4
DA:1615,4
DA:1616,4
DA:1617,4
DA:1618,4
DA:1619,4
DA:1620,4
DA:1621,3
DA:1622,0
DA:1623,0
DA:1624,0
DA:1625,0
DA:1626,0
DA:1627,0
DA:1628,0
DA:1629,0
DA:1630,0
DA:1631,0
DA:1632,0
DA:1635,0
DA:1636,0
DA:1639,0
DA:1641,0
DA:1644,0
DA:1645,3
DA:1646,0
DA:1650,4
DA:1652,4
DA:1653,4
DA:1654,4
DA:1655,4
DA:1656,4
DA:1657,4
DA:1658,4
DA:1659,4
DA:1660,4
DA:1661,4
DA:1665,4
DA:1667,4
DA:1668,2
DA:1669,2
DA:1670,4
BRF:0
BRH:0
LF:951
LH:809
end_of_record
SF:/fast/lenny/workspace/programming/gungraun/gungraun/benchmark-tests/src/common.rs
FN:50,_RNCNvMNtCs3Sh0jWajYhY_15benchmark_tests6commonNtB4_7Summary25assert_costs_not_all_zeros0_0B6_
FN:57,_RNCNvMNtCs3Sh0jWajYhY_15benchmark_tests6commonNtB4_7Summary25assert_costs_not_all_zeros1_0B6_
FN:62,_RNCNvMNtCs3Sh0jWajYhY_15benchmark_tests6commonNtB4_7Summary25assert_costs_not_all_zeros2_0B6_
FN:73,_RNCNvMNtCs3Sh0jWajYhY_15benchmark_tests6commonNtB4_7Summary25assert_costs_not_all_zeros3_0B6_
FN:80,_RNCNvMNtCs3Sh0jWajYhY_15benchmark_tests6commonNtB4_7Summary25assert_costs_not_all_zeros4_0B6_
FN:87,_RNCNvMNtCs3Sh0jWajYhY_15benchmark_tests6commonNtB4_7Summary25assert_costs_not_all_zeros5_0B6_
FN:92,_RNCNvMNtCs3Sh0jWajYhY_15benchmark_tests6commonNtB4_7Summary25assert_costs_not_all_zeros6_0B6_
FN:103,_RNCNvMNtCs3Sh0jWajYhY_15benchmark_tests6commonNtB4_7Summary25assert_costs_not_all_zeros7_0B6_
FN:110,_RNCNvMNtCs3Sh0jWajYhY_15benchmark_tests6commonNtB4_7Summary25assert_costs_not_all_zeros8_0B6_
FN:117,_RNCNvMNtCs3Sh0jWajYhY_15benchmark_tests6commonNtB4_7Summary25assert_costs_not_all_zeros9_0B6_
FN:43,_RNCNvMNtCs3Sh0jWajYhY_15benchmark_tests6commonNtB4_7Summary25assert_costs_not_all_zeros_0B6_
FN:122,_RNCNvMNtCs3Sh0jWajYhY_15benchmark_tests6commonNtB4_7Summary25assert_costs_not_all_zerosa_0B6_
FN:17,_RNCNvMNtCs3Sh0jWajYhY_15benchmark_tests6commonNtB4_7Summary3new0B6_
FN:29,_RNvMNtCs3Sh0jWajYhY_15benchmark_tests6commonNtB2_7Summary25assert_costs_not_all_zero
FN:13,_RNvMNtCs3Sh0jWajYhY_15benchmark_tests6commonNtB2_7Summary3new
FN:20,_RNvMNtCs3Sh0jWajYhY_15benchmark_tests6commonNtB2_7Summary8get_name
FN:50,_RNCNvMNtCsgE96Xjj5vmo_15benchmark_tests6commonNtB4_7Summary25assert_costs_not_all_zeros0_0B6_
FN:57,_RNCNvMNtCsgE96Xjj5vmo_15benchmark_tests6commonNtB4_7Summary25assert_costs_not_all_zeros1_0B6_
FN:62,_RNCNvMNtCsgE96Xjj5vmo_15benchmark_tests6commonNtB4_7Summary25assert_costs_not_all_zeros2_0B6_
FN:73,_RNCNvMNtCsgE96Xjj5vmo_15benchmark_tests6commonNtB4_7Summary25assert_costs_not_all_zeros3_0B6_
FN:80,_RNCNvMNtCsgE96Xjj5vmo_15benchmark_tests6commonNtB4_7Summary25assert_costs_not_all_zeros4_0B6_
FN:87,_RNCNvMNtCsgE96Xjj5vmo_15benchmark_tests6commonNtB4_7Summary25assert_costs_not_all_zeros5_0B6_
FN:92,_RNCNvMNtCsgE96Xjj5vmo_15benchmark_tests6commonNtB4_7Summary25assert_costs_not_all_zeros6_0B6_
FN:103,_RNCNvMNtCsgE96Xjj5vmo_15benchmark_tests6commonNtB4_7Summary25assert_costs_not_all_zeros7_0B6_
FN:110,_RNCNvMNtCsgE96Xjj5vmo_15benchmark_tests6commonNtB4_7Summary25assert_costs_not_all_zeros8_0B6_
FN:117,_RNCNvMNtCsgE96Xjj5vmo_15benchmark_tests6commonNtB4_7Summary25assert_costs_not_all_zeros9_0B6_
FN:43,_RNCNvMNtCsgE96Xjj5vmo_15benchmark_tests6commonNtB4_7Summary25assert_costs_not_all_zeros_0B6_
FN:122,_RNCNvMNtCsgE96Xjj5vmo_15benchmark_tests6commonNtB4_7Summary25assert_costs_not_all_zerosa_0B6_
FN:17,_RNCNvMNtCsgE96Xjj5vmo_15benchmark_tests6commonNtB4_7Summary3new0B6_
FN:29,_RNvMNtCsgE96Xjj5vmo_15benchmark_tests6commonNtB2_7Summary25assert_costs_not_all_zero
FN:13,_RNvMNtCsgE96Xjj5vmo_15benchmark_tests6commonNtB2_7Summary3new
FN:20,_RNvMNtCsgE96Xjj5vmo_15benchmark_tests6commonNtB2_7Summary8get_name
FN:50,_RNCNvMNtCsjjTVGzuT1qt_15benchmark_tests6commonNtB4_7Summary25assert_costs_not_all_zeros0_0B6_
FN:57,_RNCNvMNtCsjjTVGzuT1qt_15benchmark_tests6commonNtB4_7Summary25assert_costs_not_all_zeros1_0B6_
FN:62,_RNCNvMNtCsjjTVGzuT1qt_15benchmark_tests6commonNtB4_7Summary25assert_costs_not_all_zeros2_0B6_
FN:73,_RNCNvMNtCsjjTVGzuT1qt_15benchmark_tests6commonNtB4_7Summary25assert_costs_not_all_zeros3_0B6_
FN:80,_RNCNvMNtCsjjTVGzuT1qt_15benchmark_tests6commonNtB4_7Summary25assert_costs_not_all_zeros4_0B6_
FN:87,_RNCNvMNtCsjjTVGzuT1qt_15benchmark_tests6commonNtB4_7Summary25assert_costs_not_all_zeros5_0B6_
FN:92,_RNCNvMNtCsjjTVGzuT1qt_15benchmark_tests6commonNtB4_7Summary25assert_costs_not_all_zeros6_0B6_
FN:103,_RNCNvMNtCsjjTVGzuT1qt_15benchmark_tests6commonNtB4_7Summary25assert_costs_not_all_zeros7_0B6_
FN:110,_RNCNvMNtCsjjTVGzuT1qt_15benchmark_tests6commonNtB4_7Summary25assert_costs_not_all_zeros8_0B6_
FN:117,_RNCNvMNtCsjjTVGzuT1qt_15benchmark_tests6commonNtB4_7Summary25assert_costs_not_all_zeros9_0B6_
FN:43,_RNCNvMNtCsjjTVGzuT1qt_15benchmark_tests6commonNtB4_7Summary25assert_costs_not_all_zeros_0B6_
FN:122,_RNCNvMNtCsjjTVGzuT1qt_15benchmark_tests6commonNtB4_7Summary25assert_costs_not_all_zerosa_0B6_
FN:17,_RNCNvMNtCsjjTVGzuT1qt_15benchmark_tests6commonNtB4_7Summary3new0B6_
FN:29,_RNvMNtCsjjTVGzuT1qt_15benchmark_tests6commonNtB2_7Summary25assert_costs_not_all_zero
FN:13,_RNvMNtCsjjTVGzuT1qt_15benchmark_tests6commonNtB2_7Summary3new
FN:20,_RNvMNtCsjjTVGzuT1qt_15benchmark_tests6commonNtB2_7Summary8get_name
FNDA:0,_RNCNvMNtCs3Sh0jWajYhY_15benchmark_tests6commonNtB4_7Summary25assert_costs_not_all_zeros0_0B6_
FNDA:0,_RNCNvMNtCs3Sh0jWajYhY_15benchmark_tests6commonNtB4_7Summary25assert_costs_not_all_zeros1_0B6_
FNDA:0,_RNCNvMNtCs3Sh0jWajYhY_15benchmark_tests6commonNtB4_7Summary25assert_costs_not_all_zeros2_0B6_
FNDA:0,_RNCNvMNtCs3Sh0jWajYhY_15benchmark_tests6commonNtB4_7Summary25assert_costs_not_all_zeros3_0B6_
FNDA:0,_RNCNvMNtCs3Sh0jWajYhY_15benchmark_tests6commonNtB4_7Summary25assert_costs_not_all_zeros4_0B6_
FNDA:0,_RNCNvMNtCs3Sh0jWajYhY_15benchmark_tests6commonNtB4_7Summary25assert_costs_not_all_zeros5_0B6_
FNDA:0,_RNCNvMNtCs3Sh0jWajYhY_15benchmark_tests6commonNtB4_7Summary25assert_costs_not_all_zeros6_0B6_
FNDA:0,_RNCNvMNtCs3Sh0jWajYhY_15benchmark_tests6commonNtB4_7Summary25assert_costs_not_all_zeros7_0B6_
FNDA:0,_RNCNvMNtCs3Sh0jWajYhY_15benchmark_tests6commonNtB4_7Summary25assert_costs_not_all_zeros8_0B6_
FNDA:0,_RNCNvMNtCs3Sh0jWajYhY_15benchmark_tests6commonNtB4_7Summary25assert_costs_not_all_zeros9_0B6_
FNDA:0,_RNCNvMNtCs3Sh0jWajYhY_15benchmark_tests6commonNtB4_7Summary25assert_costs_not_all_zeros_0B6_
FNDA:0,_RNCNvMNtCs3Sh0jWajYhY_15benchmark_tests6commonNtB4_7Summary25assert_costs_not_all_zerosa_0B6_
FNDA:0,_RNCNvMNtCs3Sh0jWajYhY_15benchmark_tests6commonNtB4_7Summary3new0B6_
FNDA:0,_RNvMNtCs3Sh0jWajYhY_15benchmark_tests6commonNtB2_7Summary25assert_costs_not_all_zero
FNDA:6,_RNvMNtCs3Sh0jWajYhY_15benchmark_tests6commonNtB2_7Summary3new
FNDA:0,_RNvMNtCs3Sh0jWajYhY_15benchmark_tests6commonNtB2_7Summary8get_name
FNDA:0,_RNCNvMNtCsgE96Xjj5vmo_15benchmark_tests6commonNtB4_7Summary25assert_costs_not_all_zeros0_0B6_
FNDA:0,_RNCNvMNtCsgE96Xjj5vmo_15benchmark_tests6commonNtB4_7Summary25assert_costs_not_all_zeros1_0B6_
FNDA:0,_RNCNvMNtCsgE96Xjj5vmo_15benchmark_tests6commonNtB4_7Summary25assert_costs_not_all_zeros2_0B6_
FNDA:0,_RNCNvMNtCsgE96Xjj5vmo_15benchmark_tests6commonNtB4_7Summary25assert_costs_not_all_zeros3_0B6_
FNDA:0,_RNCNvMNtCsgE96Xjj5vmo_15benchmark_tests6commonNtB4_7Summary25assert_costs_not_all_zeros4_0B6_
FNDA:0,_RNCNvMNtCsgE96Xjj5vmo_15benchmark_tests6commonNtB4_7Summary25assert_costs_not_all_zeros5_0B6_
FNDA:0,_RNCNvMNtCsgE96Xjj5vmo_15benchmark_tests6commonNtB4_7Summary25assert_costs_not_all_zeros6_0B6_
FNDA:0,_RNCNvMNtCsgE96Xjj5vmo_15benchmark_tests6commonNtB4_7Summary25assert_costs_not_all_zeros7_0B6_
FNDA:0,_RNCNvMNtCsgE96Xjj5vmo_15benchmark_tests6commonNtB4_7Summary25assert_costs_not_all_zeros8_0B6_
FNDA:0,_RNCNvMNtCsgE96Xjj5vmo_15benchmark_tests6commonNtB4_7Summary25assert_costs_not_all_zeros9_0B6_
FNDA:0,_RNCNvMNtCsgE96Xjj5vmo_15benchmark_tests6commonNtB4_7Summary25assert_costs_not_all_zeros_0B6_
FNDA:0,_RNCNvMNtCsgE96Xjj5vmo_15benchmark_tests6commonNtB4_7Summary25assert_costs_not_all_zerosa_0B6_
FNDA:0,_RNCNvMNtCsgE96Xjj5vmo_15benchmark_tests6commonNtB4_7Summary3new0B6_
FNDA:0,_RNvMNtCsgE96Xjj5vmo_15benchmark_tests6commonNtB2_7Summary25assert_costs_not_all_zero
FNDA:0,_RNvMNtCsgE96Xjj5vmo_15benchmark_tests6commonNtB2_7Summary3new
FNDA:0,_RNvMNtCsgE96Xjj5vmo_15benchmark_tests6commonNtB2_7Summary8get_name
FNDA:0,_RNCNvMNtCsjjTVGzuT1qt_15benchmark_tests6commonNtB4_7Summary25assert_costs_not_all_zeros0_0B6_
FNDA:1471,_RNCNvMNtCsjjTVGzuT1qt_15benchmark_tests6commonNtB4_7Summary25assert_costs_not_all_zeros1_0B6_
FNDA:1471,_RNCNvMNtCsjjTVGzuT1qt_15benchmark_tests6commonNtB4_7Summary25assert_costs_not_all_zeros2_0B6_
FNDA:3452,_RNCNvMNtCsjjTVGzuT1qt_15benchmark_tests6commonNtB4_7Summary25assert_costs_not_all_zeros3_0B6_
FNDA:0,_RNCNvMNtCsjjTVGzuT1qt_15benchmark_tests6commonNtB4_7Summary25assert_costs_not_all_zeros4_0B6_
FNDA:1552,_RNCNvMNtCsjjTVGzuT1qt_15benchmark_tests6commonNtB4_7Summary25assert_costs_not_all_zeros5_0B6_
FNDA:1332,_RNCNvMNtCsjjTVGzuT1qt_15benchmark_tests6commonNtB4_7Summary25assert_costs_not_all_zeros6_0B6_
FNDA:218,_RNCNvMNtCsjjTVGzuT1qt_15benchmark_tests6commonNtB4_7Summary25assert_costs_not_all_zeros7_0B6_
FNDA:0,_RNCNvMNtCsjjTVGzuT1qt_15benchmark_tests6commonNtB4_7Summary25assert_costs_not_all_zeros8_0B6_
FNDA:116,_RNCNvMNtCsjjTVGzuT1qt_15benchmark_tests6commonNtB4_7Summary25assert_costs_not_all_zeros9_0B6_
FNDA:2165,_RNCNvMNtCsjjTVGzuT1qt_15benchmark_tests6commonNtB4_7Summary25assert_costs_not_all_zeros_0B6_
FNDA:116,_RNCNvMNtCsjjTVGzuT1qt_15benchmark_tests6commonNtB4_7Summary25assert_costs_not_all_zerosa_0B6_
FNDA:0,_RNCNvMNtCsjjTVGzuT1qt_15benchmark_tests6commonNtB4_7Summary3new0B6_
FNDA:2543,_RNvMNtCsjjTVGzuT1qt_15benchmark_tests6commonNtB2_7Summary25assert_costs_not_all_zero
FNDA:2543,_RNvMNtCsjjTVGzuT1qt_15benchmark_tests6commonNtB2_7Summary3new
FNDA:0,_RNvMNtCsjjTVGzuT1qt_15benchmark_tests6commonNtB2_7Summary8get_name
FNF:16
FNH:11
DA:13,2549
DA:14,2549
DA:15,2549
DA:16,2549
DA:17,2549
DA:18,2549
DA:20,0
DA:21,0
DA:22,0
DA:24,0
DA:26,0
DA:29,2543
DA:30,3833
DA:31,8362
DA:32,3833
DA:33,3833
DA:34,3833
DA:35,3833
DA:36,3833
DA:38,8362
DA:39,860
DA:40,860
DA:41,505
DA:42,505
DA:43,2165
DA:45,0
DA:48,0
DA:49,0
DA:50,0
DA:52,0
DA:55,355
DA:56,355
DA:57,1471
DA:59,0
DA:61,355
DA:62,1471
DA:64,0
DA:69,4264
DA:70,4264
DA:71,2972
DA:72,2972
DA:73,3452
DA:75,0
DA:78,0
DA:79,0
DA:80,0
DA:82,0
DA:85,1292
DA:86,1292
DA:87,1552
DA:89,0
DA:91,1292
DA:92,1332
DA:94,0
DA:99,334
DA:100,334
DA:101,218
DA:102,218
DA:103,218
DA:105,0
DA:108,0
DA:109,0
DA:110,0
DA:112,0
DA:115,116
DA:116,116
DA:117,116
DA:119,0
DA:121,116
DA:122,116
DA:124,0
DA:129,2904
DA:133,2543
BRF:0
BRH:0
LF:86
LH:56
end_of_record
SF:/fast/lenny/workspace/programming/gungraun/gungraun/benchmark-tests/src/helper/bench-bin-fake.rs
FN:10,_RNvCsgoX2ULRvt9j_14bench_bin_fake4main
FN:10,_RNvCs2mx2Hwlm1Ht_14bench_bin_fake4main
FNDA:0,_RNvCsgoX2ULRvt9j_14bench_bin_fake4main
FNDA:0,_RNvCs2mx2Hwlm1Ht_14bench_bin_fake4main
FNF:1
FNH:0
DA:10,0
DA:11,0
DA:12,0
DA:13,0
DA:14,0
BRF:0
BRH:0
LF:5
LH:0
end_of_record
SF:/fast/lenny/workspace/programming/gungraun/gungraun/benchmark-tests/src/helper/bubble-sort.rs
FN:12,_RNvCsgnqSC2TWEZl_11bubble_sort4main
FN:12,_RNvCs6iwfa77iU2q_11bubble_sort4main
FNDA:0,_RNvCsgnqSC2TWEZl_11bubble_sort4main
FNDA:0,_RNvCs6iwfa77iU2q_11bubble_sort4main
FNF:1
FNH:0
DA:12,0
DA:13,0
DA:14,0
DA:15,0
DA:16,0
DA:17,0
BRF:0
BRH:0
LF:6
LH:0
end_of_record
SF:/fast/lenny/workspace/programming/gungraun/gungraun/benchmark-tests/src/helper/cat.rs
FN:13,_RNvCsc6sOMp7dQgf_3cat4main
FN:13,_RNvCshZKgIySlIdV_3cat4main
FNDA:0,_RNvCsc6sOMp7dQgf_3cat4main
FNDA:0,_RNvCshZKgIySlIdV_3cat4main
FNF:1
FNH:0
DA:13,0
DA:14,0
DA:15,0
DA:17,0
DA:18,0
DA:20,0
DA:21,0
DA:23,0
DA:24,0
BRF:0
BRH:0
LF:9
LH:0
end_of_record
SF:/fast/lenny/workspace/programming/gungraun/gungraun/benchmark-tests/src/helper/client-requests.rs
FN:5,_RNvCs6M5sd81FxQ6_15client_requests4main
FN:5,_RNvCsjyozCIEllbf_15client_requests4main
FNDA:0,_RNvCs6M5sd81FxQ6_15client_requests4main
FNDA:0,_RNvCsjyozCIEllbf_15client_requests4main
FNF:1
FNH:0
DA:5,0
DA:6,0
DA:7,0
DA:8,0
DA:9,0
BRF:0
BRH:0
LF:5
LH:0
end_of_record
SF:/fast/lenny/workspace/programming/gungraun/gungraun/benchmark-tests/src/helper/delay.rs
FN:16,_RNvCsavARA37eT6j_5delay4main
FN:16,_RNvCs2nTsTuxEabe_5delay4main
FNDA:0,_RNvCsavARA37eT6j_5delay4main
FNDA:0,_RNvCs2nTsTuxEabe_5delay4main
FNF:1
FNH:0
DA:16,0
DA:17,0
DA:18,0
DA:19,0
DA:20,0
DA:21,0
DA:22,0
DA:23,0
DA:24,0
DA:25,0
DA:26,0
DA:28,0
DA:29,0
DA:30,0
DA:31,0
DA:32,0
DA:34,0
DA:35,0
DA:36,0
DA:37,0
BRF:0
BRH:0
LF:20
LH:0
end_of_record
SF:/fast/lenny/workspace/programming/gungraun/gungraun/benchmark-tests/src/helper/echo.rs
FN:12,_RNCNvCs6j1H5fVuXrk_4echo4main0B3_
FN:9,_RNvCs6j1H5fVuXrk_4echo4main
FN:12,_RNCNvCsezL1ZUCluQ0_4echo4main0B3_
FN:9,_RNvCsezL1ZUCluQ0_4echo4main
FNDA:0,_RNCNvCs6j1H5fVuXrk_4echo4main0B3_
FNDA:0,_RNvCs6j1H5fVuXrk_4echo4main
FNDA:0,_RNCNvCsezL1ZUCluQ0_4echo4main0B3_
FNDA:0,_RNvCsezL1ZUCluQ0_4echo4main
FNF:2
FNH:0
DA:9,0
DA:10,0
DA:11,0
DA:12,0
DA:13,0
DA:14,0
DA:15,0
DA:16,0
DA:18,0
DA:20,0
DA:22,0
DA:23,0
DA:24,0
DA:25,0
DA:27,0
DA:28,0
BRF:0
BRH:0
LF:17
LH:0
end_of_record
SF:/fast/lenny/workspace/programming/gungraun/gungraun/benchmark-tests/src/helper/env.rs
FN:22,_RNCNvCs9B712TCixWY_3env4main0B3_
FN:25,_RNCNvCs9B712TCixWY_3env4mains_0B3_
FN:12,_RNvCs9B712TCixWY_3env4main
FN:22,_RNCNvCs4mBG2riQ9fw_3env4main0B3_
FN:25,_RNCNvCs4mBG2riQ9fw_3env4mains_0B3_
FN:12,_RNvCs4mBG2riQ9fw_3env4main
FNDA:0,_RNCNvCs9B712TCixWY_3env4main0B3_
FNDA:2050,_RNCNvCs9B712TCixWY_3env4mains_0B3_
FNDA:43,_RNvCs9B712TCixWY_3env4main
FNDA:0,_RNCNvCs4mBG2riQ9fw_3env4main0B3_
FNDA:0,_RNCNvCs4mBG2riQ9fw_3env4mains_0B3_
FNDA:0,_RNvCs4mBG2riQ9fw_3env4main
FNF:3
FNH:2
DA:12,43
DA:13,43
DA:14,43
DA:15,43
DA:16,113
DA:17,113
DA:18,113
DA:19,113
DA:21,22
DA:22,0
DA:23,0
DA:24,22
DA:25,2050
DA:26,22
DA:28,0
DA:30,43
BRF:0
BRH:0
LF:18
LH:14
end_of_record
SF:/fast/lenny/workspace/programming/gungraun/gungraun/benchmark-tests/src/helper/exit-with.rs
FN:9,_RNvCs32LzvnzsBIb_9exit_with4main
FN:9,_RNvCslLo75wJtsrh_9exit_with4main
FNDA:0,_RNvCs32LzvnzsBIb_9exit_with4main
FNDA:0,_RNvCslLo75wJtsrh_9exit_with4main
FNF:1
FNH:0
DA:9,0
DA:10,0
DA:11,0
DA:12,0
DA:14,0
DA:15,0
DA:16,0
DA:17,0
DA:19,0
BRF:0
BRH:0
LF:9
LH:0
end_of_record
SF:/fast/lenny/workspace/programming/gungraun/gungraun/benchmark-tests/src/helper/file-exists.rs
FN:12,_RNvCscm8BqASDw20_11file_exists4main
FN:12,_RNvCs6mJpPS7QHoH_11file_exists4main
FNDA:0,_RNvCscm8BqASDw20_11file_exists4main
FNDA:10,_RNvCs6mJpPS7QHoH_11file_exists4main
FNF:1
FNH:1
DA:12,10
DA:13,10
DA:14,10
DA:15,10
DA:17,10
DA:18,10
DA:19,4
DA:20,0
DA:23,10
DA:24,6
DA:25,6
DA:26,6
DA:28,0
DA:31,0
DA:33,4
DA:34,4
DA:35,4
DA:37,10
BRF:0
BRH:0
LF:18
LH:15
end_of_record
SF:/fast/lenny/workspace/programming/gungraun/gungraun/benchmark-tests/src/helper/leak-memory.rs
FN:12,_RNvCs9IoZzeKwnfg_11leak_memory4main
FN:12,_RNvCs8Y1orUndobm_11leak_memory4main
FNDA:0,_RNvCs9IoZzeKwnfg_11leak_memory4main
FNDA:0,_RNvCs8Y1orUndobm_11leak_memory4main
FNF:1
FNH:0
DA:12,0
DA:13,0
DA:14,0
DA:16,0
DA:17,0
BRF:0
BRH:0
LF:5
LH:0
end_of_record
SF:/fast/lenny/workspace/programming/gungraun/gungraun/benchmark-tests/src/helper/pipe.rs
FN:7,_RNvCs4lgZ7ogsy5S_4pipe4main
FN:7,_RNvCsasYa6LDVdzU_4pipe4main
FNDA:0,_RNvCs4lgZ7ogsy5S_4pipe4main
FNDA:0,_RNvCsasYa6LDVdzU_4pipe4main
FNF:1
FNH:0
DA:7,0
DA:8,0
DA:10,0
DA:11,0
DA:13,0
DA:14,0
DA:15,0
BRF:0
BRH:0
LF:7
LH:0
end_of_record
SF:/fast/lenny/workspace/programming/gungraun/gungraun/benchmark-tests/src/helper/read-file.rs
FN:13,_RNvCsa7jefosFZfD_9read_file4main
FN:13,_RNvCslEzKpp1wKCZ_9read_file4main
FNDA:0,_RNvCsa7jefosFZfD_9read_file4main
FNDA:0,_RNvCslEzKpp1wKCZ_9read_file4main
FNF:1
FNH:0
DA:13,0
DA:14,0
DA:15,0
DA:16,0
DA:18,0
DA:19,0
DA:20,0
DA:22,0
DA:23,0
BRF:0
BRH:0
LF:9
LH:0
end_of_record
SF:/fast/lenny/workspace/programming/gungraun/gungraun/benchmark-tests/src/helper/sort.rs
FN:12,_RNvCs1XeAVZ6UUoL_4sort4main
FN:12,_RNvCs5dG7xhBd32h_4sort4main
FNDA:0,_RNvCs1XeAVZ6UUoL_4sort4main
FNDA:0,_RNvCs5dG7xhBd32h_4sort4main
FNF:1
FNH:0
DA:12,0
DA:13,0
DA:14,0
DA:15,0
DA:17,0
DA:18,0
DA:19,0
BRF:0
BRH:0
LF:7
LH:0
end_of_record
SF:/fast/lenny/workspace/programming/gungraun/gungraun/benchmark-tests/src/helper/subprocess.rs
FN:12,_RNvCs4kZIIG2V28y_10subprocess4main
FN:12,_RNvCs4cHoQgYerxS_10subprocess4main
FNDA:0,_RNvCs4kZIIG2V28y_10subprocess4main
FNDA:0,_RNvCs4cHoQgYerxS_10subprocess4main
FNF:1
FNH:0
DA:12,0
DA:13,0
DA:14,0
DA:16,0
DA:17,0
DA:18,0
DA:19,0
DA:20,0
BRF:0
BRH:0
LF:8
LH:0
end_of_record
SF:/fast/lenny/workspace/programming/gungraun/gungraun/benchmark-tests/src/helper/thread.rs
FN:13,_RNvCs3nr2mbl8XpG_6thread4main
FN:13,_RNvCs2jSBS2Yicx8_6thread4main
FNDA:0,_RNvCs3nr2mbl8XpG_6thread4main
FNDA:0,_RNvCs2jSBS2Yicx8_6thread4main
FNF:1
FNH:0
DA:13,0
DA:14,0
DA:15,0
DA:16,0
DA:17,0
DA:18,0
DA:19,0
DA:20,0
DA:22,0
DA:23,0
DA:24,0
DA:26,0
DA:28,0
BRF:0
BRH:0
LF:13
LH:0
end_of_record
SF:/fast/lenny/workspace/programming/gungraun/gungraun/benchmark-tests/src/helper/timeout.rs
FN:19,_RNCNvCscl14IxkZG7X_7timeout4main0B3_
FN:14,_RNvCscl14IxkZG7X_7timeout4main
FN:19,_RNCNvCs7K0efnfwlll_7timeout4main0B3_
FN:14,_RNvCs7K0efnfwlll_7timeout4main
FNDA:0,_RNCNvCscl14IxkZG7X_7timeout4main0B3_
FNDA:0,_RNvCscl14IxkZG7X_7timeout4main
FNDA:0,_RNCNvCs7K0efnfwlll_7timeout4main0B3_
FNDA:0,_RNvCs7K0efnfwlll_7timeout4main
FNF:2
FNH:0
DA:14,0
DA:15,0
DA:17,0
DA:18,0
DA:19,0
DA:20,0
DA:22,0
DA:24,0
DA:25,0
DA:26,0
BRF:0
BRH:0
LF:11
LH:0
end_of_record
SF:/fast/lenny/workspace/programming/gungraun/gungraun/benchmark-tests/src/lib.rs
FN:98,_RNCNCNvCs3Sh0jWajYhY_15benchmark_tests37thread_in_thread_with_instrumentation00B5_
FN:42,_RNCNvCs3Sh0jWajYhY_15benchmark_tests24find_primes_multi_threads_0B3_
FN:95,_RNCNvCs3Sh0jWajYhY_15benchmark_tests37thread_in_thread_with_instrumentation0B3_
FN:67,_RNCNvCs3Sh0jWajYhY_15benchmark_tests45find_primes_multi_thread_with_instrumentations_0B3_
FN:33,_RNCNvCs3Sh0jWajYhY_15benchmark_tests11find_primes0B3_
FN:38,_RNCNvCs3Sh0jWajYhY_15benchmark_tests24find_primes_multi_thread0B3_
FN:63,_RNCNvCs3Sh0jWajYhY_15benchmark_tests45find_primes_multi_thread_with_instrumentation0B3_
FN:133,_RNvCs3Sh0jWajYhY_15benchmark_tests11bubble_sort
FN:32,_RNvCs3Sh0jWajYhY_15benchmark_tests11find_primes
FN:195,_RNvCs3Sh0jWajYhY_15benchmark_tests11leak_memory
FN:144,_RNvCs3Sh0jWajYhY_15benchmark_tests20bubble_sort_allocate
FN:125,_RNvCs3Sh0jWajYhY_15benchmark_tests21setup_best_case_array
FN:115,_RNvCs3Sh0jWajYhY_15benchmark_tests22setup_worst_case_array
FN:36,_RNvCs3Sh0jWajYhY_15benchmark_tests24find_primes_multi_thread
FN:92,_RNvCs3Sh0jWajYhY_15benchmark_tests37thread_in_thread_with_instrumentation
FN:61,_RNvCs3Sh0jWajYhY_15benchmark_tests45find_primes_multi_thread_with_instrumentation
FN:17,_RNvCs3Sh0jWajYhY_15benchmark_tests8is_prime
FN:157,_RNvCs3Sh0jWajYhY_15benchmark_tests9check_env
FN:150,_RNvCs3Sh0jWajYhY_15benchmark_tests9fibonacci
FN:167,_RNvCs3Sh0jWajYhY_15benchmark_tests9print_env
FN:186,_RINvCs3Sh0jWajYhY_15benchmark_tests10subprocesspppEB2_
FN:98,_RNCNCNvCsgE96Xjj5vmo_15benchmark_tests37thread_in_thread_with_instrumentation00B5_
FN:42,_RNCNvCsgE96Xjj5vmo_15benchmark_tests24find_primes_multi_threads_0B3_
FN:95,_RNCNvCsgE96Xjj5vmo_15benchmark_tests37thread_in_thread_with_instrumentation0B3_
FN:67,_RNCNvCsgE96Xjj5vmo_15benchmark_tests45find_primes_multi_thread_with_instrumentations_0B3_
FN:33,_RNCNvCsgE96Xjj5vmo_15benchmark_tests11find_primes0B3_
FN:38,_RNCNvCsgE96Xjj5vmo_15benchmark_tests24find_primes_multi_thread0B3_
FN:63,_RNCNvCsgE96Xjj5vmo_15benchmark_tests45find_primes_multi_thread_with_instrumentation0B3_
FN:133,_RNvCsgE96Xjj5vmo_15benchmark_tests11bubble_sort
FN:32,_RNvCsgE96Xjj5vmo_15benchmark_tests11find_primes
FN:195,_RNvCsgE96Xjj5vmo_15benchmark_tests11leak_memory
FN:144,_RNvCsgE96Xjj5vmo_15benchmark_tests20bubble_sort_allocate
FN:125,_RNvCsgE96Xjj5vmo_15benchmark_tests21setup_best_case_array
FN:115,_RNvCsgE96Xjj5vmo_15benchmark_tests22setup_worst_case_array
FN:36,_RNvCsgE96Xjj5vmo_15benchmark_tests24find_primes_multi_thread
FN:92,_RNvCsgE96Xjj5vmo_15benchmark_tests37thread_in_thread_with_instrumentation
FN:61,_RNvCsgE96Xjj5vmo_15benchmark_tests45find_primes_multi_thread_with_instrumentation
FN:17,_RNvCsgE96Xjj5vmo_15benchmark_tests8is_prime
FN:157,_RNvCsgE96Xjj5vmo_15benchmark_tests9check_env
FN:150,_RNvCsgE96Xjj5vmo_15benchmark_tests9fibonacci
FN:167,_RNvCsgE96Xjj5vmo_15benchmark_tests9print_env
FN:186,_RINvCsgE96Xjj5vmo_15benchmark_tests10subprocesspppEB2_
FN:98,_RNCNCNvCsjjTVGzuT1qt_15benchmark_tests37thread_in_thread_with_instrumentation00B5_
FN:42,_RNCNvCsjjTVGzuT1qt_15benchmark_tests24find_primes_multi_threads_0B3_
FN:95,_RNCNvCsjjTVGzuT1qt_15benchmark_tests37thread_in_thread_with_instrumentation0B3_
FN:67,_RNCNvCsjjTVGzuT1qt_15benchmark_tests45find_primes_multi_thread_with_instrumentations_0B3_
FN:33,_RNCNvCsjjTVGzuT1qt_15benchmark_tests11find_primes0B3_
FN:38,_RNCNvCsjjTVGzuT1qt_15benchmark_tests24find_primes_multi_thread0B3_
FN:63,_RNCNvCsjjTVGzuT1qt_15benchmark_tests45find_primes_multi_thread_with_instrumentation0B3_
FN:133,_RNvCsjjTVGzuT1qt_15benchmark_tests11bubble_sort
FN:32,_RNvCsjjTVGzuT1qt_15benchmark_tests11find_primes
FN:195,_RNvCsjjTVGzuT1qt_15benchmark_tests11leak_memory
FN:144,_RNvCsjjTVGzuT1qt_15benchmark_tests20bubble_sort_allocate
FN:125,_RNvCsjjTVGzuT1qt_15benchmark_tests21setup_best_case_array
FN:115,_RNvCsjjTVGzuT1qt_15benchmark_tests22setup_worst_case_array
FN:36,_RNvCsjjTVGzuT1qt_15benchmark_tests24find_primes_multi_thread
FN:92,_RNvCsjjTVGzuT1qt_15benchmark_tests37thread_in_thread_with_instrumentation
FN:61,_RNvCsjjTVGzuT1qt_15benchmark_tests45find_primes_multi_thread_with_instrumentation
FN:17,_RNvCsjjTVGzuT1qt_15benchmark_tests8is_prime
FN:157,_RNvCsjjTVGzuT1qt_15benchmark_tests9check_env
FN:150,_RNvCsjjTVGzuT1qt_15benchmark_tests9fibonacci
FN:167,_RNvCsjjTVGzuT1qt_15benchmark_tests9print_env
FN:186,_RINvCsjjTVGzuT1qt_15benchmark_tests10subprocesspppEB2_
FN:186,_RINvCs3Sh0jWajYhY_15benchmark_tests10subprocessNtNtNtCsjrHSEGnQ3l9_3std3ffi6os_str8OsStringReINtNtCslNYArtu3iFV_5alloc3vec3VecBJ_EECs9UO289xOOpF_20test_lib_bench_tools
FN:186,_RINvCs3Sh0jWajYhY_15benchmark_tests10subprocessNtNtCslNYArtu3iFV_5alloc6string6StringReABJ_j1_ECs5GZ1064gFxY_20test_lib_bench_xtree
FNDA:0,_RNCNCNvCs3Sh0jWajYhY_15benchmark_tests37thread_in_thread_with_instrumentation00B5_
FNDA:0,_RNCNvCs3Sh0jWajYhY_15benchmark_tests24find_primes_multi_threads_0B3_
FNDA:0,_RNCNvCs3Sh0jWajYhY_15benchmark_tests37thread_in_thread_with_instrumentation0B3_
FNDA:0,_RNCNvCs3Sh0jWajYhY_15benchmark_tests45find_primes_multi_thread_with_instrumentations_0B3_
FNDA:0,_RNCNvCs3Sh0jWajYhY_15benchmark_tests11find_primes0B3_
FNDA:0,_RNCNvCs3Sh0jWajYhY_15benchmark_tests24find_primes_multi_thread0B3_
FNDA:0,_RNCNvCs3Sh0jWajYhY_15benchmark_tests45find_primes_multi_thread_with_instrumentation0B3_
FNDA:0,_RNvCs3Sh0jWajYhY_15benchmark_tests11bubble_sort
FNDA:0,_RNvCs3Sh0jWajYhY_15benchmark_tests11find_primes
FNDA:0,_RNvCs3Sh0jWajYhY_15benchmark_tests11leak_memory
FNDA:0,_RNvCs3Sh0jWajYhY_15benchmark_tests20bubble_sort_allocate
FNDA:0,_RNvCs3Sh0jWajYhY_15benchmark_tests21setup_best_case_array
FNDA:0,_RNvCs3Sh0jWajYhY_15benchmark_tests22setup_worst_case_array
FNDA:0,_RNvCs3Sh0jWajYhY_15benchmark_tests24find_primes_multi_thread
FNDA:0,_RNvCs3Sh0jWajYhY_15benchmark_tests37thread_in_thread_with_instrumentation
FNDA:0,_RNvCs3Sh0jWajYhY_15benchmark_tests45find_primes_multi_thread_with_instrumentation
FNDA:0,_RNvCs3Sh0jWajYhY_15benchmark_tests8is_prime
FNDA:4,_RNvCs3Sh0jWajYhY_15benchmark_tests9check_env
FNDA:360,_RNvCs3Sh0jWajYhY_15benchmark_tests9fibonacci
FNDA:4,_RNvCs3Sh0jWajYhY_15benchmark_tests9print_env
FNDA:0,_RINvCs3Sh0jWajYhY_15benchmark_tests10subprocesspppEB2_
FNDA:0,_RNCNCNvCsgE96Xjj5vmo_15benchmark_tests37thread_in_thread_with_instrumentation00B5_
FNDA:0,_RNCNvCsgE96Xjj5vmo_15benchmark_tests24find_primes_multi_threads_0B3_
FNDA:0,_RNCNvCsgE96Xjj5vmo_15benchmark_tests37thread_in_thread_with_instrumentation0B3_
FNDA:0,_RNCNvCsgE96Xjj5vmo_15benchmark_tests45find_primes_multi_thread_with_instrumentations_0B3_
FNDA:0,_RNCNvCsgE96Xjj5vmo_15benchmark_tests11find_primes0B3_
FNDA:0,_RNCNvCsgE96Xjj5vmo_15benchmark_tests24find_primes_multi_thread0B3_
FNDA:0,_RNCNvCsgE96Xjj5vmo_15benchmark_tests45find_primes_multi_thread_with_instrumentation0B3_
FNDA:0,_RNvCsgE96Xjj5vmo_15benchmark_tests11bubble_sort
FNDA:0,_RNvCsgE96Xjj5vmo_15benchmark_tests11find_primes
FNDA:0,_RNvCsgE96Xjj5vmo_15benchmark_tests11leak_memory
FNDA:0,_RNvCsgE96Xjj5vmo_15benchmark_tests20bubble_sort_allocate
FNDA:0,_RNvCsgE96Xjj5vmo_15benchmark_tests21setup_best_case_array
FNDA:0,_RNvCsgE96Xjj5vmo_15benchmark_tests22setup_worst_case_array
FNDA:0,_RNvCsgE96Xjj5vmo_15benchmark_tests24find_primes_multi_thread
FNDA:0,_RNvCsgE96Xjj5vmo_15benchmark_tests37thread_in_thread_with_instrumentation
FNDA:0,_RNvCsgE96Xjj5vmo_15benchmark_tests45find_primes_multi_thread_with_instrumentation
FNDA:0,_RNvCsgE96Xjj5vmo_15benchmark_tests8is_prime
FNDA:0,_RNvCsgE96Xjj5vmo_15benchmark_tests9check_env
FNDA:0,_RNvCsgE96Xjj5vmo_15benchmark_tests9fibonacci
FNDA:0,_RNvCsgE96Xjj5vmo_15benchmark_tests9print_env
FNDA:0,_RINvCsgE96Xjj5vmo_15benchmark_tests10subprocesspppEB2_
FNDA:0,_RNCNCNvCsjjTVGzuT1qt_15benchmark_tests37thread_in_thread_with_instrumentation00B5_
FNDA:0,_RNCNvCsjjTVGzuT1qt_15benchmark_tests24find_primes_multi_threads_0B3_
FNDA:0,_RNCNvCsjjTVGzuT1qt_15benchmark_tests37thread_in_thread_with_instrumentation0B3_
FNDA:0,_RNCNvCsjjTVGzuT1qt_15benchmark_tests45find_primes_multi_thread_with_instrumentations_0B3_
FNDA:0,_RNCNvCsjjTVGzuT1qt_15benchmark_tests11find_primes0B3_
FNDA:0,_RNCNvCsjjTVGzuT1qt_15benchmark_tests24find_primes_multi_thread0B3_
FNDA:0,_RNCNvCsjjTVGzuT1qt_15benchmark_tests45find_primes_multi_thread_with_instrumentation0B3_
FNDA:0,_RNvCsjjTVGzuT1qt_15benchmark_tests11bubble_sort
FNDA:0,_RNvCsjjTVGzuT1qt_15benchmark_tests11find_primes
FNDA:0,_RNvCsjjTVGzuT1qt_15benchmark_tests11leak_memory
FNDA:0,_RNvCsjjTVGzuT1qt_15benchmark_tests20bubble_sort_allocate
FNDA:0,_RNvCsjjTVGzuT1qt_15benchmark_tests21setup_best_case_array
FNDA:0,_RNvCsjjTVGzuT1qt_15benchmark_tests22setup_worst_case_array
FNDA:0,_RNvCsjjTVGzuT1qt_15benchmark_tests24find_primes_multi_thread
FNDA:0,_RNvCsjjTVGzuT1qt_15benchmark_tests37thread_in_thread_with_instrumentation
FNDA:0,_RNvCsjjTVGzuT1qt_15benchmark_tests45find_primes_multi_thread_with_instrumentation
FNDA:0,_RNvCsjjTVGzuT1qt_15benchmark_tests8is_prime
FNDA:0,_RNvCsjjTVGzuT1qt_15benchmark_tests9check_env
FNDA:0,_RNvCsjjTVGzuT1qt_15benchmark_tests9fibonacci
FNDA:0,_RNvCsjjTVGzuT1qt_15benchmark_tests9print_env
FNDA:0,_RINvCsjjTVGzuT1qt_15benchmark_tests10subprocesspppEB2_
FNDA:0,_RINvCs3Sh0jWajYhY_15benchmark_tests10subprocessNtNtNtCsjrHSEGnQ3l9_3std3ffi6os_str8OsStringReINtNtCslNYArtu3iFV_5alloc3vec3VecBJ_EECs9UO289xOOpF_20test_lib_bench_tools
FNDA:0,_RINvCs3Sh0jWajYhY_15benchmark_tests10subprocessNtNtCslNYArtu3iFV_5alloc6string6StringReABJ_j1_ECs5GZ1064gFxY_20test_lib_bench_xtree
FNF:21
FNH:3
DA:17,0
DA:18,0
DA:19,0
DA:20,0
DA:22,0
DA:23,0
DA:24,0
DA:25,0
DA:28,0
DA:29,0
DA:32,0
DA:33,0
DA:34,0
DA:36,0
DA:37,0
DA:38,0
DA:39,0
DA:40,0
DA:41,0
DA:42,0
DA:43,0
DA:46,0
DA:47,0
DA:48,0
DA:49,0
DA:52,0
DA:54,0
DA:55,0
DA:58,0
DA:59,0
DA:61,0
DA:62,0
DA:63,0
DA:64,0
DA:65,0
DA:66,0
DA:67,0
DA:68,0
DA:69,0
DA:70,0
DA:71,0
DA:72,0
DA:73,0
DA:74,0
DA:77,0
DA:78,0
DA:79,0
DA:80,0
DA:83,0
DA:85,0
DA:86,0
DA:89,0
DA:90,0
DA:92,0
DA:93,0
DA:94,0
DA:95,0
DA:96,0
DA:97,0
DA:98,0
DA:99,0
DA:100,0
DA:101,0
DA:102,0
DA:103,0
DA:105,0
DA:107,0
DA:110,0
DA:111,0
DA:115,0
DA:116,0
DA:117,0
DA:119,0
DA:121,0
DA:125,0
DA:126,0
DA:127,0
DA:129,0
DA:131,0
DA:133,0
DA:134,0
DA:135,0
DA:136,0
DA:137,0
DA:138,0
DA:141,0
DA:142,0
DA:144,0
DA:145,0
DA:146,0
DA:147,0
DA:148,0
DA:150,360
DA:151,360
DA:152,192
DA:153,168
DA:155,360
DA:157,4
DA:158,4
DA:159,0
DA:160,0
DA:162,4
DA:163,4
DA:165,4
DA:167,4
DA:168,8
DA:169,8
DA:170,8
DA:171,8
DA:172,8
DA:173,8
DA:174,8
DA:177,0
DA:178,0
DA:179,0
DA:182,8
DA:184,4
DA:186,0
DA:187,0
DA:188,0
DA:189,0
DA:190,0
DA:192,0
DA:193,0
DA:195,0
DA:196,0
DA:197,0
DA:198,0
DA:199,0
DA:200,0
DA:201,0
BRF:0
BRH:0
LF:138
LH:20
end_of_record
SF:/fast/lenny/workspace/programming/gungraun/gungraun/benchmark-tests/src/serde.rs
FN:71,_RINvNtNtCs3Sh0jWajYhY_15benchmark_tests5serde12rust_version11deserializeQNtNtCs63YE6y62k4s_10serde_yaml2de22DeserializerFromEventsECshbbKNLWs3nU_5bench
FN:41,_RINvXNtNtCs3Sh0jWajYhY_15benchmark_tests5serde12rust_versionNtB3_12FieldVisitorNtNtCsbpKTr3ogt23_10serde_core2de7Visitor9visit_strNtNtCs63YE6y62k4s_10serde_yaml5error5ErrorECshbbKNLWs3nU_5bench
FN:130,_RINvNtNtCs3Sh0jWajYhY_15benchmark_tests5serde7runs_on11deserializeQNtNtCs63YE6y62k4s_10serde_yaml2de22DeserializerFromEventsECshbbKNLWs3nU_5bench
FN:110,_RINvXNtNtCs3Sh0jWajYhY_15benchmark_tests5serde7runs_onNtB3_12FieldVisitorNtNtCsbpKTr3ogt23_10serde_core2de7Visitor9visit_strNtNtCs63YE6y62k4s_10serde_yaml5error5ErrorECshbbKNLWs3nU_5bench
FN:106,_RNvXNtNtCs3Sh0jWajYhY_15benchmark_tests5serde7runs_onNtB2_12FieldVisitorNtNtCsbpKTr3ogt23_10serde_core2de7Visitor9expecting
FN:37,_RNvXNtNtCs3Sh0jWajYhY_15benchmark_tests5serde12rust_versionNtB2_12FieldVisitorNtNtCsbpKTr3ogt23_10serde_core2de7Visitor9expecting
FN:71,_RINvNtNtCs3Sh0jWajYhY_15benchmark_tests5serde12rust_version11deserializepEB6_
FN:10,_RINvNtNtCs3Sh0jWajYhY_15benchmark_tests5serde12rust_version9serializepEB6_
FN:130,_RINvNtNtCs3Sh0jWajYhY_15benchmark_tests5serde7runs_on11deserializepEB6_
FN:86,_RINvNtNtCs3Sh0jWajYhY_15benchmark_tests5serde7runs_on9serializepEB6_
FN:63,_RINvXNtNtCs3Sh0jWajYhY_15benchmark_tests5serde12rust_versionNtB3_12FieldVisitorNtNtCsbpKTr3ogt23_10serde_core2de7Visitor12visit_stringpEB7_
FN:41,_RINvXNtNtCs3Sh0jWajYhY_15benchmark_tests5serde12rust_versionNtB3_12FieldVisitorNtNtCsbpKTr3ogt23_10serde_core2de7Visitor9visit_strpEB7_
FN:122,_RINvXNtNtCs3Sh0jWajYhY_15benchmark_tests5serde7runs_onNtB3_12FieldVisitorNtNtCsbpKTr3ogt23_10serde_core2de7Visitor12visit_stringpEB7_
FN:110,_RINvXNtNtCs3Sh0jWajYhY_15benchmark_tests5serde7runs_onNtB3_12FieldVisitorNtNtCsbpKTr3ogt23_10serde_core2de7Visitor9visit_strpEB7_
FN:71,_RINvNtNtCsgE96Xjj5vmo_15benchmark_tests5serde12rust_version11deserializeQNtNtCs63YE6y62k4s_10serde_yaml2de22DeserializerFromEventsECsj80dPWEOQyk_5bench
FN:41,_RINvXNtNtCsgE96Xjj5vmo_15benchmark_tests5serde12rust_versionNtB3_12FieldVisitorNtNtCsbpKTr3ogt23_10serde_core2de7Visitor9visit_strNtNtCs63YE6y62k4s_10serde_yaml5error5ErrorECsj80dPWEOQyk_5bench
FN:130,_RINvNtNtCsgE96Xjj5vmo_15benchmark_tests5serde7runs_on11deserializeQNtNtCs63YE6y62k4s_10serde_yaml2de22DeserializerFromEventsECsj80dPWEOQyk_5bench
FN:110,_RINvXNtNtCsgE96Xjj5vmo_15benchmark_tests5serde7runs_onNtB3_12FieldVisitorNtNtCsbpKTr3ogt23_10serde_core2de7Visitor9visit_strNtNtCs63YE6y62k4s_10serde_yaml5error5ErrorECsj80dPWEOQyk_5bench
FN:106,_RNvXNtNtCsgE96Xjj5vmo_15benchmark_tests5serde7runs_onNtB2_12FieldVisitorNtNtCsbpKTr3ogt23_10serde_core2de7Visitor9expecting
FN:37,_RNvXNtNtCsgE96Xjj5vmo_15benchmark_tests5serde12rust_versionNtB2_12FieldVisitorNtNtCsbpKTr3ogt23_10serde_core2de7Visitor9expecting
FN:71,_RINvNtNtCsgE96Xjj5vmo_15benchmark_tests5serde12rust_version11deserializepEB6_
FN:10,_RINvNtNtCsgE96Xjj5vmo_15benchmark_tests5serde12rust_version9serializepEB6_
FN:130,_RINvNtNtCsgE96Xjj5vmo_15benchmark_tests5serde7runs_on11deserializepEB6_
FN:86,_RINvNtNtCsgE96Xjj5vmo_15benchmark_tests5serde7runs_on9serializepEB6_
FN:63,_RINvXNtNtCsgE96Xjj5vmo_15benchmark_tests5serde12rust_versionNtB3_12FieldVisitorNtNtCsbpKTr3ogt23_10serde_core2de7Visitor12visit_stringpEB7_
FN:41,_RINvXNtNtCsgE96Xjj5vmo_15benchmark_tests5serde12rust_versionNtB3_12FieldVisitorNtNtCsbpKTr3ogt23_10serde_core2de7Visitor9visit_strpEB7_
FN:122,_RINvXNtNtCsgE96Xjj5vmo_15benchmark_tests5serde7runs_onNtB3_12FieldVisitorNtNtCsbpKTr3ogt23_10serde_core2de7Visitor12visit_stringpEB7_
FN:110,_RINvXNtNtCsgE96Xjj5vmo_15benchmark_tests5serde7runs_onNtB3_12FieldVisitorNtNtCsbpKTr3ogt23_10serde_core2de7Visitor9visit_strpEB7_
FN:71,_RINvNtNtCsjjTVGzuT1qt_15benchmark_tests5serde12rust_version11deserializeQNtNtCsl3jYT7btqjt_10serde_yaml2de22DeserializerFromEventsECsiSg2epYAadG_5bench
FN:41,_RINvXNtNtCsjjTVGzuT1qt_15benchmark_tests5serde12rust_versionNtB3_12FieldVisitorNtNtCsjemrbRuMhJt_10serde_core2de7Visitor9visit_strNtNtCsl3jYT7btqjt_10serde_yaml5error5ErrorECsiSg2epYAadG_5bench
FN:130,_RINvNtNtCsjjTVGzuT1qt_15benchmark_tests5serde7runs_on11deserializeQNtNtCsl3jYT7btqjt_10serde_yaml2de22DeserializerFromEventsECsiSg2epYAadG_5bench
FN:110,_RINvXNtNtCsjjTVGzuT1qt_15benchmark_tests5serde7runs_onNtB3_12FieldVisitorNtNtCsjemrbRuMhJt_10serde_core2de7Visitor9visit_strNtNtCsl3jYT7btqjt_10serde_yaml5error5ErrorECsiSg2epYAadG_5bench
FN:37,_RNvXNtNtCsjjTVGzuT1qt_15benchmark_tests5serde12rust_versionNtB2_12FieldVisitorNtNtCsjemrbRuMhJt_10serde_core2de7Visitor9expecting
FN:106,_RNvXNtNtCsjjTVGzuT1qt_15benchmark_tests5serde7runs_onNtB2_12FieldVisitorNtNtCsjemrbRuMhJt_10serde_core2de7Visitor9expecting
FN:71,_RINvNtNtCsjjTVGzuT1qt_15benchmark_tests5serde12rust_version11deserializepEB6_
FN:10,_RINvNtNtCsjjTVGzuT1qt_15benchmark_tests5serde12rust_version9serializepEB6_
FN:130,_RINvNtNtCsjjTVGzuT1qt_15benchmark_tests5serde7runs_on11deserializepEB6_
FN:86,_RINvNtNtCsjjTVGzuT1qt_15benchmark_tests5serde7runs_on9serializepEB6_
FN:63,_RINvXNtNtCsjjTVGzuT1qt_15benchmark_tests5serde12rust_versionNtB3_12FieldVisitorNtNtCsjemrbRuMhJt_10serde_core2de7Visitor12visit_stringpEB7_
FN:41,_RINvXNtNtCsjjTVGzuT1qt_15benchmark_tests5serde12rust_versionNtB3_12FieldVisitorNtNtCsjemrbRuMhJt_10serde_core2de7Visitor9visit_strpEB7_
FN:122,_RINvXNtNtCsjjTVGzuT1qt_15benchmark_tests5serde7runs_onNtB3_12FieldVisitorNtNtCsjemrbRuMhJt_10serde_core2de7Visitor12visit_stringpEB7_
FN:110,_RINvXNtNtCsjjTVGzuT1qt_15benchmark_tests5serde7runs_onNtB3_12FieldVisitorNtNtCsjemrbRuMhJt_10serde_core2de7Visitor9visit_strpEB7_
FNDA:0,_RINvNtNtCs3Sh0jWajYhY_15benchmark_tests5serde12rust_version11deserializeQNtNtCs63YE6y62k4s_10serde_yaml2de22DeserializerFromEventsECshbbKNLWs3nU_5bench
FNDA:0,_RINvXNtNtCs3Sh0jWajYhY_15benchmark_tests5serde12rust_versionNtB3_12FieldVisitorNtNtCsbpKTr3ogt23_10serde_core2de7Visitor9visit_strNtNtCs63YE6y62k4s_10serde_yaml5error5ErrorECshbbKNLWs3nU_5bench
FNDA:0,_RINvNtNtCs3Sh0jWajYhY_15benchmark_tests5serde7runs_on11deserializeQNtNtCs63YE6y62k4s_10serde_yaml2de22DeserializerFromEventsECshbbKNLWs3nU_5bench
FNDA:0,_RINvXNtNtCs3Sh0jWajYhY_15benchmark_tests5serde7runs_onNtB3_12FieldVisitorNtNtCsbpKTr3ogt23_10serde_core2de7Visitor9visit_strNtNtCs63YE6y62k4s_10serde_yaml5error5ErrorECshbbKNLWs3nU_5bench
FNDA:0,_RNvXNtNtCs3Sh0jWajYhY_15benchmark_tests5serde7runs_onNtB2_12FieldVisitorNtNtCsbpKTr3ogt23_10serde_core2de7Visitor9expecting
FNDA:0,_RNvXNtNtCs3Sh0jWajYhY_15benchmark_tests5serde12rust_versionNtB2_12FieldVisitorNtNtCsbpKTr3ogt23_10serde_core2de7Visitor9expecting
FNDA:0,_RINvNtNtCs3Sh0jWajYhY_15benchmark_tests5serde12rust_version11deserializepEB6_
FNDA:0,_RINvNtNtCs3Sh0jWajYhY_15benchmark_tests5serde12rust_version9serializepEB6_
FNDA:0,_RINvNtNtCs3Sh0jWajYhY_15benchmark_tests5serde7runs_on11deserializepEB6_
FNDA:0,_RINvNtNtCs3Sh0jWajYhY_15benchmark_tests5serde7runs_on9serializepEB6_
FNDA:0,_RINvXNtNtCs3Sh0jWajYhY_15benchmark_tests5serde12rust_versionNtB3_12FieldVisitorNtNtCsbpKTr3ogt23_10serde_core2de7Visitor12visit_stringpEB7_
FNDA:0,_RINvXNtNtCs3Sh0jWajYhY_15benchmark_tests5serde12rust_versionNtB3_12FieldVisitorNtNtCsbpKTr3ogt23_10serde_core2de7Visitor9visit_strpEB7_
FNDA:0,_RINvXNtNtCs3Sh0jWajYhY_15benchmark_tests5serde7runs_onNtB3_12FieldVisitorNtNtCsbpKTr3ogt23_10serde_core2de7Visitor12visit_stringpEB7_
FNDA:0,_RINvXNtNtCs3Sh0jWajYhY_15benchmark_tests5serde7runs_onNtB3_12FieldVisitorNtNtCsbpKTr3ogt23_10serde_core2de7Visitor9visit_strpEB7_
FNDA:0,_RINvNtNtCsgE96Xjj5vmo_15benchmark_tests5serde12rust_version11deserializeQNtNtCs63YE6y62k4s_10serde_yaml2de22DeserializerFromEventsECsj80dPWEOQyk_5bench
FNDA:0,_RINvXNtNtCsgE96Xjj5vmo_15benchmark_tests5serde12rust_versionNtB3_12FieldVisitorNtNtCsbpKTr3ogt23_10serde_core2de7Visitor9visit_strNtNtCs63YE6y62k4s_10serde_yaml5error5ErrorECsj80dPWEOQyk_5bench
FNDA:0,_RINvNtNtCsgE96Xjj5vmo_15benchmark_tests5serde7runs_on11deserializeQNtNtCs63YE6y62k4s_10serde_yaml2de22DeserializerFromEventsECsj80dPWEOQyk_5bench
FNDA:0,_RINvXNtNtCsgE96Xjj5vmo_15benchmark_tests5serde7runs_onNtB3_12FieldVisitorNtNtCsbpKTr3ogt23_10serde_core2de7Visitor9visit_strNtNtCs63YE6y62k4s_10serde_yaml5error5ErrorECsj80dPWEOQyk_5bench
FNDA:0,_RNvXNtNtCsgE96Xjj5vmo_15benchmark_tests5serde7runs_onNtB2_12FieldVisitorNtNtCsbpKTr3ogt23_10serde_core2de7Visitor9expecting
FNDA:0,_RNvXNtNtCsgE96Xjj5vmo_15benchmark_tests5serde12rust_versionNtB2_12FieldVisitorNtNtCsbpKTr3ogt23_10serde_core2de7Visitor9expecting
FNDA:0,_RINvNtNtCsgE96Xjj5vmo_15benchmark_tests5serde12rust_version11deserializepEB6_
FNDA:0,_RINvNtNtCsgE96Xjj5vmo_15benchmark_tests5serde12rust_version9serializepEB6_
FNDA:0,_RINvNtNtCsgE96Xjj5vmo_15benchmark_tests5serde7runs_on11deserializepEB6_
FNDA:0,_RINvNtNtCsgE96Xjj5vmo_15benchmark_tests5serde7runs_on9serializepEB6_
FNDA:0,_RINvXNtNtCsgE96Xjj5vmo_15benchmark_tests5serde12rust_versionNtB3_12FieldVisitorNtNtCsbpKTr3ogt23_10serde_core2de7Visitor12visit_stringpEB7_
FNDA:0,_RINvXNtNtCsgE96Xjj5vmo_15benchmark_tests5serde12rust_versionNtB3_12FieldVisitorNtNtCsbpKTr3ogt23_10serde_core2de7Visitor9visit_strpEB7_
FNDA:0,_RINvXNtNtCsgE96Xjj5vmo_15benchmark_tests5serde7runs_onNtB3_12FieldVisitorNtNtCsbpKTr3ogt23_10serde_core2de7Visitor12visit_stringpEB7_
FNDA:0,_RINvXNtNtCsgE96Xjj5vmo_15benchmark_tests5serde7runs_onNtB3_12FieldVisitorNtNtCsbpKTr3ogt23_10serde_core2de7Visitor9visit_strpEB7_
FNDA:32,_RINvNtNtCsjjTVGzuT1qt_15benchmark_tests5serde12rust_version11deserializeQNtNtCsl3jYT7btqjt_10serde_yaml2de22DeserializerFromEventsECsiSg2epYAadG_5bench
FNDA:32,_RINvXNtNtCsjjTVGzuT1qt_15benchmark_tests5serde12rust_versionNtB3_12FieldVisitorNtNtCsjemrbRuMhJt_10serde_core2de7Visitor9visit_strNtNtCsl3jYT7btqjt_10serde_yaml5error5ErrorECsiSg2epYAadG_5bench
FNDA:132,_RINvNtNtCsjjTVGzuT1qt_15benchmark_tests5serde7runs_on11deserializeQNtNtCsl3jYT7btqjt_10serde_yaml2de22DeserializerFromEventsECsiSg2epYAadG_5bench
FNDA:132,_RINvXNtNtCsjjTVGzuT1qt_15benchmark_tests5serde7runs_onNtB3_12FieldVisitorNtNtCsjemrbRuMhJt_10serde_core2de7Visitor9visit_strNtNtCsl3jYT7btqjt_10serde_yaml5error5ErrorECsiSg2epYAadG_5bench
FNDA:0,_RNvXNtNtCsjjTVGzuT1qt_15benchmark_tests5serde12rust_versionNtB2_12FieldVisitorNtNtCsjemrbRuMhJt_10serde_core2de7Visitor9expecting
FNDA:0,_RNvXNtNtCsjjTVGzuT1qt_15benchmark_tests5serde7runs_onNtB2_12FieldVisitorNtNtCsjemrbRuMhJt_10serde_core2de7Visitor9expecting
FNDA:0,_RINvNtNtCsjjTVGzuT1qt_15benchmark_tests5serde12rust_version11deserializepEB6_
FNDA:0,_RINvNtNtCsjjTVGzuT1qt_15benchmark_tests5serde12rust_version9serializepEB6_
FNDA:0,_RINvNtNtCsjjTVGzuT1qt_15benchmark_tests5serde7runs_on11deserializepEB6_
FNDA:0,_RINvNtNtCsjjTVGzuT1qt_15benchmark_tests5serde7runs_on9serializepEB6_
FNDA:0,_RINvXNtNtCsjjTVGzuT1qt_15benchmark_tests5serde12rust_versionNtB3_12FieldVisitorNtNtCsjemrbRuMhJt_10serde_core2de7Visitor12visit_stringpEB7_
FNDA:0,_RINvXNtNtCsjjTVGzuT1qt_15benchmark_tests5serde12rust_versionNtB3_12FieldVisitorNtNtCsjemrbRuMhJt_10serde_core2de7Visitor9visit_strpEB7_
FNDA:0,_RINvXNtNtCsjjTVGzuT1qt_15benchmark_tests5serde7runs_onNtB3_12FieldVisitorNtNtCsjemrbRuMhJt_10serde_core2de7Visitor12visit_stringpEB7_
FNDA:0,_RINvXNtNtCsjjTVGzuT1qt_15benchmark_tests5serde7runs_onNtB3_12FieldVisitorNtNtCsjemrbRuMhJt_10serde_core2de7Visitor9visit_strpEB7_
FNF:10
FNH:4
DA:10,0
DA:11,0
DA:12,0
DA:14,0
DA:15,0
DA:16,0
DA:17,0
DA:18,0
DA:19,0
DA:20,0
DA:21,0
DA:22,0
DA:23,0
DA:24,0
DA:25,0
DA:26,0
DA:28,0
DA:30,0
DA:37,0
DA:38,0
DA:39,0
DA:41,32
DA:42,32
DA:43,32
DA:45,32
DA:46,32
DA:47,8
DA:48,24
DA:49,8
DA:50,16
DA:51,8
DA:52,8
DA:53,8
DA:54,0
DA:55,0
DA:56,0
DA:57,0
DA:59,0
DA:61,32
DA:63,0
DA:64,0
DA:65,0
DA:67,0
DA:68,0
DA:71,32
DA:72,32
DA:73,32
DA:75,32
DA:76,32
DA:86,0
DA:87,0
DA:88,0
DA:90,0
DA:91,0
DA:92,0
DA:93,0
DA:94,0
DA:95,0
DA:97,0
DA:99,0
DA:106,0
DA:107,0
DA:108,0
DA:110,132
DA:111,132
DA:112,132
DA:114,132
DA:115,132
DA:116,92
DA:118,40
DA:120,132
DA:122,0
DA:123,0
DA:124,0
DA:126,0
DA:127,0
DA:130,132
DA:131,132
DA:132,132
DA:134,132
DA:135,132
BRF:0
BRH:0
LF:81
LH:31
end_of_record
SF:/fast/lenny/workspace/programming/gungraun/gungraun/gungraun-macros/src/bin_bench.rs
FN:284,_RNCNvMs1_NtCseTlsjhGl7ts_15gungraun_macros9bin_benchNtB7_5Bench23parse_benches_attribute0B9_
FN:455,_RNCNvMs4_NtCseTlsjhGl7ts_15gungraun_macros9bin_benchNtB7_15BinaryBenchmark15extract_benches0B9_
FN:480,_RNCNvMs4_NtCseTlsjhGl7ts_15gungraun_macros9bin_benchNtB7_15BinaryBenchmark15extract_benchess_0B9_
FN:91,_RNvMs0_NtCseTlsjhGl7ts_15gungraun_macros9bin_benchNtB5_17AssistantRenderer14render_as_code
FN:137,_RNvMs0_NtCseTlsjhGl7ts_15gungraun_macros9bin_benchNtB5_17AssistantRenderer16render_as_member
FN:108,_RNvMs0_NtCseTlsjhGl7ts_15gungraun_macros9bin_benchNtB5_17AssistantRenderer19render_as_iter_code
FN:297,_RNvMs1_NtCseTlsjhGl7ts_15gungraun_macros9bin_benchNtB5_5Bench14render_as_code
FN:346,_RNvMs1_NtCseTlsjhGl7ts_15gungraun_macros9bin_benchNtB5_5Bench16render_as_member
FN:155,_RNvMs1_NtCseTlsjhGl7ts_15gungraun_macros9bin_benchNtB5_5Bench21parse_bench_attribute
FN:217,_RNvMs1_NtCseTlsjhGl7ts_15gungraun_macros9bin_benchNtB5_5Bench23parse_benches_attribute
FN:401,_RNvMs2_NtCseTlsjhGl7ts_15gungraun_macros9bin_benchNtB5_11BenchConfig14render_as_code
FN:414,_RNvMs2_NtCseTlsjhGl7ts_15gungraun_macros9bin_benchNtB5_11BenchConfig16render_as_member
FN:397,_RNvMs2_NtCseTlsjhGl7ts_15gungraun_macros9bin_benchNtB5_11BenchConfig5ident
FN:564,_RNvMs4_NtCseTlsjhGl7ts_15gungraun_macros9bin_benchNtB5_15BinaryBenchmark14render_benches
FN:434,_RNvMs4_NtCseTlsjhGl7ts_15gungraun_macros9bin_benchNtB5_15BinaryBenchmark15extract_benches
FN:523,_RNvMs4_NtCseTlsjhGl7ts_15gungraun_macros9bin_benchNtB5_15BinaryBenchmark17render_standalone
FN:637,_RNvMs6_NtCseTlsjhGl7ts_15gungraun_macros9bin_benchNtB5_21BinaryBenchmarkConfig14render_as_code
FN:674,_RNvMs9_NtCseTlsjhGl7ts_15gungraun_macros9bin_benchNtB5_5Setup10parse_pair
FN:716,_RNvMs9_NtCseTlsjhGl7ts_15gungraun_macros9bin_benchNtB5_5Setup14render_as_code
FN:724,_RNvMs9_NtCseTlsjhGl7ts_15gungraun_macros9bin_benchNtB5_5Setup16render_as_member
FN:720,_RNvMs9_NtCseTlsjhGl7ts_15gungraun_macros9bin_benchNtB5_5Setup19render_as_iter_code
FN:696,_RNvMs9_NtCseTlsjhGl7ts_15gungraun_macros9bin_benchNtB5_5Setup19to_string_with_args
FN:705,_RNvMs9_NtCseTlsjhGl7ts_15gungraun_macros9bin_benchNtB5_5Setup19to_string_with_iter
FN:670,_RNvMs9_NtCseTlsjhGl7ts_15gungraun_macros9bin_benchNtB5_5Setup5ident
FN:690,_RNvMs9_NtCseTlsjhGl7ts_15gungraun_macros9bin_benchNtB5_5Setup6update
FN:685,_RNvMs9_NtCseTlsjhGl7ts_15gungraun_macros9bin_benchNtB5_5Setup7is_some
FN:734,_RNvMsa_NtCseTlsjhGl7ts_15gungraun_macros9bin_benchNtB5_8Teardown10parse_pair
FN:752,_RNvMsa_NtCseTlsjhGl7ts_15gungraun_macros9bin_benchNtB5_8Teardown14render_as_code
FN:760,_RNvMsa_NtCseTlsjhGl7ts_15gungraun_macros9bin_benchNtB5_8Teardown16render_as_member
FN:756,_RNvMsa_NtCseTlsjhGl7ts_15gungraun_macros9bin_benchNtB5_8Teardown19render_as_iter_code
FN:730,_RNvMsa_NtCseTlsjhGl7ts_15gungraun_macros9bin_benchNtB5_8Teardown5ident
FN:746,_RNvMsa_NtCseTlsjhGl7ts_15gungraun_macros9bin_benchNtB5_8Teardown6update
FN:765,_RNvNtCseTlsjhGl7ts_15gungraun_macros9bin_bench6render
FN:78,_RNvXNtCseTlsjhGl7ts_15gungraun_macros9bin_benchNtB2_4ArgsNtNtCsitvrDxV7QKm_5quote9to_tokens8ToTokens9to_tokens
FN:425,_RNvXs3_NtCseTlsjhGl7ts_15gungraun_macros9bin_benchNtB5_9BenchModeINtNtCsgEmfK2I1SDS_4core7convert4FromNtNtB7_6common9BenchModeE4from
FN:601,_RNvXs5_NtCseTlsjhGl7ts_15gungraun_macros9bin_benchNtB5_15BinaryBenchmarkNtNtCska53IhjTmSY_3syn5parse5Parse5parse
FN:658,_RNvXs7_NtCseTlsjhGl7ts_15gungraun_macros9bin_benchNtB5_6ConstsINtNtCsgEmfK2I1SDS_4core7convert4FromNtNtB7_6common6ConstsE4from
FN:664,_RNvXs8_NtCseTlsjhGl7ts_15gungraun_macros9bin_benchNtB5_4IterNtNtCsgEmfK2I1SDS_4core3fmt7Display3fmt
FN:84,_RNvXs_NtCseTlsjhGl7ts_15gungraun_macros9bin_benchNtB4_4ArgsNtNtCsgEmfK2I1SDS_4core3fmt7Display3fmt
FN:284,_RNCNvMs1_NtCsky0f8fcmJ7i_15gungraun_macros9bin_benchNtB7_5Bench23parse_benches_attribute0B9_
FN:455,_RNCNvMs4_NtCsky0f8fcmJ7i_15gungraun_macros9bin_benchNtB7_15BinaryBenchmark15extract_benches0B9_
FN:480,_RNCNvMs4_NtCsky0f8fcmJ7i_15gungraun_macros9bin_benchNtB7_15BinaryBenchmark15extract_benchess_0B9_
FN:91,_RNvMs0_NtCsky0f8fcmJ7i_15gungraun_macros9bin_benchNtB5_17AssistantRenderer14render_as_code
FN:137,_RNvMs0_NtCsky0f8fcmJ7i_15gungraun_macros9bin_benchNtB5_17AssistantRenderer16render_as_member
FN:108,_RNvMs0_NtCsky0f8fcmJ7i_15gungraun_macros9bin_benchNtB5_17AssistantRenderer19render_as_iter_code
FN:297,_RNvMs1_NtCsky0f8fcmJ7i_15gungraun_macros9bin_benchNtB5_5Bench14render_as_code
FN:346,_RNvMs1_NtCsky0f8fcmJ7i_15gungraun_macros9bin_benchNtB5_5Bench16render_as_member
FN:155,_RNvMs1_NtCsky0f8fcmJ7i_15gungraun_macros9bin_benchNtB5_5Bench21parse_bench_attribute
FN:217,_RNvMs1_NtCsky0f8fcmJ7i_15gungraun_macros9bin_benchNtB5_5Bench23parse_benches_attribute
FN:401,_RNvMs2_NtCsky0f8fcmJ7i_15gungraun_macros9bin_benchNtB5_11BenchConfig14render_as_code
FN:414,_RNvMs2_NtCsky0f8fcmJ7i_15gungraun_macros9bin_benchNtB5_11BenchConfig16render_as_member
FN:397,_RNvMs2_NtCsky0f8fcmJ7i_15gungraun_macros9bin_benchNtB5_11BenchConfig5ident
FN:564,_RNvMs4_NtCsky0f8fcmJ7i_15gungraun_macros9bin_benchNtB5_15BinaryBenchmark14render_benches
FN:434,_RNvMs4_NtCsky0f8fcmJ7i_15gungraun_macros9bin_benchNtB5_15BinaryBenchmark15extract_benches
FN:523,_RNvMs4_NtCsky0f8fcmJ7i_15gungraun_macros9bin_benchNtB5_15BinaryBenchmark17render_standalone
FN:637,_RNvMs6_NtCsky0f8fcmJ7i_15gungraun_macros9bin_benchNtB5_21BinaryBenchmarkConfig14render_as_code
FN:674,_RNvMs9_NtCsky0f8fcmJ7i_15gungraun_macros9bin_benchNtB5_5Setup10parse_pair
FN:716,_RNvMs9_NtCsky0f8fcmJ7i_15gungraun_macros9bin_benchNtB5_5Setup14render_as_code
FN:724,_RNvMs9_NtCsky0f8fcmJ7i_15gungraun_macros9bin_benchNtB5_5Setup16render_as_member
FN:720,_RNvMs9_NtCsky0f8fcmJ7i_15gungraun_macros9bin_benchNtB5_5Setup19render_as_iter_code
FN:696,_RNvMs9_NtCsky0f8fcmJ7i_15gungraun_macros9bin_benchNtB5_5Setup19to_string_with_args
FN:705,_RNvMs9_NtCsky0f8fcmJ7i_15gungraun_macros9bin_benchNtB5_5Setup19to_string_with_iter
FN:670,_RNvMs9_NtCsky0f8fcmJ7i_15gungraun_macros9bin_benchNtB5_5Setup5ident
FN:690,_RNvMs9_NtCsky0f8fcmJ7i_15gungraun_macros9bin_benchNtB5_5Setup6update
FN:685,_RNvMs9_NtCsky0f8fcmJ7i_15gungraun_macros9bin_benchNtB5_5Setup7is_some
FN:734,_RNvMsa_NtCsky0f8fcmJ7i_15gungraun_macros9bin_benchNtB5_8Teardown10parse_pair
FN:752,_RNvMsa_NtCsky0f8fcmJ7i_15gungraun_macros9bin_benchNtB5_8Teardown14render_as_code
FN:760,_RNvMsa_NtCsky0f8fcmJ7i_15gungraun_macros9bin_benchNtB5_8Teardown16render_as_member
FN:756,_RNvMsa_NtCsky0f8fcmJ7i_15gungraun_macros9bin_benchNtB5_8Teardown19render_as_iter_code
FN:730,_RNvMsa_NtCsky0f8fcmJ7i_15gungraun_macros9bin_benchNtB5_8Teardown5ident
FN:746,_RNvMsa_NtCsky0f8fcmJ7i_15gungraun_macros9bin_benchNtB5_8Teardown6update
FN:765,_RNvNtCsky0f8fcmJ7i_15gungraun_macros9bin_bench6render
FN:78,_RNvXNtCsky0f8fcmJ7i_15gungraun_macros9bin_benchNtB2_4ArgsNtNtCs3me4nhu3r8b_5quote9to_tokens8ToTokens9to_tokens
FN:425,_RNvXs3_NtCsky0f8fcmJ7i_15gungraun_macros9bin_benchNtB5_9BenchModeINtNtCsgEmfK2I1SDS_4core7convert4FromNtNtB7_6common9BenchModeE4from
FN:601,_RNvXs5_NtCsky0f8fcmJ7i_15gungraun_macros9bin_benchNtB5_15BinaryBenchmarkNtNtCsihgYlrnpvvS_3syn5parse5Parse5parse
FN:658,_RNvXs7_NtCsky0f8fcmJ7i_15gungraun_macros9bin_benchNtB5_6ConstsINtNtCsgEmfK2I1SDS_4core7convert4FromNtNtB7_6common6ConstsE4from
FN:664,_RNvXs8_NtCsky0f8fcmJ7i_15gungraun_macros9bin_benchNtB5_4IterNtNtCsgEmfK2I1SDS_4core3fmt7Display3fmt
FN:84,_RNvXs_NtCsky0f8fcmJ7i_15gungraun_macros9bin_benchNtB4_4ArgsNtNtCsgEmfK2I1SDS_4core3fmt7Display3fmt
FN:284,_RNCNvMs1_NtCseH83rItu4NK_15gungraun_macros9bin_benchNtB7_5Bench23parse_benches_attribute0B9_
FN:455,_RNCNvMs4_NtCseH83rItu4NK_15gungraun_macros9bin_benchNtB7_15BinaryBenchmark15extract_benches0B9_
FN:480,_RNCNvMs4_NtCseH83rItu4NK_15gungraun_macros9bin_benchNtB7_15BinaryBenchmark15extract_benchess_0B9_
FN:91,_RNvMs0_NtCseH83rItu4NK_15gungraun_macros9bin_benchNtB5_17AssistantRenderer14render_as_code
FN:137,_RNvMs0_NtCseH83rItu4NK_15gungraun_macros9bin_benchNtB5_17AssistantRenderer16render_as_member
FN:108,_RNvMs0_NtCseH83rItu4NK_15gungraun_macros9bin_benchNtB5_17AssistantRenderer19render_as_iter_code
FN:297,_RNvMs1_NtCseH83rItu4NK_15gungraun_macros9bin_benchNtB5_5Bench14render_as_code
FN:346,_RNvMs1_NtCseH83rItu4NK_15gungraun_macros9bin_benchNtB5_5Bench16render_as_member
FN:155,_RNvMs1_NtCseH83rItu4NK_15gungraun_macros9bin_benchNtB5_5Bench21parse_bench_attribute
FN:217,_RNvMs1_NtCseH83rItu4NK_15gungraun_macros9bin_benchNtB5_5Bench23parse_benches_attribute
FN:401,_RNvMs2_NtCseH83rItu4NK_15gungraun_macros9bin_benchNtB5_11BenchConfig14render_as_code
FN:414,_RNvMs2_NtCseH83rItu4NK_15gungraun_macros9bin_benchNtB5_11BenchConfig16render_as_member
FN:397,_RNvMs2_NtCseH83rItu4NK_15gungraun_macros9bin_benchNtB5_11BenchConfig5ident
FN:564,_RNvMs4_NtCseH83rItu4NK_15gungraun_macros9bin_benchNtB5_15BinaryBenchmark14render_benches
FN:434,_RNvMs4_NtCseH83rItu4NK_15gungraun_macros9bin_benchNtB5_15BinaryBenchmark15extract_benches
FN:523,_RNvMs4_NtCseH83rItu4NK_15gungraun_macros9bin_benchNtB5_15BinaryBenchmark17render_standalone
FN:637,_RNvMs6_NtCseH83rItu4NK_15gungraun_macros9bin_benchNtB5_21BinaryBenchmarkConfig14render_as_code
FN:674,_RNvMs9_NtCseH83rItu4NK_15gungraun_macros9bin_benchNtB5_5Setup10parse_pair
FN:716,_RNvMs9_NtCseH83rItu4NK_15gungraun_macros9bin_benchNtB5_5Setup14render_as_code
FN:724,_RNvMs9_NtCseH83rItu4NK_15gungraun_macros9bin_benchNtB5_5Setup16render_as_member
FN:720,_RNvMs9_NtCseH83rItu4NK_15gungraun_macros9bin_benchNtB5_5Setup19render_as_iter_code
FN:696,_RNvMs9_NtCseH83rItu4NK_15gungraun_macros9bin_benchNtB5_5Setup19to_string_with_args
FN:705,_RNvMs9_NtCseH83rItu4NK_15gungraun_macros9bin_benchNtB5_5Setup19to_string_with_iter
FN:670,_RNvMs9_NtCseH83rItu4NK_15gungraun_macros9bin_benchNtB5_5Setup5ident
FN:690,_RNvMs9_NtCseH83rItu4NK_15gungraun_macros9bin_benchNtB5_5Setup6update
FN:685,_RNvMs9_NtCseH83rItu4NK_15gungraun_macros9bin_benchNtB5_5Setup7is_some
FN:734,_RNvMsa_NtCseH83rItu4NK_15gungraun_macros9bin_benchNtB5_8Teardown10parse_pair
FN:752,_RNvMsa_NtCseH83rItu4NK_15gungraun_macros9bin_benchNtB5_8Teardown14render_as_code
FN:760,_RNvMsa_NtCseH83rItu4NK_15gungraun_macros9bin_benchNtB5_8Teardown16render_as_member
FN:756,_RNvMsa_NtCseH83rItu4NK_15gungraun_macros9bin_benchNtB5_8Teardown19render_as_iter_code
FN:730,_RNvMsa_NtCseH83rItu4NK_15gungraun_macros9bin_benchNtB5_8Teardown5ident
FN:746,_RNvMsa_NtCseH83rItu4NK_15gungraun_macros9bin_benchNtB5_8Teardown6update
FN:765,_RNvNtCseH83rItu4NK_15gungraun_macros9bin_bench6render
FN:78,_RNvXNtCseH83rItu4NK_15gungraun_macros9bin_benchNtB2_4ArgsNtNtCs3me4nhu3r8b_5quote9to_tokens8ToTokens9to_tokens
FN:425,_RNvXs3_NtCseH83rItu4NK_15gungraun_macros9bin_benchNtB5_9BenchModeINtNtCsgEmfK2I1SDS_4core7convert4FromNtNtB7_6common9BenchModeE4from
FN:601,_RNvXs5_NtCseH83rItu4NK_15gungraun_macros9bin_benchNtB5_15BinaryBenchmarkNtNtCsihgYlrnpvvS_3syn5parse5Parse5parse
FN:658,_RNvXs7_NtCseH83rItu4NK_15gungraun_macros9bin_benchNtB5_6ConstsINtNtCsgEmfK2I1SDS_4core7convert4FromNtNtB7_6common6ConstsE4from
FN:664,_RNvXs8_NtCseH83rItu4NK_15gungraun_macros9bin_benchNtB5_4IterNtNtCsgEmfK2I1SDS_4core3fmt7Display3fmt
FN:84,_RNvXs_NtCseH83rItu4NK_15gungraun_macros9bin_benchNtB4_4ArgsNtNtCsgEmfK2I1SDS_4core3fmt7Display3fmt
FN:283,_RNCNvMs1_NtCs4VtoIICFLcm_15gungraun_macros9bin_benchNtB7_5Bench23parse_benches_attribute0B9_
FN:455,_RNCNvMs4_NtCs4VtoIICFLcm_15gungraun_macros9bin_benchNtB7_15BinaryBenchmark15extract_benches0B9_
FN:480,_RNCNvMs4_NtCs4VtoIICFLcm_15gungraun_macros9bin_benchNtB7_15BinaryBenchmark15extract_benchess_0B9_
FN:91,_RNvMs0_NtCs4VtoIICFLcm_15gungraun_macros9bin_benchNtB5_17AssistantRenderer14render_as_code
FN:137,_RNvMs0_NtCs4VtoIICFLcm_15gungraun_macros9bin_benchNtB5_17AssistantRenderer16render_as_member
FN:108,_RNvMs0_NtCs4VtoIICFLcm_15gungraun_macros9bin_benchNtB5_17AssistantRenderer19render_as_iter_code
FN:297,_RNvMs1_NtCs4VtoIICFLcm_15gungraun_macros9bin_benchNtB5_5Bench14render_as_code
FN:346,_RNvMs1_NtCs4VtoIICFLcm_15gungraun_macros9bin_benchNtB5_5Bench16render_as_member
FN:155,_RNvMs1_NtCs4VtoIICFLcm_15gungraun_macros9bin_benchNtB5_5Bench21parse_bench_attribute
FN:217,_RNvMs1_NtCs4VtoIICFLcm_15gungraun_macros9bin_benchNtB5_5Bench23parse_benches_attribute
FN:401,_RNvMs2_NtCs4VtoIICFLcm_15gungraun_macros9bin_benchNtB5_11BenchConfig14render_as_code
FN:414,_RNvMs2_NtCs4VtoIICFLcm_15gungraun_macros9bin_benchNtB5_11BenchConfig16render_as_member
FN:397,_RNvMs2_NtCs4VtoIICFLcm_15gungraun_macros9bin_benchNtB5_11BenchConfig5ident
FN:564,_RNvMs4_NtCs4VtoIICFLcm_15gungraun_macros9bin_benchNtB5_15BinaryBenchmark14render_benches
FN:434,_RNvMs4_NtCs4VtoIICFLcm_15gungraun_macros9bin_benchNtB5_15BinaryBenchmark15extract_benches
FN:523,_RNvMs4_NtCs4VtoIICFLcm_15gungraun_macros9bin_benchNtB5_15BinaryBenchmark17render_standalone
FN:637,_RNvMs6_NtCs4VtoIICFLcm_15gungraun_macros9bin_benchNtB5_21BinaryBenchmarkConfig14render_as_code
FN:674,_RNvMs9_NtCs4VtoIICFLcm_15gungraun_macros9bin_benchNtB5_5Setup10parse_pair
FN:716,_RNvMs9_NtCs4VtoIICFLcm_15gungraun_macros9bin_benchNtB5_5Setup14render_as_code
FN:724,_RNvMs9_NtCs4VtoIICFLcm_15gungraun_macros9bin_benchNtB5_5Setup16render_as_member
FN:720,_RNvMs9_NtCs4VtoIICFLcm_15gungraun_macros9bin_benchNtB5_5Setup19render_as_iter_code
FN:696,_RNvMs9_NtCs4VtoIICFLcm_15gungraun_macros9bin_benchNtB5_5Setup19to_string_with_args
FN:705,_RNvMs9_NtCs4VtoIICFLcm_15gungraun_macros9bin_benchNtB5_5Setup19to_string_with_iter
FN:670,_RNvMs9_NtCs4VtoIICFLcm_15gungraun_macros9bin_benchNtB5_5Setup5ident
FN:690,_RNvMs9_NtCs4VtoIICFLcm_15gungraun_macros9bin_benchNtB5_5Setup6update
FN:685,_RNvMs9_NtCs4VtoIICFLcm_15gungraun_macros9bin_benchNtB5_5Setup7is_some
FN:734,_RNvMsa_NtCs4VtoIICFLcm_15gungraun_macros9bin_benchNtB5_8Teardown10parse_pair
FN:752,_RNvMsa_NtCs4VtoIICFLcm_15gungraun_macros9bin_benchNtB5_8Teardown14render_as_code
FN:760,_RNvMsa_NtCs4VtoIICFLcm_15gungraun_macros9bin_benchNtB5_8Teardown16render_as_member
FN:756,_RNvMsa_NtCs4VtoIICFLcm_15gungraun_macros9bin_benchNtB5_8Teardown19render_as_iter_code
FN:730,_RNvMsa_NtCs4VtoIICFLcm_15gungraun_macros9bin_benchNtB5_8Teardown5ident
FN:746,_RNvMsa_NtCs4VtoIICFLcm_15gungraun_macros9bin_benchNtB5_8Teardown6update
FN:765,_RNvNtCs4VtoIICFLcm_15gungraun_macros9bin_bench6render
FN:78,_RNvXNtCs4VtoIICFLcm_15gungraun_macros9bin_benchNtB2_4ArgsNtNtCs5zTqYJ1QKLS_5quote9to_tokens8ToTokens9to_tokens
FN:425,_RNvXs3_NtCs4VtoIICFLcm_15gungraun_macros9bin_benchNtB5_9BenchModeINtNtCs2va5m0jqTTM_4core7convert4FromNtNtB7_6common9BenchModeE4from
FN:601,_RNvXs5_NtCs4VtoIICFLcm_15gungraun_macros9bin_benchNtB5_15BinaryBenchmarkNtNtCs7YDbPhiuUg2_3syn5parse5Parse5parse
FN:658,_RNvXs7_NtCs4VtoIICFLcm_15gungraun_macros9bin_benchNtB5_6ConstsINtNtCs2va5m0jqTTM_4core7convert4FromNtNtB7_6common6ConstsE4from
FN:664,_RNvXs8_NtCs4VtoIICFLcm_15gungraun_macros9bin_benchNtB5_4IterNtNtCs2va5m0jqTTM_4core3fmt7Display3fmt
FN:84,_RNvXs_NtCs4VtoIICFLcm_15gungraun_macros9bin_benchNtB4_4ArgsNtNtCs2va5m0jqTTM_4core3fmt7Display3fmt
FNDA:0,_RNCNvMs1_NtCseTlsjhGl7ts_15gungraun_macros9bin_benchNtB7_5Bench23parse_benches_attribute0B9_
FNDA:0,_RNCNvMs4_NtCseTlsjhGl7ts_15gungraun_macros9bin_benchNtB7_15BinaryBenchmark15extract_benches0B9_
FNDA:0,_RNCNvMs4_NtCseTlsjhGl7ts_15gungraun_macros9bin_benchNtB7_15BinaryBenchmark15extract_benchess_0B9_
FNDA:0,_RNvMs0_NtCseTlsjhGl7ts_15gungraun_macros9bin_benchNtB5_17AssistantRenderer14render_as_code
FNDA:0,_RNvMs0_NtCseTlsjhGl7ts_15gungraun_macros9bin_benchNtB5_17AssistantRenderer16render_as_member
FNDA:0,_RNvMs0_NtCseTlsjhGl7ts_15gungraun_macros9bin_benchNtB5_17AssistantRenderer19render_as_iter_code
FNDA:0,_RNvMs1_NtCseTlsjhGl7ts_15gungraun_macros9bin_benchNtB5_5Bench14render_as_code
FNDA:0,_RNvMs1_NtCseTlsjhGl7ts_15gungraun_macros9bin_benchNtB5_5Bench16render_as_member
FNDA:0,_RNvMs1_NtCseTlsjhGl7ts_15gungraun_macros9bin_benchNtB5_5Bench21parse_bench_attribute
FNDA:0,_RNvMs1_NtCseTlsjhGl7ts_15gungraun_macros9bin_benchNtB5_5Bench23parse_benches_attribute
FNDA:0,_RNvMs2_NtCseTlsjhGl7ts_15gungraun_macros9bin_benchNtB5_11BenchConfig14render_as_code
FNDA:0,_RNvMs2_NtCseTlsjhGl7ts_15gungraun_macros9bin_benchNtB5_11BenchConfig16render_as_member
FNDA:0,_RNvMs2_NtCseTlsjhGl7ts_15gungraun_macros9bin_benchNtB5_11BenchConfig5ident
FNDA:0,_RNvMs4_NtCseTlsjhGl7ts_15gungraun_macros9bin_benchNtB5_15BinaryBenchmark14render_benches
FNDA:0,_RNvMs4_NtCseTlsjhGl7ts_15gungraun_macros9bin_benchNtB5_15BinaryBenchmark15extract_benches
FNDA:0,_RNvMs4_NtCseTlsjhGl7ts_15gungraun_macros9bin_benchNtB5_15BinaryBenchmark17render_standalone
FNDA:0,_RNvMs6_NtCseTlsjhGl7ts_15gungraun_macros9bin_benchNtB5_21BinaryBenchmarkConfig14render_as_code
FNDA:0,_RNvMs9_NtCseTlsjhGl7ts_15gungraun_macros9bin_benchNtB5_5Setup10parse_pair
FNDA:0,_RNvMs9_NtCseTlsjhGl7ts_15gungraun_macros9bin_benchNtB5_5Setup14render_as_code
FNDA:0,_RNvMs9_NtCseTlsjhGl7ts_15gungraun_macros9bin_benchNtB5_5Setup16render_as_member
FNDA:0,_RNvMs9_NtCseTlsjhGl7ts_15gungraun_macros9bin_benchNtB5_5Setup19render_as_iter_code
FNDA:0,_RNvMs9_NtCseTlsjhGl7ts_15gungraun_macros9bin_benchNtB5_5Setup19to_string_with_args
FNDA:0,_RNvMs9_NtCseTlsjhGl7ts_15gungraun_macros9bin_benchNtB5_5Setup19to_string_with_iter
FNDA:0,_RNvMs9_NtCseTlsjhGl7ts_15gungraun_macros9bin_benchNtB5_5Setup5ident
FNDA:0,_RNvMs9_NtCseTlsjhGl7ts_15gungraun_macros9bin_benchNtB5_5Setup6update
FNDA:0,_RNvMs9_NtCseTlsjhGl7ts_15gungraun_macros9bin_benchNtB5_5Setup7is_some
FNDA:0,_RNvMsa_NtCseTlsjhGl7ts_15gungraun_macros9bin_benchNtB5_8Teardown10parse_pair
FNDA:0,_RNvMsa_NtCseTlsjhGl7ts_15gungraun_macros9bin_benchNtB5_8Teardown14render_as_code
FNDA:0,_RNvMsa_NtCseTlsjhGl7ts_15gungraun_macros9bin_benchNtB5_8Teardown16render_as_member
FNDA:0,_RNvMsa_NtCseTlsjhGl7ts_15gungraun_macros9bin_benchNtB5_8Teardown19render_as_iter_code
FNDA:0,_RNvMsa_NtCseTlsjhGl7ts_15gungraun_macros9bin_benchNtB5_8Teardown5ident
FNDA:0,_RNvMsa_NtCseTlsjhGl7ts_15gungraun_macros9bin_benchNtB5_8Teardown6update
FNDA:0,_RNvNtCseTlsjhGl7ts_15gungraun_macros9bin_bench6render
FNDA:0,_RNvXNtCseTlsjhGl7ts_15gungraun_macros9bin_benchNtB2_4ArgsNtNtCsitvrDxV7QKm_5quote9to_tokens8ToTokens9to_tokens
FNDA:0,_RNvXs3_NtCseTlsjhGl7ts_15gungraun_macros9bin_benchNtB5_9BenchModeINtNtCsgEmfK2I1SDS_4core7convert4FromNtNtB7_6common9BenchModeE4from
FNDA:0,_RNvXs5_NtCseTlsjhGl7ts_15gungraun_macros9bin_benchNtB5_15BinaryBenchmarkNtNtCska53IhjTmSY_3syn5parse5Parse5parse
FNDA:0,_RNvXs7_NtCseTlsjhGl7ts_15gungraun_macros9bin_benchNtB5_6ConstsINtNtCsgEmfK2I1SDS_4core7convert4FromNtNtB7_6common6ConstsE4from
FNDA:0,_RNvXs8_NtCseTlsjhGl7ts_15gungraun_macros9bin_benchNtB5_4IterNtNtCsgEmfK2I1SDS_4core3fmt7Display3fmt
FNDA:0,_RNvXs_NtCseTlsjhGl7ts_15gungraun_macros9bin_benchNtB4_4ArgsNtNtCsgEmfK2I1SDS_4core3fmt7Display3fmt
FNDA:40,_RNCNvMs1_NtCsky0f8fcmJ7i_15gungraun_macros9bin_benchNtB7_5Bench23parse_benches_attribute0B9_
FNDA:83,_RNCNvMs4_NtCsky0f8fcmJ7i_15gungraun_macros9bin_benchNtB7_15BinaryBenchmark15extract_benches0B9_
FNDA:24,_RNCNvMs4_NtCsky0f8fcmJ7i_15gungraun_macros9bin_benchNtB7_15BinaryBenchmark15extract_benchess_0B9_
FNDA:270,_RNvMs0_NtCsky0f8fcmJ7i_15gungraun_macros9bin_benchNtB5_17AssistantRenderer14render_as_code
FNDA:288,_RNvMs0_NtCsky0f8fcmJ7i_15gungraun_macros9bin_benchNtB5_17AssistantRenderer16render_as_member
FNDA:18,_RNvMs0_NtCsky0f8fcmJ7i_15gungraun_macros9bin_benchNtB5_17AssistantRenderer19render_as_iter_code
FNDA:123,_RNvMs1_NtCsky0f8fcmJ7i_15gungraun_macros9bin_benchNtB5_5Bench14render_as_code
FNDA:123,_RNvMs1_NtCsky0f8fcmJ7i_15gungraun_macros9bin_benchNtB5_5Bench16render_as_member
FNDA:83,_RNvMs1_NtCsky0f8fcmJ7i_15gungraun_macros9bin_benchNtB5_5Bench21parse_bench_attribute
FNDA:24,_RNvMs1_NtCsky0f8fcmJ7i_15gungraun_macros9bin_benchNtB5_5Bench23parse_benches_attribute
FNDA:123,_RNvMs2_NtCsky0f8fcmJ7i_15gungraun_macros9bin_benchNtB5_11BenchConfig14render_as_code
FNDA:123,_RNvMs2_NtCsky0f8fcmJ7i_15gungraun_macros9bin_benchNtB5_11BenchConfig16render_as_member
FNDA:38,_RNvMs2_NtCsky0f8fcmJ7i_15gungraun_macros9bin_benchNtB5_11BenchConfig5ident
FNDA:48,_RNvMs4_NtCsky0f8fcmJ7i_15gungraun_macros9bin_benchNtB5_15BinaryBenchmark14render_benches
FNDA:69,_RNvMs4_NtCsky0f8fcmJ7i_15gungraun_macros9bin_benchNtB5_15BinaryBenchmark15extract_benches
FNDA:21,_RNvMs4_NtCsky0f8fcmJ7i_15gungraun_macros9bin_benchNtB5_15BinaryBenchmark17render_standalone
FNDA:69,_RNvMs6_NtCsky0f8fcmJ7i_15gungraun_macros9bin_benchNtB5_21BinaryBenchmarkConfig14render_as_code
FNDA:40,_RNvMs9_NtCsky0f8fcmJ7i_15gungraun_macros9bin_benchNtB5_5Setup10parse_pair
FNDA:135,_RNvMs9_NtCsky0f8fcmJ7i_15gungraun_macros9bin_benchNtB5_5Setup14render_as_code
FNDA:144,_RNvMs9_NtCsky0f8fcmJ7i_15gungraun_macros9bin_benchNtB5_5Setup16render_as_member
FNDA:9,_RNvMs9_NtCsky0f8fcmJ7i_15gungraun_macros9bin_benchNtB5_5Setup19render_as_iter_code
FNDA:114,_RNvMs9_NtCsky0f8fcmJ7i_15gungraun_macros9bin_benchNtB5_5Setup19to_string_with_args
FNDA:9,_RNvMs9_NtCsky0f8fcmJ7i_15gungraun_macros9bin_benchNtB5_5Setup19to_string_with_iter
FNDA:288,_RNvMs9_NtCsky0f8fcmJ7i_15gungraun_macros9bin_benchNtB5_5Setup5ident
FNDA:107,_RNvMs9_NtCsky0f8fcmJ7i_15gungraun_macros9bin_benchNtB5_5Setup6update
FNDA:107,_RNvMs9_NtCsky0f8fcmJ7i_15gungraun_macros9bin_benchNtB5_5Setup7is_some
FNDA:22,_RNvMsa_NtCsky0f8fcmJ7i_15gungraun_macros9bin_benchNtB5_8Teardown10parse_pair
FNDA:135,_RNvMsa_NtCsky0f8fcmJ7i_15gungraun_macros9bin_benchNtB5_8Teardown14render_as_code
FNDA:144,_RNvMsa_NtCsky0f8fcmJ7i_15gungraun_macros9bin_benchNtB5_8Teardown16render_as_member
FNDA:9,_RNvMsa_NtCsky0f8fcmJ7i_15gungraun_macros9bin_benchNtB5_8Teardown19render_as_iter_code
FNDA:288,_RNvMsa_NtCsky0f8fcmJ7i_15gungraun_macros9bin_benchNtB5_8Teardown5ident
FNDA:107,_RNvMsa_NtCsky0f8fcmJ7i_15gungraun_macros9bin_benchNtB5_8Teardown6update
FNDA:69,_RNvNtCsky0f8fcmJ7i_15gungraun_macros9bin_bench6render
FNDA:21,_RNvXNtCsky0f8fcmJ7i_15gungraun_macros9bin_benchNtB2_4ArgsNtNtCs3me4nhu3r8b_5quote9to_tokens8ToTokens9to_tokens
FNDA:40,_RNvXs3_NtCsky0f8fcmJ7i_15gungraun_macros9bin_benchNtB5_9BenchModeINtNtCsgEmfK2I1SDS_4core7convert4FromNtNtB7_6common9BenchModeE4from
FNDA:69,_RNvXs5_NtCsky0f8fcmJ7i_15gungraun_macros9bin_benchNtB5_15BinaryBenchmarkNtNtCsihgYlrnpvvS_3syn5parse5Parse5parse
FNDA:16,_RNvXs7_NtCsky0f8fcmJ7i_15gungraun_macros9bin_benchNtB5_6ConstsINtNtCsgEmfK2I1SDS_4core7convert4FromNtNtB7_6common6ConstsE4from
FNDA:9,_RNvXs8_NtCsky0f8fcmJ7i_15gungraun_macros9bin_benchNtB5_4IterNtNtCsgEmfK2I1SDS_4core3fmt7Display3fmt
FNDA:114,_RNvXs_NtCsky0f8fcmJ7i_15gungraun_macros9bin_benchNtB4_4ArgsNtNtCsgEmfK2I1SDS_4core3fmt7Display3fmt
FNDA:0,_RNCNvMs1_NtCseH83rItu4NK_15gungraun_macros9bin_benchNtB7_5Bench23parse_benches_attribute0B9_
FNDA:0,_RNCNvMs4_NtCseH83rItu4NK_15gungraun_macros9bin_benchNtB7_15BinaryBenchmark15extract_benches0B9_
FNDA:0,_RNCNvMs4_NtCseH83rItu4NK_15gungraun_macros9bin_benchNtB7_15BinaryBenchmark15extract_benchess_0B9_
FNDA:0,_RNvMs0_NtCseH83rItu4NK_15gungraun_macros9bin_benchNtB5_17AssistantRenderer14render_as_code
FNDA:0,_RNvMs0_NtCseH83rItu4NK_15gungraun_macros9bin_benchNtB5_17AssistantRenderer16render_as_member
FNDA:0,_RNvMs0_NtCseH83rItu4NK_15gungraun_macros9bin_benchNtB5_17AssistantRenderer19render_as_iter_code
FNDA:0,_RNvMs1_NtCseH83rItu4NK_15gungraun_macros9bin_benchNtB5_5Bench14render_as_code
FNDA:0,_RNvMs1_NtCseH83rItu4NK_15gungraun_macros9bin_benchNtB5_5Bench16render_as_member
FNDA:0,_RNvMs1_NtCseH83rItu4NK_15gungraun_macros9bin_benchNtB5_5Bench21parse_bench_attribute
FNDA:0,_RNvMs1_NtCseH83rItu4NK_15gungraun_macros9bin_benchNtB5_5Bench23parse_benches_attribute
FNDA:0,_RNvMs2_NtCseH83rItu4NK_15gungraun_macros9bin_benchNtB5_11BenchConfig14render_as_code
FNDA:0,_RNvMs2_NtCseH83rItu4NK_15gungraun_macros9bin_benchNtB5_11BenchConfig16render_as_member
FNDA:0,_RNvMs2_NtCseH83rItu4NK_15gungraun_macros9bin_benchNtB5_11BenchConfig5ident
FNDA:0,_RNvMs4_NtCseH83rItu4NK_15gungraun_macros9bin_benchNtB5_15BinaryBenchmark14render_benches
FNDA:0,_RNvMs4_NtCseH83rItu4NK_15gungraun_macros9bin_benchNtB5_15BinaryBenchmark15extract_benches
FNDA:0,_RNvMs4_NtCseH83rItu4NK_15gungraun_macros9bin_benchNtB5_15BinaryBenchmark17render_standalone
FNDA:0,_RNvMs6_NtCseH83rItu4NK_15gungraun_macros9bin_benchNtB5_21BinaryBenchmarkConfig14render_as_code
FNDA:0,_RNvMs9_NtCseH83rItu4NK_15gungraun_macros9bin_benchNtB5_5Setup10parse_pair
FNDA:0,_RNvMs9_NtCseH83rItu4NK_15gungraun_macros9bin_benchNtB5_5Setup14render_as_code
FNDA:0,_RNvMs9_NtCseH83rItu4NK_15gungraun_macros9bin_benchNtB5_5Setup16render_as_member
FNDA:0,_RNvMs9_NtCseH83rItu4NK_15gungraun_macros9bin_benchNtB5_5Setup19render_as_iter_code
FNDA:0,_RNvMs9_NtCseH83rItu4NK_15gungraun_macros9bin_benchNtB5_5Setup19to_string_with_args
FNDA:0,_RNvMs9_NtCseH83rItu4NK_15gungraun_macros9bin_benchNtB5_5Setup19to_string_with_iter
FNDA:0,_RNvMs9_NtCseH83rItu4NK_15gungraun_macros9bin_benchNtB5_5Setup5ident
FNDA:0,_RNvMs9_NtCseH83rItu4NK_15gungraun_macros9bin_benchNtB5_5Setup6update
FNDA:0,_RNvMs9_NtCseH83rItu4NK_15gungraun_macros9bin_benchNtB5_5Setup7is_some
FNDA:0,_RNvMsa_NtCseH83rItu4NK_15gungraun_macros9bin_benchNtB5_8Teardown10parse_pair
FNDA:0,_RNvMsa_NtCseH83rItu4NK_15gungraun_macros9bin_benchNtB5_8Teardown14render_as_code
FNDA:0,_RNvMsa_NtCseH83rItu4NK_15gungraun_macros9bin_benchNtB5_8Teardown16render_as_member
FNDA:0,_RNvMsa_NtCseH83rItu4NK_15gungraun_macros9bin_benchNtB5_8Teardown19render_as_iter_code
FNDA:0,_RNvMsa_NtCseH83rItu4NK_15gungraun_macros9bin_benchNtB5_8Teardown5ident
FNDA:0,_RNvMsa_NtCseH83rItu4NK_15gungraun_macros9bin_benchNtB5_8Teardown6update
FNDA:0,_RNvNtCseH83rItu4NK_15gungraun_macros9bin_bench6render
FNDA:0,_RNvXNtCseH83rItu4NK_15gungraun_macros9bin_benchNtB2_4ArgsNtNtCs3me4nhu3r8b_5quote9to_tokens8ToTokens9to_tokens
FNDA:0,_RNvXs3_NtCseH83rItu4NK_15gungraun_macros9bin_benchNtB5_9BenchModeINtNtCsgEmfK2I1SDS_4core7convert4FromNtNtB7_6common9BenchModeE4from
FNDA:0,_RNvXs5_NtCseH83rItu4NK_15gungraun_macros9bin_benchNtB5_15BinaryBenchmarkNtNtCsihgYlrnpvvS_3syn5parse5Parse5parse
FNDA:0,_RNvXs7_NtCseH83rItu4NK_15gungraun_macros9bin_benchNtB5_6ConstsINtNtCsgEmfK2I1SDS_4core7convert4FromNtNtB7_6common6ConstsE4from
FNDA:0,_RNvXs8_NtCseH83rItu4NK_15gungraun_macros9bin_benchNtB5_4IterNtNtCsgEmfK2I1SDS_4core3fmt7Display3fmt
FNDA:0,_RNvXs_NtCseH83rItu4NK_15gungraun_macros9bin_benchNtB4_4ArgsNtNtCsgEmfK2I1SDS_4core3fmt7Display3fmt
FNDA:154,_RNCNvMs1_NtCs4VtoIICFLcm_15gungraun_macros9bin_benchNtB7_5Bench23parse_benches_attribute0B9_
FNDA:76,_RNCNvMs4_NtCs4VtoIICFLcm_15gungraun_macros9bin_benchNtB7_15BinaryBenchmark15extract_benches0B9_
FNDA:133,_RNCNvMs4_NtCs4VtoIICFLcm_15gungraun_macros9bin_benchNtB7_15BinaryBenchmark15extract_benchess_0B9_
FNDA:394,_RNvMs0_NtCs4VtoIICFLcm_15gungraun_macros9bin_benchNtB5_17AssistantRenderer14render_as_code
FNDA:488,_RNvMs0_NtCs4VtoIICFLcm_15gungraun_macros9bin_benchNtB5_17AssistantRenderer16render_as_member
FNDA:94,_RNvMs0_NtCs4VtoIICFLcm_15gungraun_macros9bin_benchNtB5_17AssistantRenderer19render_as_iter_code
FNDA:227,_RNvMs1_NtCs4VtoIICFLcm_15gungraun_macros9bin_benchNtB5_5Bench14render_as_code
FNDA:225,_RNvMs1_NtCs4VtoIICFLcm_15gungraun_macros9bin_benchNtB5_5Bench16render_as_member
FNDA:76,_RNvMs1_NtCs4VtoIICFLcm_15gungraun_macros9bin_benchNtB5_5Bench21parse_bench_attribute
FNDA:133,_RNvMs1_NtCs4VtoIICFLcm_15gungraun_macros9bin_benchNtB5_5Bench23parse_benches_attribute
FNDA:225,_RNvMs2_NtCs4VtoIICFLcm_15gungraun_macros9bin_benchNtB5_11BenchConfig14render_as_code
FNDA:225,_RNvMs2_NtCs4VtoIICFLcm_15gungraun_macros9bin_benchNtB5_11BenchConfig16render_as_member
FNDA:10,_RNvMs2_NtCs4VtoIICFLcm_15gungraun_macros9bin_benchNtB5_11BenchConfig5ident
FNDA:184,_RNvMs4_NtCs4VtoIICFLcm_15gungraun_macros9bin_benchNtB5_15BinaryBenchmark14render_benches
FNDA:222,_RNvMs4_NtCs4VtoIICFLcm_15gungraun_macros9bin_benchNtB5_15BinaryBenchmark15extract_benches
FNDA:19,_RNvMs4_NtCs4VtoIICFLcm_15gungraun_macros9bin_benchNtB5_15BinaryBenchmark17render_standalone
FNDA:201,_RNvMs6_NtCs4VtoIICFLcm_15gungraun_macros9bin_benchNtB5_21BinaryBenchmarkConfig14render_as_code
FNDA:24,_RNvMs9_NtCs4VtoIICFLcm_15gungraun_macros9bin_benchNtB5_5Setup10parse_pair
FNDA:197,_RNvMs9_NtCs4VtoIICFLcm_15gungraun_macros9bin_benchNtB5_5Setup14render_as_code
FNDA:244,_RNvMs9_NtCs4VtoIICFLcm_15gungraun_macros9bin_benchNtB5_5Setup16render_as_member
FNDA:47,_RNvMs9_NtCs4VtoIICFLcm_15gungraun_macros9bin_benchNtB5_5Setup19render_as_iter_code
FNDA:178,_RNvMs9_NtCs4VtoIICFLcm_15gungraun_macros9bin_benchNtB5_5Setup19to_string_with_args
FNDA:47,_RNvMs9_NtCs4VtoIICFLcm_15gungraun_macros9bin_benchNtB5_5Setup19to_string_with_iter
FNDA:488,_RNvMs9_NtCs4VtoIICFLcm_15gungraun_macros9bin_benchNtB5_5Setup5ident
FNDA:200,_RNvMs9_NtCs4VtoIICFLcm_15gungraun_macros9bin_benchNtB5_5Setup6update
FNDA:200,_RNvMs9_NtCs4VtoIICFLcm_15gungraun_macros9bin_benchNtB5_5Setup7is_some
FNDA:22,_RNvMsa_NtCs4VtoIICFLcm_15gungraun_macros9bin_benchNtB5_8Teardown10parse_pair
FNDA:197,_RNvMsa_NtCs4VtoIICFLcm_15gungraun_macros9bin_benchNtB5_8Teardown14render_as_code
FNDA:244,_RNvMsa_NtCs4VtoIICFLcm_15gungraun_macros9bin_benchNtB5_8Teardown16render_as_member
FNDA:47,_RNvMsa_NtCs4VtoIICFLcm_15gungraun_macros9bin_benchNtB5_8Teardown19render_as_iter_code
FNDA:488,_RNvMsa_NtCs4VtoIICFLcm_15gungraun_macros9bin_benchNtB5_8Teardown5ident
FNDA:200,_RNvMsa_NtCs4VtoIICFLcm_15gungraun_macros9bin_benchNtB5_8Teardown6update
FNDA:222,_RNvNtCs4VtoIICFLcm_15gungraun_macros9bin_bench6render
FNDA:10,_RNvXNtCs4VtoIICFLcm_15gungraun_macros9bin_benchNtB2_4ArgsNtNtCs5zTqYJ1QKLS_5quote9to_tokens8ToTokens9to_tokens
FNDA:154,_RNvXs3_NtCs4VtoIICFLcm_15gungraun_macros9bin_benchNtB5_9BenchModeINtNtCs2va5m0jqTTM_4core7convert4FromNtNtB7_6common9BenchModeE4from
FNDA:222,_RNvXs5_NtCs4VtoIICFLcm_15gungraun_macros9bin_benchNtB5_15BinaryBenchmarkNtNtCs7YDbPhiuUg2_3syn5parse5Parse5parse
FNDA:93,_RNvXs7_NtCs4VtoIICFLcm_15gungraun_macros9bin_benchNtB5_6ConstsINtNtCs2va5m0jqTTM_4core7convert4FromNtNtB7_6common6ConstsE4from
FNDA:47,_RNvXs8_NtCs4VtoIICFLcm_15gungraun_macros9bin_benchNtB5_4IterNtNtCs2va5m0jqTTM_4core3fmt7Display3fmt
FNDA:178,_RNvXs_NtCs4VtoIICFLcm_15gungraun_macros9bin_benchNtB4_4ArgsNtNtCs2va5m0jqTTM_4core3fmt7Display3fmt
FNF:40
FNH:40
DA:78,21
DA:79,21
DA:80,21
DA:84,114
DA:85,178
DA:86,178
DA:87,178
DA:91,270
DA:92,664
DA:93,84
DA:94,21
DA:96,41
DA:98,62
DA:99,22
DA:100,22
DA:101,22
DA:102,22
DA:104,208
DA:106,664
DA:108,18
DA:109,34
DA:110,5
DA:111,22
DA:112,22
DA:113,22
DA:114,22
DA:115,22
DA:116,22
DA:117,22
DA:118,22
DA:119,22
DA:120,22
DA:121,22
DA:122,22
DA:123,22
DA:124,22
DA:125,22
DA:126,22
DA:128,3
DA:129,4
DA:130,4
DA:131,4
DA:132,4
DA:133,10
DA:135,112
DA:137,288
DA:138,288
DA:139,288
DA:140,288
DA:141,288
DA:142,26
DA:143,32
DA:144,22
DA:145,22
DA:146,65
DA:147,26
DA:148,26
DA:149,218
DA:151,776
DA:155,83
DA:156,83
DA:157,83
DA:158,83
DA:159,83
DA:160,83
DA:161,83
DA:162,83
DA:163,83
DA:164,83
DA:165,159
DA:167,83
DA:168,83
DA:169,83
DA:170,83
DA:171,83
DA:172,76
DA:173,83
DA:174,121
DA:175,223
DA:176,102
DA:177,37
DA:178,65
DA:179,6
DA:180,59
DA:181,20
DA:182,40
DA:183,33
DA:184,33
DA:185,22
DA:186,22
DA:187,0
DA:188,0
DA:189,0
DA:190,0
DA:196,29
DA:200,83
DA:201,83
DA:202,73
DA:203,83
DA:204,83
DA:205,73
DA:206,83
DA:207,83
DA:208,83
DA:209,83
DA:210,83
DA:211,83
DA:212,83
DA:213,83
DA:214,83
DA:215,157
DA:217,24
DA:218,24
DA:219,24
DA:220,24
DA:221,24
DA:222,24
DA:223,24
DA:224,24
DA:225,133
DA:226,133
DA:227,133
DA:228,157
DA:230,24
DA:231,133
DA:232,133
DA:233,133
DA:234,133
DA:235,133
DA:236,133
DA:237,133
DA:238,133
DA:239,154
DA:240,371
DA:241,36
DA:242,8
DA:243,28
DA:244,8
DA:245,20
DA:246,4
DA:247,21
DA:248,21
DA:249,21
DA:250,16
DA:251,16
DA:252,1
DA:253,62
DA:254,62
DA:255,62
DA:256,0
DA:257,0
DA:258,0
DA:259,0
DA:265,3
DA:269,24
DA:270,127
DA:271,127
DA:272,127
DA:273,127
DA:274,127
DA:275,127
DA:276,127
DA:277,127
DA:278,127
DA:279,127
DA:280,127
DA:281,127
DA:282,127
DA:283,154
DA:284,154
DA:285,154
DA:286,154
DA:287,154
DA:288,154
DA:289,154
DA:290,154
DA:291,154
DA:292,127
DA:293,127
DA:294,127
DA:295,152
DA:297,123
DA:298,227
DA:299,227
DA:300,227
DA:301,9
DA:302,49
DA:303,49
DA:304,49
DA:305,49
DA:306,49
DA:307,49
DA:308,49
DA:309,49
DA:310,49
DA:311,49
DA:312,49
DA:313,49
DA:314,49
DA:315,49
DA:316,49
DA:317,49
DA:318,49
DA:319,49
DA:320,49
DA:321,49
DA:322,49
DA:324,114
DA:325,178
DA:326,178
DA:327,178
DA:328,178
DA:329,178
DA:330,178
DA:331,178
DA:332,178
DA:333,178
DA:334,178
DA:335,178
DA:336,178
DA:337,178
DA:338,178
DA:339,178
DA:340,178
DA:341,178
DA:344,350
DA:346,123
DA:347,225
DA:348,225
DA:349,225
DA:351,348
DA:352,9
DA:353,9
DA:354,9
DA:355,9
DA:356,9
DA:357,9
DA:358,114
DA:359,114
DA:360,114
DA:361,114
DA:362,114
DA:363,114
DA:366,123
DA:368,348
DA:369,29
DA:371,94
DA:372,163
DA:375,348
DA:376,22
DA:377,129
DA:379,101
DA:382,123
DA:383,225
DA:384,225
DA:385,225
DA:386,225
DA:387,225
DA:388,225
DA:389,225
DA:390,225
DA:391,225
DA:392,225
DA:393,225
DA:397,38
DA:398,38
DA:399,38
DA:401,123
DA:402,348
DA:403,19
DA:404,19
DA:405,5
DA:406,5
DA:407,5
DA:408,5
DA:410,104
DA:412,348
DA:414,123
DA:415,225
DA:416,19
DA:417,19
DA:419,104
DA:421,348
DA:425,40
DA:426,154
DA:427,9
DA:428,31
DA:430,194
DA:434,69
DA:435,69
DA:436,69
DA:437,69
DA:438,69
DA:439,222
DA:440,222
DA:442,481
DA:443,107
DA:444,209
DA:445,316
DA:446,83
DA:448,0
DA:449,0
DA:450,0
DA:451,0
DA:452,0
DA:453,0
DA:454,159
DA:455,159
DA:456,0
DA:457,0
DA:458,0
DA:459,0
DA:460,0
DA:462,83
DA:463,83
DA:464,83
DA:465,83
DA:466,83
DA:467,83
DA:468,76
DA:470,157
DA:471,133
DA:473,0
DA:474,0
DA:475,0
DA:476,0
DA:477,0
DA:478,0
DA:479,157
DA:480,157
DA:481,0
DA:482,0
DA:483,0
DA:484,0
DA:485,0
DA:487,24
DA:488,133
DA:489,133
DA:490,133
DA:491,133
DA:492,133
DA:493,133
DA:494,133
DA:496,0
DA:497,0
DA:498,0
DA:499,0
DA:500,0
DA:501,0
DA:502,0
DA:503,0
DA:507,0
DA:512,272
DA:513,291
DA:523,21
DA:524,21
DA:525,21
DA:526,21
DA:527,21
DA:528,21
DA:529,21
DA:530,21
DA:531,21
DA:532,19
DA:533,21
DA:534,21
DA:535,21
DA:536,21
DA:537,21
DA:538,19
DA:539,21
DA:540,19
DA:541,19
DA:542,19
DA:543,19
DA:544,19
DA:545,19
DA:546,19
DA:547,19
DA:548,19
DA:549,19
DA:550,19
DA:551,19
DA:552,19
DA:553,19
DA:554,19
DA:555,19
DA:556,19
DA:557,19
DA:558,19
DA:559,19
DA:560,19
DA:561,19
DA:562,21
DA:564,48
DA:565,184
DA:566,48
DA:567,48
DA:568,48
DA:569,48
DA:570,48
DA:571,184
DA:572,184
DA:573,184
DA:574,184
DA:575,184
DA:576,459
DA:577,350
DA:578,350
DA:579,350
DA:581,48
DA:582,184
DA:583,184
DA:584,184
DA:585,184
DA:586,184
DA:587,184
DA:588,184
DA:589,184
DA:590,184
DA:591,184
DA:592,184
DA:593,184
DA:594,184
DA:595,184
DA:596,184
DA:597,230
DA:601,69
DA:602,222
DA:603,271
DA:605,15
DA:606,15
DA:607,15
DA:609,20
DA:610,26
DA:611,21
DA:612,10
DA:613,12
DA:614,10
DA:615,10
DA:616,6
DA:617,6
DA:618,0
DA:619,0
DA:620,0
DA:625,15
DA:626,15
DA:627,15
DA:628,15
DA:629,15
DA:630,15
DA:631,15
DA:633,291
DA:637,69
DA:638,270
DA:639,9
DA:640,1
DA:641,1
DA:642,1
DA:643,1
DA:644,1
DA:645,1
DA:647,60
DA:648,200
DA:649,200
DA:650,200
DA:651,200
DA:652,200
DA:654,270
DA:658,16
DA:659,93
DA:660,93
DA:664,9
DA:665,47
DA:666,47
DA:670,288
DA:671,488
DA:672,488
DA:674,40
DA:675,64
DA:676,64
DA:677,64
DA:678,0
DA:679,0
DA:680,0
DA:681,0
DA:683,64
DA:685,107
DA:686,200
DA:687,200
DA:690,107
DA:691,107
DA:692,6
DA:693,301
DA:694,307
DA:696,114
DA:697,47
DA:698,14
DA:699,14
DA:701,100
DA:703,292
DA:705,9
DA:706,18
DA:707,3
DA:708,11
DA:711,6
DA:714,56
DA:716,135
DA:717,197
DA:718,197
DA:720,9
DA:721,47
DA:722,47
DA:724,144
DA:725,244
DA:726,244
DA:730,288
DA:731,488
DA:732,488
DA:734,22
DA:735,44
DA:736,44
DA:737,44
DA:738,0
DA:739,0
DA:740,0
DA:741,0
DA:743,44
DA:746,107
DA:747,107
DA:748,4
DA:749,303
DA:750,307
DA:752,135
DA:753,197
DA:754,197
DA:756,9
DA:757,47
DA:758,47
DA:760,144
DA:761,244
DA:762,244
DA:765,69
DA:766,291
DA:767,291
DA:768,69
DA:769,222
DA:770,222
DA:771,69
DA:772,40
DA:774,249
DA:776,291
BRF:0
BRH:0
LF:564
LH:513
end_of_record
SF:/fast/lenny/workspace/programming/gungraun/gungraun/gungraun-macros/src/common.rs
FN:558,_RNCNCNvMs5_NtCseTlsjhGl7ts_15gungraun_macros6commonNtB9_6Consts12maybe_string00Bb_
FN:84,_RNCNvMNtCseTlsjhGl7ts_15gungraun_macros6commonNtB4_4Args3len0B6_
FN:253,_RNCNvMs1_NtCseTlsjhGl7ts_15gungraun_macros6commonNtB7_5Bench22from_benches_attribute0B9_
FN:551,_RNCNvMs5_NtCseTlsjhGl7ts_15gungraun_macros6commonNtB7_6Consts12maybe_string0B9_
FN:657,_RNCNvMs5_NtCseTlsjhGl7ts_15gungraun_macros6commonNtB7_6Consts17to_function_calls0B9_
FN:685,_RNCNvMs5_NtCseTlsjhGl7ts_15gungraun_macros6commonNtB7_6Consts17to_function_callss0_0B9_
FN:665,_RNCNvMs5_NtCseTlsjhGl7ts_15gungraun_macros6commonNtB7_6Consts17to_function_callss_0B9_
FN:539,_RNCNvMs5_NtCseTlsjhGl7ts_15gungraun_macros6commonNtB7_6Consts3len0B9_
FN:547,_RNCNvMs5_NtCseTlsjhGl7ts_15gungraun_macros6commonNtB7_6Consts5exprs0B9_
FN:543,_RNCNvMs5_NtCseTlsjhGl7ts_15gungraun_macros6commonNtB7_6Consts8is_empty0B9_
FN:763,_RNCNvMs8_NtCseTlsjhGl7ts_15gungraun_macros6commonNtB7_4File4read0B9_
FN:902,_RNCNvNtCseTlsjhGl7ts_15gungraun_macros6common17truncate_str_utf80B5_
FN:97,_RNvMNtCseTlsjhGl7ts_15gungraun_macros6commonNtB2_4Args10parse_pair
FN:139,_RNvMNtCseTlsjhGl7ts_15gungraun_macros6commonNtB2_4Args15parse_meta_list
FN:159,_RNvMNtCseTlsjhGl7ts_15gungraun_macros6commonNtB2_4Args19check_num_arguments
FN:148,_RNvMNtCseTlsjhGl7ts_15gungraun_macros6commonNtB2_4Args27to_tokens_without_black_box
FN:83,_RNvMNtCseTlsjhGl7ts_15gungraun_macros6commonNtB2_4Args3len
FN:79,_RNvMNtCseTlsjhGl7ts_15gungraun_macros6commonNtB2_4Args3new
FN:87,_RNvMNtCseTlsjhGl7ts_15gungraun_macros6commonNtB2_4Args4span
FN:91,_RNvMNtCseTlsjhGl7ts_15gungraun_macros6commonNtB2_4Args8set_span
FN:216,_RNvMs1_NtCseTlsjhGl7ts_15gungraun_macros6commonNtB5_5Bench22from_benches_attribute
FN:207,_RNvMs1_NtCseTlsjhGl7ts_15gungraun_macros6commonNtB5_5Bench3new
FN:347,_RNvMs2_NtCseTlsjhGl7ts_15gungraun_macros6commonNtB5_11BenchConfig10parse_pair
FN:343,_RNvMs2_NtCseTlsjhGl7ts_15gungraun_macros6commonNtB5_11BenchConfig5ident
FN:358,_RNvMs2_NtCseTlsjhGl7ts_15gungraun_macros6commonNtB5_11BenchConfig7is_some
FN:380,_RNvMs3_NtCseTlsjhGl7ts_15gungraun_macros6commonNtB5_11BenchesArgs10parse_pair
FN:441,_RNvMs3_NtCseTlsjhGl7ts_15gungraun_macros6commonNtB5_11BenchesArgs13iter_infinite
FN:429,_RNvMs3_NtCseTlsjhGl7ts_15gungraun_macros6commonNtB5_11BenchesArgs14from_meta_list
FN:368,_RNvMs3_NtCseTlsjhGl7ts_15gungraun_macros6commonNtB5_11BenchesArgs3len
FN:372,_RNvMs3_NtCseTlsjhGl7ts_15gungraun_macros6commonNtB5_11BenchesArgs3new
FN:364,_RNvMs3_NtCseTlsjhGl7ts_15gungraun_macros6commonNtB5_11BenchesArgs7is_some
FN:408,_RNvMs3_NtCseTlsjhGl7ts_15gungraun_macros6commonNtB5_11BenchesArgs9from_expr
FN:456,_RNvMs4_NtCseTlsjhGl7ts_15gungraun_macros6commonNtB5_13BenchesConsts10parse_pair
FN:506,_RNvMs4_NtCseTlsjhGl7ts_15gungraun_macros6commonNtB5_13BenchesConsts13iter_infinite
FN:516,_RNvMs4_NtCseTlsjhGl7ts_15gungraun_macros6commonNtB5_13BenchesConsts3len
FN:520,_RNvMs4_NtCseTlsjhGl7ts_15gungraun_macros6commonNtB5_13BenchesConsts3new
FN:528,_RNvMs4_NtCseTlsjhGl7ts_15gungraun_macros6commonNtB5_13BenchesConsts5first
FN:485,_RNvMs4_NtCseTlsjhGl7ts_15gungraun_macros6commonNtB5_13BenchesConsts9from_expr
FN:577,_RNvMs5_NtCseTlsjhGl7ts_15gungraun_macros6commonNtB5_6Consts10parse_pair
FN:550,_RNvMs5_NtCseTlsjhGl7ts_15gungraun_macros6commonNtB5_6Consts12maybe_string
FN:648,_RNvMs5_NtCseTlsjhGl7ts_15gungraun_macros6commonNtB5_6Consts17to_function_calls
FN:622,_RNvMs5_NtCseTlsjhGl7ts_15gungraun_macros6commonNtB5_6Consts19check_num_arguments
FN:538,_RNvMs5_NtCseTlsjhGl7ts_15gungraun_macros6commonNtB5_6Consts3len
FN:534,_RNvMs5_NtCseTlsjhGl7ts_15gungraun_macros6commonNtB5_6Consts3new
FN:567,_RNvMs5_NtCseTlsjhGl7ts_15gungraun_macros6commonNtB5_6Consts4span
FN:546,_RNvMs5_NtCseTlsjhGl7ts_15gungraun_macros6commonNtB5_6Consts5exprs
FN:542,_RNvMs5_NtCseTlsjhGl7ts_15gungraun_macros6commonNtB5_6Consts8is_empty
FN:571,_RNvMs5_NtCseTlsjhGl7ts_15gungraun_macros6commonNtB5_6Consts8set_span
FN:723,_RNvMs8_NtCseTlsjhGl7ts_15gungraun_macros6commonNtB5_4File10parse_pair
FN:750,_RNvMs8_NtCseTlsjhGl7ts_15gungraun_macros6commonNtB5_4File4read
FN:719,_RNvMs8_NtCseTlsjhGl7ts_15gungraun_macros6commonNtB5_4File7is_some
FN:715,_RNvMs8_NtCseTlsjhGl7ts_15gungraun_macros6commonNtB5_4File7literal
FN:795,_RNvMs9_NtCseTlsjhGl7ts_15gungraun_macros6commonNtB5_4Iter10parse_pair
FN:791,_RNvMs9_NtCseTlsjhGl7ts_15gungraun_macros6commonNtB5_4Iter4expr
FN:787,_RNvMs9_NtCseTlsjhGl7ts_15gungraun_macros6commonNtB5_4Iter7is_some
FN:808,_RNvMsa_NtCseTlsjhGl7ts_15gungraun_macros6commonNtB5_5Setup10parse_pair
FN:829,_RNvMsa_NtCseTlsjhGl7ts_15gungraun_macros6commonNtB5_5Setup19to_string_with_args
FN:838,_RNvMsa_NtCseTlsjhGl7ts_15gungraun_macros6commonNtB5_5Setup19to_string_with_iter
FN:848,_RNvMsa_NtCseTlsjhGl7ts_15gungraun_macros6commonNtB5_5Setup6update
FN:856,_RNvMsb_NtCseTlsjhGl7ts_15gungraun_macros6commonNtB5_8Teardown10parse_pair
FN:879,_RNvMsb_NtCseTlsjhGl7ts_15gungraun_macros6commonNtB5_8Teardown6update
FN:886,_RNvNtCseTlsjhGl7ts_15gungraun_macros6common12format_ident
FN:899,_RNvNtCseTlsjhGl7ts_15gungraun_macros6common17truncate_str_utf8
FN:894,_RNvNtCseTlsjhGl7ts_15gungraun_macros6common20format_indexed_ident
FN:911,_RNvNtCseTlsjhGl7ts_15gungraun_macros6common32pattern_to_single_function_ident
FN:198,_RNvXs0_NtCseTlsjhGl7ts_15gungraun_macros6commonNtB5_4ArgsNtNtCsitvrDxV7QKm_5quote9to_tokens8ToTokens9to_tokens
FN:693,_RNvXs6_NtCseTlsjhGl7ts_15gungraun_macros6commonNtB5_6ConstsNtNtCska53IhjTmSY_3syn5parse5Parse5parse
FN:706,_RNvXs7_NtCseTlsjhGl7ts_15gungraun_macros6commonNtB5_6ConstsNtNtCsitvrDxV7QKm_5quote9to_tokens8ToTokens9to_tokens
FN:185,_RNvXs_NtCseTlsjhGl7ts_15gungraun_macros6commonNtB4_4ArgsNtNtCska53IhjTmSY_3syn5parse5Parse5parse
FN:558,_RNCNCNvMs5_NtCsky0f8fcmJ7i_15gungraun_macros6commonNtB9_6Consts12maybe_string00Bb_
FN:84,_RNCNvMNtCsky0f8fcmJ7i_15gungraun_macros6commonNtB4_4Args3len0B6_
FN:253,_RNCNvMs1_NtCsky0f8fcmJ7i_15gungraun_macros6commonNtB7_5Bench22from_benches_attribute0B9_
FN:551,_RNCNvMs5_NtCsky0f8fcmJ7i_15gungraun_macros6commonNtB7_6Consts12maybe_string0B9_
FN:657,_RNCNvMs5_NtCsky0f8fcmJ7i_15gungraun_macros6commonNtB7_6Consts17to_function_calls0B9_
FN:685,_RNCNvMs5_NtCsky0f8fcmJ7i_15gungraun_macros6commonNtB7_6Consts17to_function_callss0_0B9_
FN:665,_RNCNvMs5_NtCsky0f8fcmJ7i_15gungraun_macros6commonNtB7_6Consts17to_function_callss_0B9_
FN:539,_RNCNvMs5_NtCsky0f8fcmJ7i_15gungraun_macros6commonNtB7_6Consts3len0B9_
FN:547,_RNCNvMs5_NtCsky0f8fcmJ7i_15gungraun_macros6commonNtB7_6Consts5exprs0B9_
FN:543,_RNCNvMs5_NtCsky0f8fcmJ7i_15gungraun_macros6commonNtB7_6Consts8is_empty0B9_
FN:763,_RNCNvMs8_NtCsky0f8fcmJ7i_15gungraun_macros6commonNtB7_4File4read0B9_
FN:902,_RNCNvNtCsky0f8fcmJ7i_15gungraun_macros6common17truncate_str_utf80B5_
FN:97,_RNvMNtCsky0f8fcmJ7i_15gungraun_macros6commonNtB2_4Args10parse_pair
FN:139,_RNvMNtCsky0f8fcmJ7i_15gungraun_macros6commonNtB2_4Args15parse_meta_list
FN:159,_RNvMNtCsky0f8fcmJ7i_15gungraun_macros6commonNtB2_4Args19check_num_arguments
FN:148,_RNvMNtCsky0f8fcmJ7i_15gungraun_macros6commonNtB2_4Args27to_tokens_without_black_box
FN:83,_RNvMNtCsky0f8fcmJ7i_15gungraun_macros6commonNtB2_4Args3len
FN:79,_RNvMNtCsky0f8fcmJ7i_15gungraun_macros6commonNtB2_4Args3new
FN:87,_RNvMNtCsky0f8fcmJ7i_15gungraun_macros6commonNtB2_4Args4span
FN:91,_RNvMNtCsky0f8fcmJ7i_15gungraun_macros6commonNtB2_4Args8set_span
FN:216,_RNvMs1_NtCsky0f8fcmJ7i_15gungraun_macros6commonNtB5_5Bench22from_benches_attribute
FN:207,_RNvMs1_NtCsky0f8fcmJ7i_15gungraun_macros6commonNtB5_5Bench3new
FN:347,_RNvMs2_NtCsky0f8fcmJ7i_15gungraun_macros6commonNtB5_11BenchConfig10parse_pair
FN:343,_RNvMs2_NtCsky0f8fcmJ7i_15gungraun_macros6commonNtB5_11BenchConfig5ident
FN:358,_RNvMs2_NtCsky0f8fcmJ7i_15gungraun_macros6commonNtB5_11BenchConfig7is_some
FN:380,_RNvMs3_NtCsky0f8fcmJ7i_15gungraun_macros6commonNtB5_11BenchesArgs10parse_pair
FN:441,_RNvMs3_NtCsky0f8fcmJ7i_15gungraun_macros6commonNtB5_11BenchesArgs13iter_infinite
FN:429,_RNvMs3_NtCsky0f8fcmJ7i_15gungraun_macros6commonNtB5_11BenchesArgs14from_meta_list
FN:368,_RNvMs3_NtCsky0f8fcmJ7i_15gungraun_macros6commonNtB5_11BenchesArgs3len
FN:372,_RNvMs3_NtCsky0f8fcmJ7i_15gungraun_macros6commonNtB5_11BenchesArgs3new
FN:364,_RNvMs3_NtCsky0f8fcmJ7i_15gungraun_macros6commonNtB5_11BenchesArgs7is_some
FN:408,_RNvMs3_NtCsky0f8fcmJ7i_15gungraun_macros6commonNtB5_11BenchesArgs9from_expr
FN:456,_RNvMs4_NtCsky0f8fcmJ7i_15gungraun_macros6commonNtB5_13BenchesConsts10parse_pair
FN:506,_RNvMs4_NtCsky0f8fcmJ7i_15gungraun_macros6commonNtB5_13BenchesConsts13iter_infinite
FN:516,_RNvMs4_NtCsky0f8fcmJ7i_15gungraun_macros6commonNtB5_13BenchesConsts3len
FN:520,_RNvMs4_NtCsky0f8fcmJ7i_15gungraun_macros6commonNtB5_13BenchesConsts3new
FN:528,_RNvMs4_NtCsky0f8fcmJ7i_15gungraun_macros6commonNtB5_13BenchesConsts5first
FN:485,_RNvMs4_NtCsky0f8fcmJ7i_15gungraun_macros6commonNtB5_13BenchesConsts9from_expr
FN:577,_RNvMs5_NtCsky0f8fcmJ7i_15gungraun_macros6commonNtB5_6Consts10parse_pair
FN:550,_RNvMs5_NtCsky0f8fcmJ7i_15gungraun_macros6commonNtB5_6Consts12maybe_string
FN:648,_RNvMs5_NtCsky0f8fcmJ7i_15gungraun_macros6commonNtB5_6Consts17to_function_calls
FN:622,_RNvMs5_NtCsky0f8fcmJ7i_15gungraun_macros6commonNtB5_6Consts19check_num_arguments
FN:538,_RNvMs5_NtCsky0f8fcmJ7i_15gungraun_macros6commonNtB5_6Consts3len
FN:534,_RNvMs5_NtCsky0f8fcmJ7i_15gungraun_macros6commonNtB5_6Consts3new
FN:567,_RNvMs5_NtCsky0f8fcmJ7i_15gungraun_macros6commonNtB5_6Consts4span
FN:546,_RNvMs5_NtCsky0f8fcmJ7i_15gungraun_macros6commonNtB5_6Consts5exprs
FN:542,_RNvMs5_NtCsky0f8fcmJ7i_15gungraun_macros6commonNtB5_6Consts8is_empty
FN:571,_RNvMs5_NtCsky0f8fcmJ7i_15gungraun_macros6commonNtB5_6Consts8set_span
FN:723,_RNvMs8_NtCsky0f8fcmJ7i_15gungraun_macros6commonNtB5_4File10parse_pair
FN:750,_RNvMs8_NtCsky0f8fcmJ7i_15gungraun_macros6commonNtB5_4File4read
FN:719,_RNvMs8_NtCsky0f8fcmJ7i_15gungraun_macros6commonNtB5_4File7is_some
FN:715,_RNvMs8_NtCsky0f8fcmJ7i_15gungraun_macros6commonNtB5_4File7literal
FN:795,_RNvMs9_NtCsky0f8fcmJ7i_15gungraun_macros6commonNtB5_4Iter10parse_pair
FN:791,_RNvMs9_NtCsky0f8fcmJ7i_15gungraun_macros6commonNtB5_4Iter4expr
FN:787,_RNvMs9_NtCsky0f8fcmJ7i_15gungraun_macros6commonNtB5_4Iter7is_some
FN:808,_RNvMsa_NtCsky0f8fcmJ7i_15gungraun_macros6commonNtB5_5Setup10parse_pair
FN:829,_RNvMsa_NtCsky0f8fcmJ7i_15gungraun_macros6commonNtB5_5Setup19to_string_with_args
FN:838,_RNvMsa_NtCsky0f8fcmJ7i_15gungraun_macros6commonNtB5_5Setup19to_string_with_iter
FN:848,_RNvMsa_NtCsky0f8fcmJ7i_15gungraun_macros6commonNtB5_5Setup6update
FN:856,_RNvMsb_NtCsky0f8fcmJ7i_15gungraun_macros6commonNtB5_8Teardown10parse_pair
FN:879,_RNvMsb_NtCsky0f8fcmJ7i_15gungraun_macros6commonNtB5_8Teardown6update
FN:886,_RNvNtCsky0f8fcmJ7i_15gungraun_macros6common12format_ident
FN:899,_RNvNtCsky0f8fcmJ7i_15gungraun_macros6common17truncate_str_utf8
FN:894,_RNvNtCsky0f8fcmJ7i_15gungraun_macros6common20format_indexed_ident
FN:911,_RNvNtCsky0f8fcmJ7i_15gungraun_macros6common32pattern_to_single_function_ident
FN:198,_RNvXs0_NtCsky0f8fcmJ7i_15gungraun_macros6commonNtB5_4ArgsNtNtCs3me4nhu3r8b_5quote9to_tokens8ToTokens9to_tokens
FN:693,_RNvXs6_NtCsky0f8fcmJ7i_15gungraun_macros6commonNtB5_6ConstsNtNtCsihgYlrnpvvS_3syn5parse5Parse5parse
FN:706,_RNvXs7_NtCsky0f8fcmJ7i_15gungraun_macros6commonNtB5_6ConstsNtNtCs3me4nhu3r8b_5quote9to_tokens8ToTokens9to_tokens
FN:185,_RNvXs_NtCsky0f8fcmJ7i_15gungraun_macros6commonNtB4_4ArgsNtNtCsihgYlrnpvvS_3syn5parse5Parse5parse
FN:558,_RNCNCNvMs5_NtCseH83rItu4NK_15gungraun_macros6commonNtB9_6Consts12maybe_string00Bb_
FN:84,_RNCNvMNtCseH83rItu4NK_15gungraun_macros6commonNtB4_4Args3len0B6_
FN:253,_RNCNvMs1_NtCseH83rItu4NK_15gungraun_macros6commonNtB7_5Bench22from_benches_attribute0B9_
FN:551,_RNCNvMs5_NtCseH83rItu4NK_15gungraun_macros6commonNtB7_6Consts12maybe_string0B9_
FN:657,_RNCNvMs5_NtCseH83rItu4NK_15gungraun_macros6commonNtB7_6Consts17to_function_calls0B9_
FN:685,_RNCNvMs5_NtCseH83rItu4NK_15gungraun_macros6commonNtB7_6Consts17to_function_callss0_0B9_
FN:665,_RNCNvMs5_NtCseH83rItu4NK_15gungraun_macros6commonNtB7_6Consts17to_function_callss_0B9_
FN:539,_RNCNvMs5_NtCseH83rItu4NK_15gungraun_macros6commonNtB7_6Consts3len0B9_
FN:547,_RNCNvMs5_NtCseH83rItu4NK_15gungraun_macros6commonNtB7_6Consts5exprs0B9_
FN:543,_RNCNvMs5_NtCseH83rItu4NK_15gungraun_macros6commonNtB7_6Consts8is_empty0B9_
FN:763,_RNCNvMs8_NtCseH83rItu4NK_15gungraun_macros6commonNtB7_4File4read0B9_
FN:902,_RNCNvNtCseH83rItu4NK_15gungraun_macros6common17truncate_str_utf80B5_
FN:97,_RNvMNtCseH83rItu4NK_15gungraun_macros6commonNtB2_4Args10parse_pair
FN:139,_RNvMNtCseH83rItu4NK_15gungraun_macros6commonNtB2_4Args15parse_meta_list
FN:159,_RNvMNtCseH83rItu4NK_15gungraun_macros6commonNtB2_4Args19check_num_arguments
FN:148,_RNvMNtCseH83rItu4NK_15gungraun_macros6commonNtB2_4Args27to_tokens_without_black_box
FN:83,_RNvMNtCseH83rItu4NK_15gungraun_macros6commonNtB2_4Args3len
FN:79,_RNvMNtCseH83rItu4NK_15gungraun_macros6commonNtB2_4Args3new
FN:87,_RNvMNtCseH83rItu4NK_15gungraun_macros6commonNtB2_4Args4span
FN:91,_RNvMNtCseH83rItu4NK_15gungraun_macros6commonNtB2_4Args8set_span
FN:216,_RNvMs1_NtCseH83rItu4NK_15gungraun_macros6commonNtB5_5Bench22from_benches_attribute
FN:207,_RNvMs1_NtCseH83rItu4NK_15gungraun_macros6commonNtB5_5Bench3new
FN:347,_RNvMs2_NtCseH83rItu4NK_15gungraun_macros6commonNtB5_11BenchConfig10parse_pair
FN:343,_RNvMs2_NtCseH83rItu4NK_15gungraun_macros6commonNtB5_11BenchConfig5ident
FN:358,_RNvMs2_NtCseH83rItu4NK_15gungraun_macros6commonNtB5_11BenchConfig7is_some
FN:380,_RNvMs3_NtCseH83rItu4NK_15gungraun_macros6commonNtB5_11BenchesArgs10parse_pair
FN:441,_RNvMs3_NtCseH83rItu4NK_15gungraun_macros6commonNtB5_11BenchesArgs13iter_infinite
FN:429,_RNvMs3_NtCseH83rItu4NK_15gungraun_macros6commonNtB5_11BenchesArgs14from_meta_list
FN:368,_RNvMs3_NtCseH83rItu4NK_15gungraun_macros6commonNtB5_11BenchesArgs3len
FN:372,_RNvMs3_NtCseH83rItu4NK_15gungraun_macros6commonNtB5_11BenchesArgs3new
FN:364,_RNvMs3_NtCseH83rItu4NK_15gungraun_macros6commonNtB5_11BenchesArgs7is_some
FN:408,_RNvMs3_NtCseH83rItu4NK_15gungraun_macros6commonNtB5_11BenchesArgs9from_expr
FN:456,_RNvMs4_NtCseH83rItu4NK_15gungraun_macros6commonNtB5_13BenchesConsts10parse_pair
FN:506,_RNvMs4_NtCseH83rItu4NK_15gungraun_macros6commonNtB5_13BenchesConsts13iter_infinite
FN:516,_RNvMs4_NtCseH83rItu4NK_15gungraun_macros6commonNtB5_13BenchesConsts3len
FN:520,_RNvMs4_NtCseH83rItu4NK_15gungraun_macros6commonNtB5_13BenchesConsts3new
FN:528,_RNvMs4_NtCseH83rItu4NK_15gungraun_macros6commonNtB5_13BenchesConsts5first
FN:485,_RNvMs4_NtCseH83rItu4NK_15gungraun_macros6commonNtB5_13BenchesConsts9from_expr
FN:577,_RNvMs5_NtCseH83rItu4NK_15gungraun_macros6commonNtB5_6Consts10parse_pair
FN:550,_RNvMs5_NtCseH83rItu4NK_15gungraun_macros6commonNtB5_6Consts12maybe_string
FN:648,_RNvMs5_NtCseH83rItu4NK_15gungraun_macros6commonNtB5_6Consts17to_function_calls
FN:622,_RNvMs5_NtCseH83rItu4NK_15gungraun_macros6commonNtB5_6Consts19check_num_arguments
FN:538,_RNvMs5_NtCseH83rItu4NK_15gungraun_macros6commonNtB5_6Consts3len
FN:534,_RNvMs5_NtCseH83rItu4NK_15gungraun_macros6commonNtB5_6Consts3new
FN:567,_RNvMs5_NtCseH83rItu4NK_15gungraun_macros6commonNtB5_6Consts4span
FN:546,_RNvMs5_NtCseH83rItu4NK_15gungraun_macros6commonNtB5_6Consts5exprs
FN:542,_RNvMs5_NtCseH83rItu4NK_15gungraun_macros6commonNtB5_6Consts8is_empty
FN:571,_RNvMs5_NtCseH83rItu4NK_15gungraun_macros6commonNtB5_6Consts8set_span
FN:723,_RNvMs8_NtCseH83rItu4NK_15gungraun_macros6commonNtB5_4File10parse_pair
FN:750,_RNvMs8_NtCseH83rItu4NK_15gungraun_macros6commonNtB5_4File4read
FN:719,_RNvMs8_NtCseH83rItu4NK_15gungraun_macros6commonNtB5_4File7is_some
FN:715,_RNvMs8_NtCseH83rItu4NK_15gungraun_macros6commonNtB5_4File7literal
FN:795,_RNvMs9_NtCseH83rItu4NK_15gungraun_macros6commonNtB5_4Iter10parse_pair
FN:791,_RNvMs9_NtCseH83rItu4NK_15gungraun_macros6commonNtB5_4Iter4expr
FN:787,_RNvMs9_NtCseH83rItu4NK_15gungraun_macros6commonNtB5_4Iter7is_some
FN:808,_RNvMsa_NtCseH83rItu4NK_15gungraun_macros6commonNtB5_5Setup10parse_pair
FN:829,_RNvMsa_NtCseH83rItu4NK_15gungraun_macros6commonNtB5_5Setup19to_string_with_args
FN:838,_RNvMsa_NtCseH83rItu4NK_15gungraun_macros6commonNtB5_5Setup19to_string_with_iter
FN:848,_RNvMsa_NtCseH83rItu4NK_15gungraun_macros6commonNtB5_5Setup6update
FN:856,_RNvMsb_NtCseH83rItu4NK_15gungraun_macros6commonNtB5_8Teardown10parse_pair
FN:879,_RNvMsb_NtCseH83rItu4NK_15gungraun_macros6commonNtB5_8Teardown6update
FN:886,_RNvNtCseH83rItu4NK_15gungraun_macros6common12format_ident
FN:899,_RNvNtCseH83rItu4NK_15gungraun_macros6common17truncate_str_utf8
FN:894,_RNvNtCseH83rItu4NK_15gungraun_macros6common20format_indexed_ident
FN:911,_RNvNtCseH83rItu4NK_15gungraun_macros6common32pattern_to_single_function_ident
FN:198,_RNvXs0_NtCseH83rItu4NK_15gungraun_macros6commonNtB5_4ArgsNtNtCs3me4nhu3r8b_5quote9to_tokens8ToTokens9to_tokens
FN:693,_RNvXs6_NtCseH83rItu4NK_15gungraun_macros6commonNtB5_6ConstsNtNtCsihgYlrnpvvS_3syn5parse5Parse5parse
FN:706,_RNvXs7_NtCseH83rItu4NK_15gungraun_macros6commonNtB5_6ConstsNtNtCs3me4nhu3r8b_5quote9to_tokens8ToTokens9to_tokens
FN:185,_RNvXs_NtCseH83rItu4NK_15gungraun_macros6commonNtB4_4ArgsNtNtCsihgYlrnpvvS_3syn5parse5Parse5parse
FN:558,_RNCNCNvMs5_NtCs4VtoIICFLcm_15gungraun_macros6commonNtB9_6Consts12maybe_string00Bb_
FN:84,_RNCNvMNtCs4VtoIICFLcm_15gungraun_macros6commonNtB4_4Args3len0B6_
FN:88,_RNCNvMNtCs4VtoIICFLcm_15gungraun_macros6commonNtB4_4Args4span0B6_
FN:253,_RNCNvMs1_NtCs4VtoIICFLcm_15gungraun_macros6commonNtB7_5Bench22from_benches_attribute0B9_
FN:551,_RNCNvMs5_NtCs4VtoIICFLcm_15gungraun_macros6commonNtB7_6Consts12maybe_string0B9_
FN:657,_RNCNvMs5_NtCs4VtoIICFLcm_15gungraun_macros6commonNtB7_6Consts17to_function_calls0B9_
FN:685,_RNCNvMs5_NtCs4VtoIICFLcm_15gungraun_macros6commonNtB7_6Consts17to_function_callss0_0B9_
FN:665,_RNCNvMs5_NtCs4VtoIICFLcm_15gungraun_macros6commonNtB7_6Consts17to_function_callss_0B9_
FN:539,_RNCNvMs5_NtCs4VtoIICFLcm_15gungraun_macros6commonNtB7_6Consts3len0B9_
FN:568,_RNCNvMs5_NtCs4VtoIICFLcm_15gungraun_macros6commonNtB7_6Consts4span0B9_
FN:547,_RNCNvMs5_NtCs4VtoIICFLcm_15gungraun_macros6commonNtB7_6Consts5exprs0B9_
FN:543,_RNCNvMs5_NtCs4VtoIICFLcm_15gungraun_macros6commonNtB7_6Consts8is_empty0B9_
FN:763,_RNCNvMs8_NtCs4VtoIICFLcm_15gungraun_macros6commonNtB7_4File4read0B9_
FN:902,_RNCNvNtCs4VtoIICFLcm_15gungraun_macros6common17truncate_str_utf80B5_
FN:97,_RNvMNtCs4VtoIICFLcm_15gungraun_macros6commonNtB2_4Args10parse_pair
FN:139,_RNvMNtCs4VtoIICFLcm_15gungraun_macros6commonNtB2_4Args15parse_meta_list
FN:159,_RNvMNtCs4VtoIICFLcm_15gungraun_macros6commonNtB2_4Args19check_num_arguments
FN:148,_RNvMNtCs4VtoIICFLcm_15gungraun_macros6commonNtB2_4Args27to_tokens_without_black_box
FN:83,_RNvMNtCs4VtoIICFLcm_15gungraun_macros6commonNtB2_4Args3len
FN:79,_RNvMNtCs4VtoIICFLcm_15gungraun_macros6commonNtB2_4Args3new
FN:87,_RNvMNtCs4VtoIICFLcm_15gungraun_macros6commonNtB2_4Args4span
FN:91,_RNvMNtCs4VtoIICFLcm_15gungraun_macros6commonNtB2_4Args8set_span
FN:216,_RNvMs1_NtCs4VtoIICFLcm_15gungraun_macros6commonNtB5_5Bench22from_benches_attribute
FN:207,_RNvMs1_NtCs4VtoIICFLcm_15gungraun_macros6commonNtB5_5Bench3new
FN:347,_RNvMs2_NtCs4VtoIICFLcm_15gungraun_macros6commonNtB5_11BenchConfig10parse_pair
FN:343,_RNvMs2_NtCs4VtoIICFLcm_15gungraun_macros6commonNtB5_11BenchConfig5ident
FN:358,_RNvMs2_NtCs4VtoIICFLcm_15gungraun_macros6commonNtB5_11BenchConfig7is_some
FN:380,_RNvMs3_NtCs4VtoIICFLcm_15gungraun_macros6commonNtB5_11BenchesArgs10parse_pair
FN:441,_RNvMs3_NtCs4VtoIICFLcm_15gungraun_macros6commonNtB5_11BenchesArgs13iter_infinite
FN:429,_RNvMs3_NtCs4VtoIICFLcm_15gungraun_macros6commonNtB5_11BenchesArgs14from_meta_list
FN:368,_RNvMs3_NtCs4VtoIICFLcm_15gungraun_macros6commonNtB5_11BenchesArgs3len
FN:372,_RNvMs3_NtCs4VtoIICFLcm_15gungraun_macros6commonNtB5_11BenchesArgs3new
FN:364,_RNvMs3_NtCs4VtoIICFLcm_15gungraun_macros6commonNtB5_11BenchesArgs7is_some
FN:408,_RNvMs3_NtCs4VtoIICFLcm_15gungraun_macros6commonNtB5_11BenchesArgs9from_expr
FN:456,_RNvMs4_NtCs4VtoIICFLcm_15gungraun_macros6commonNtB5_13BenchesConsts10parse_pair
FN:506,_RNvMs4_NtCs4VtoIICFLcm_15gungraun_macros6commonNtB5_13BenchesConsts13iter_infinite
FN:516,_RNvMs4_NtCs4VtoIICFLcm_15gungraun_macros6commonNtB5_13BenchesConsts3len
FN:520,_RNvMs4_NtCs4VtoIICFLcm_15gungraun_macros6commonNtB5_13BenchesConsts3new
FN:528,_RNvMs4_NtCs4VtoIICFLcm_15gungraun_macros6commonNtB5_13BenchesConsts5first
FN:485,_RNvMs4_NtCs4VtoIICFLcm_15gungraun_macros6commonNtB5_13BenchesConsts9from_expr
FN:577,_RNvMs5_NtCs4VtoIICFLcm_15gungraun_macros6commonNtB5_6Consts10parse_pair
FN:550,_RNvMs5_NtCs4VtoIICFLcm_15gungraun_macros6commonNtB5_6Consts12maybe_string
FN:648,_RNvMs5_NtCs4VtoIICFLcm_15gungraun_macros6commonNtB5_6Consts17to_function_calls
FN:622,_RNvMs5_NtCs4VtoIICFLcm_15gungraun_macros6commonNtB5_6Consts19check_num_arguments
FN:538,_RNvMs5_NtCs4VtoIICFLcm_15gungraun_macros6commonNtB5_6Consts3len
FN:534,_RNvMs5_NtCs4VtoIICFLcm_15gungraun_macros6commonNtB5_6Consts3new
FN:567,_RNvMs5_NtCs4VtoIICFLcm_15gungraun_macros6commonNtB5_6Consts4span
FN:546,_RNvMs5_NtCs4VtoIICFLcm_15gungraun_macros6commonNtB5_6Consts5exprs
FN:542,_RNvMs5_NtCs4VtoIICFLcm_15gungraun_macros6commonNtB5_6Consts8is_empty
FN:571,_RNvMs5_NtCs4VtoIICFLcm_15gungraun_macros6commonNtB5_6Consts8set_span
FN:723,_RNvMs8_NtCs4VtoIICFLcm_15gungraun_macros6commonNtB5_4File10parse_pair
FN:750,_RNvMs8_NtCs4VtoIICFLcm_15gungraun_macros6commonNtB5_4File4read
FN:719,_RNvMs8_NtCs4VtoIICFLcm_15gungraun_macros6commonNtB5_4File7is_some
FN:715,_RNvMs8_NtCs4VtoIICFLcm_15gungraun_macros6commonNtB5_4File7literal
FN:795,_RNvMs9_NtCs4VtoIICFLcm_15gungraun_macros6commonNtB5_4Iter10parse_pair
FN:791,_RNvMs9_NtCs4VtoIICFLcm_15gungraun_macros6commonNtB5_4Iter4expr
FN:787,_RNvMs9_NtCs4VtoIICFLcm_15gungraun_macros6commonNtB5_4Iter7is_some
FN:808,_RNvMsa_NtCs4VtoIICFLcm_15gungraun_macros6commonNtB5_5Setup10parse_pair
FN:829,_RNvMsa_NtCs4VtoIICFLcm_15gungraun_macros6commonNtB5_5Setup19to_string_with_args
FN:838,_RNvMsa_NtCs4VtoIICFLcm_15gungraun_macros6commonNtB5_5Setup19to_string_with_iter
FN:848,_RNvMsa_NtCs4VtoIICFLcm_15gungraun_macros6commonNtB5_5Setup6update
FN:856,_RNvMsb_NtCs4VtoIICFLcm_15gungraun_macros6commonNtB5_8Teardown10parse_pair
FN:879,_RNvMsb_NtCs4VtoIICFLcm_15gungraun_macros6commonNtB5_8Teardown6update
FN:886,_RNvNtCs4VtoIICFLcm_15gungraun_macros6common12format_ident
FN:899,_RNvNtCs4VtoIICFLcm_15gungraun_macros6common17truncate_str_utf8
FN:894,_RNvNtCs4VtoIICFLcm_15gungraun_macros6common20format_indexed_ident
FN:911,_RNvNtCs4VtoIICFLcm_15gungraun_macros6common32pattern_to_single_function_ident
FN:198,_RNvXs0_NtCs4VtoIICFLcm_15gungraun_macros6commonNtB5_4ArgsNtNtCs5zTqYJ1QKLS_5quote9to_tokens8ToTokens9to_tokens
FN:693,_RNvXs6_NtCs4VtoIICFLcm_15gungraun_macros6commonNtB5_6ConstsNtNtCs7YDbPhiuUg2_3syn5parse5Parse5parse
FN:706,_RNvXs7_NtCs4VtoIICFLcm_15gungraun_macros6commonNtB5_6ConstsNtNtCs5zTqYJ1QKLS_5quote9to_tokens8ToTokens9to_tokens
FN:185,_RNvXs_NtCs4VtoIICFLcm_15gungraun_macros6commonNtB4_4ArgsNtNtCs7YDbPhiuUg2_3syn5parse5Parse5parse
FNDA:0,_RNCNCNvMs5_NtCseTlsjhGl7ts_15gungraun_macros6commonNtB9_6Consts12maybe_string00Bb_
FNDA:0,_RNCNvMNtCseTlsjhGl7ts_15gungraun_macros6commonNtB4_4Args3len0B6_
FNDA:0,_RNCNvMs1_NtCseTlsjhGl7ts_15gungraun_macros6commonNtB7_5Bench22from_benches_attribute0B9_
FNDA:0,_RNCNvMs5_NtCseTlsjhGl7ts_15gungraun_macros6commonNtB7_6Consts12maybe_string0B9_
FNDA:0,_RNCNvMs5_NtCseTlsjhGl7ts_15gungraun_macros6commonNtB7_6Consts17to_function_calls0B9_
FNDA:0,_RNCNvMs5_NtCseTlsjhGl7ts_15gungraun_macros6commonNtB7_6Consts17to_function_callss0_0B9_
FNDA:0,_RNCNvMs5_NtCseTlsjhGl7ts_15gungraun_macros6commonNtB7_6Consts17to_function_callss_0B9_
FNDA:0,_RNCNvMs5_NtCseTlsjhGl7ts_15gungraun_macros6commonNtB7_6Consts3len0B9_
FNDA:0,_RNCNvMs5_NtCseTlsjhGl7ts_15gungraun_macros6commonNtB7_6Consts5exprs0B9_
FNDA:0,_RNCNvMs5_NtCseTlsjhGl7ts_15gungraun_macros6commonNtB7_6Consts8is_empty0B9_
FNDA:0,_RNCNvMs8_NtCseTlsjhGl7ts_15gungraun_macros6commonNtB7_4File4read0B9_
FNDA:0,_RNCNvNtCseTlsjhGl7ts_15gungraun_macros6common17truncate_str_utf80B5_
FNDA:0,_RNvMNtCseTlsjhGl7ts_15gungraun_macros6commonNtB2_4Args10parse_pair
FNDA:0,_RNvMNtCseTlsjhGl7ts_15gungraun_macros6commonNtB2_4Args15parse_meta_list
FNDA:0,_RNvMNtCseTlsjhGl7ts_15gungraun_macros6commonNtB2_4Args19check_num_arguments
FNDA:0,_RNvMNtCseTlsjhGl7ts_15gungraun_macros6commonNtB2_4Args27to_tokens_without_black_box
FNDA:0,_RNvMNtCseTlsjhGl7ts_15gungraun_macros6commonNtB2_4Args3len
FNDA:0,_RNvMNtCseTlsjhGl7ts_15gungraun_macros6commonNtB2_4Args3new
FNDA:0,_RNvMNtCseTlsjhGl7ts_15gungraun_macros6commonNtB2_4Args4span
FNDA:0,_RNvMNtCseTlsjhGl7ts_15gungraun_macros6commonNtB2_4Args8set_span
FNDA:0,_RNvMs1_NtCseTlsjhGl7ts_15gungraun_macros6commonNtB5_5Bench22from_benches_attribute
FNDA:0,_RNvMs1_NtCseTlsjhGl7ts_15gungraun_macros6commonNtB5_5Bench3new
FNDA:0,_RNvMs2_NtCseTlsjhGl7ts_15gungraun_macros6commonNtB5_11BenchConfig10parse_pair
FNDA:0,_RNvMs2_NtCseTlsjhGl7ts_15gungraun_macros6commonNtB5_11BenchConfig5ident
FNDA:0,_RNvMs2_NtCseTlsjhGl7ts_15gungraun_macros6commonNtB5_11BenchConfig7is_some
FNDA:0,_RNvMs3_NtCseTlsjhGl7ts_15gungraun_macros6commonNtB5_11BenchesArgs10parse_pair
FNDA:0,_RNvMs3_NtCseTlsjhGl7ts_15gungraun_macros6commonNtB5_11BenchesArgs13iter_infinite
FNDA:0,_RNvMs3_NtCseTlsjhGl7ts_15gungraun_macros6commonNtB5_11BenchesArgs14from_meta_list
FNDA:0,_RNvMs3_NtCseTlsjhGl7ts_15gungraun_macros6commonNtB5_11BenchesArgs3len
FNDA:0,_RNvMs3_NtCseTlsjhGl7ts_15gungraun_macros6commonNtB5_11BenchesArgs3new
FNDA:0,_RNvMs3_NtCseTlsjhGl7ts_15gungraun_macros6commonNtB5_11BenchesArgs7is_some
FNDA:0,_RNvMs3_NtCseTlsjhGl7ts_15gungraun_macros6commonNtB5_11BenchesArgs9from_expr
FNDA:0,_RNvMs4_NtCseTlsjhGl7ts_15gungraun_macros6commonNtB5_13BenchesConsts10parse_pair
FNDA:0,_RNvMs4_NtCseTlsjhGl7ts_15gungraun_macros6commonNtB5_13BenchesConsts13iter_infinite
FNDA:0,_RNvMs4_NtCseTlsjhGl7ts_15gungraun_macros6commonNtB5_13BenchesConsts3len
FNDA:0,_RNvMs4_NtCseTlsjhGl7ts_15gungraun_macros6commonNtB5_13BenchesConsts3new
FNDA:0,_RNvMs4_NtCseTlsjhGl7ts_15gungraun_macros6commonNtB5_13BenchesConsts5first
FNDA:0,_RNvMs4_NtCseTlsjhGl7ts_15gungraun_macros6commonNtB5_13BenchesConsts9from_expr
FNDA:0,_RNvMs5_NtCseTlsjhGl7ts_15gungraun_macros6commonNtB5_6Consts10parse_pair
FNDA:0,_RNvMs5_NtCseTlsjhGl7ts_15gungraun_macros6commonNtB5_6Consts12maybe_string
FNDA:0,_RNvMs5_NtCseTlsjhGl7ts_15gungraun_macros6commonNtB5_6Consts17to_function_calls
FNDA:0,_RNvMs5_NtCseTlsjhGl7ts_15gungraun_macros6commonNtB5_6Consts19check_num_arguments
FNDA:0,_RNvMs5_NtCseTlsjhGl7ts_15gungraun_macros6commonNtB5_6Consts3len
FNDA:0,_RNvMs5_NtCseTlsjhGl7ts_15gungraun_macros6commonNtB5_6Consts3new
FNDA:0,_RNvMs5_NtCseTlsjhGl7ts_15gungraun_macros6commonNtB5_6Consts4span
FNDA:0,_RNvMs5_NtCseTlsjhGl7ts_15gungraun_macros6commonNtB5_6Consts5exprs
FNDA:0,_RNvMs5_NtCseTlsjhGl7ts_15gungraun_macros6commonNtB5_6Consts8is_empty
FNDA:0,_RNvMs5_NtCseTlsjhGl7ts_15gungraun_macros6commonNtB5_6Consts8set_span
FNDA:0,_RNvMs8_NtCseTlsjhGl7ts_15gungraun_macros6commonNtB5_4File10parse_pair
FNDA:0,_RNvMs8_NtCseTlsjhGl7ts_15gungraun_macros6commonNtB5_4File4read
FNDA:0,_RNvMs8_NtCseTlsjhGl7ts_15gungraun_macros6commonNtB5_4File7is_some
FNDA:0,_RNvMs8_NtCseTlsjhGl7ts_15gungraun_macros6commonNtB5_4File7literal
FNDA:0,_RNvMs9_NtCseTlsjhGl7ts_15gungraun_macros6commonNtB5_4Iter10parse_pair
FNDA:0,_RNvMs9_NtCseTlsjhGl7ts_15gungraun_macros6commonNtB5_4Iter4expr
FNDA:0,_RNvMs9_NtCseTlsjhGl7ts_15gungraun_macros6commonNtB5_4Iter7is_some
FNDA:0,_RNvMsa_NtCseTlsjhGl7ts_15gungraun_macros6commonNtB5_5Setup10parse_pair
FNDA:0,_RNvMsa_NtCseTlsjhGl7ts_15gungraun_macros6commonNtB5_5Setup19to_string_with_args
FNDA:0,_RNvMsa_NtCseTlsjhGl7ts_15gungraun_macros6commonNtB5_5Setup19to_string_with_iter
FNDA:0,_RNvMsa_NtCseTlsjhGl7ts_15gungraun_macros6commonNtB5_5Setup6update
FNDA:0,_RNvMsb_NtCseTlsjhGl7ts_15gungraun_macros6commonNtB5_8Teardown10parse_pair
FNDA:0,_RNvMsb_NtCseTlsjhGl7ts_15gungraun_macros6commonNtB5_8Teardown6update
FNDA:0,_RNvNtCseTlsjhGl7ts_15gungraun_macros6common12format_ident
FNDA:0,_RNvNtCseTlsjhGl7ts_15gungraun_macros6common17truncate_str_utf8
FNDA:0,_RNvNtCseTlsjhGl7ts_15gungraun_macros6common20format_indexed_ident
FNDA:0,_RNvNtCseTlsjhGl7ts_15gungraun_macros6common32pattern_to_single_function_ident
FNDA:0,_RNvXs0_NtCseTlsjhGl7ts_15gungraun_macros6commonNtB5_4ArgsNtNtCsitvrDxV7QKm_5quote9to_tokens8ToTokens9to_tokens
FNDA:0,_RNvXs6_NtCseTlsjhGl7ts_15gungraun_macros6commonNtB5_6ConstsNtNtCska53IhjTmSY_3syn5parse5Parse5parse
FNDA:0,_RNvXs7_NtCseTlsjhGl7ts_15gungraun_macros6commonNtB5_6ConstsNtNtCsitvrDxV7QKm_5quote9to_tokens8ToTokens9to_tokens
FNDA:0,_RNvXs_NtCseTlsjhGl7ts_15gungraun_macros6commonNtB4_4ArgsNtNtCska53IhjTmSY_3syn5parse5Parse5parse
FNDA:23,_RNCNCNvMs5_NtCsky0f8fcmJ7i_15gungraun_macros6commonNtB9_6Consts12maybe_string00Bb_
FNDA:727,_RNCNvMNtCsky0f8fcmJ7i_15gungraun_macros6commonNtB4_4Args3len0B6_
FNDA:276,_RNCNvMs1_NtCsky0f8fcmJ7i_15gungraun_macros6commonNtB7_5Bench22from_benches_attribute0B9_
FNDA:194,_RNCNvMs5_NtCsky0f8fcmJ7i_15gungraun_macros6commonNtB7_6Consts12maybe_string0B9_
FNDA:698,_RNCNvMs5_NtCsky0f8fcmJ7i_15gungraun_macros6commonNtB7_6Consts17to_function_calls0B9_
FNDA:172,_RNCNvMs5_NtCsky0f8fcmJ7i_15gungraun_macros6commonNtB7_6Consts17to_function_callss0_0B9_
FNDA:420,_RNCNvMs5_NtCsky0f8fcmJ7i_15gungraun_macros6commonNtB7_6Consts17to_function_callss_0B9_
FNDA:194,_RNCNvMs5_NtCsky0f8fcmJ7i_15gungraun_macros6commonNtB7_6Consts3len0B9_
FNDA:194,_RNCNvMs5_NtCsky0f8fcmJ7i_15gungraun_macros6commonNtB7_6Consts5exprs0B9_
FNDA:194,_RNCNvMs5_NtCsky0f8fcmJ7i_15gungraun_macros6commonNtB7_6Consts8is_empty0B9_
FNDA:0,_RNCNvMs8_NtCsky0f8fcmJ7i_15gungraun_macros6commonNtB7_4File4read0B9_
FNDA:15612,_RNCNvNtCsky0f8fcmJ7i_15gungraun_macros6common17truncate_str_utf80B5_
FNDA:308,_RNvMNtCsky0f8fcmJ7i_15gungraun_macros6commonNtB2_4Args10parse_pair
FNDA:167,_RNvMNtCsky0f8fcmJ7i_15gungraun_macros6commonNtB2_4Args15parse_meta_list
FNDA:943,_RNvMNtCsky0f8fcmJ7i_15gungraun_macros6commonNtB2_4Args19check_num_arguments
FNDA:1072,_RNvMNtCsky0f8fcmJ7i_15gungraun_macros6commonNtB2_4Args27to_tokens_without_black_box
FNDA:943,_RNvMNtCsky0f8fcmJ7i_15gungraun_macros6commonNtB2_4Args3len
FNDA:719,_RNvMNtCsky0f8fcmJ7i_15gungraun_macros6commonNtB2_4Args3new
FNDA:0,_RNvMNtCsky0f8fcmJ7i_15gungraun_macros6commonNtB2_4Args4span
FNDA:469,_RNvMNtCsky0f8fcmJ7i_15gungraun_macros6commonNtB2_4Args8set_span
FNDA:183,_RNvMs1_NtCsky0f8fcmJ7i_15gungraun_macros6commonNtB5_5Bench22from_benches_attribute
FNDA:326,_RNvMs1_NtCsky0f8fcmJ7i_15gungraun_macros6commonNtB5_5Bench3new
FNDA:455,_RNvMs2_NtCsky0f8fcmJ7i_15gungraun_macros6commonNtB5_11BenchConfig10parse_pair
FNDA:762,_RNvMs2_NtCsky0f8fcmJ7i_15gungraun_macros6commonNtB5_11BenchConfig5ident
FNDA:123,_RNvMs2_NtCsky0f8fcmJ7i_15gungraun_macros6commonNtB5_11BenchConfig7is_some
FNDA:119,_RNvMs3_NtCsky0f8fcmJ7i_15gungraun_macros6commonNtB5_11BenchesArgs10parse_pair
FNDA:139,_RNvMs3_NtCsky0f8fcmJ7i_15gungraun_macros6commonNtB5_11BenchesArgs13iter_infinite
FNDA:11,_RNvMs3_NtCsky0f8fcmJ7i_15gungraun_macros6commonNtB5_11BenchesArgs14from_meta_list
FNDA:139,_RNvMs3_NtCsky0f8fcmJ7i_15gungraun_macros6commonNtB5_11BenchesArgs3len
FNDA:183,_RNvMs3_NtCsky0f8fcmJ7i_15gungraun_macros6commonNtB5_11BenchesArgs3new
FNDA:183,_RNvMs3_NtCsky0f8fcmJ7i_15gungraun_macros6commonNtB5_11BenchesArgs7is_some
FNDA:130,_RNvMs3_NtCsky0f8fcmJ7i_15gungraun_macros6commonNtB5_11BenchesArgs9from_expr
FNDA:78,_RNvMs4_NtCsky0f8fcmJ7i_15gungraun_macros6commonNtB5_13BenchesConsts10parse_pair
FNDA:148,_RNvMs4_NtCsky0f8fcmJ7i_15gungraun_macros6commonNtB5_13BenchesConsts13iter_infinite
FNDA:174,_RNvMs4_NtCsky0f8fcmJ7i_15gungraun_macros6commonNtB5_13BenchesConsts3len
FNDA:183,_RNvMs4_NtCsky0f8fcmJ7i_15gungraun_macros6commonNtB5_13BenchesConsts3new
FNDA:35,_RNvMs4_NtCsky0f8fcmJ7i_15gungraun_macros6commonNtB5_13BenchesConsts5first
FNDA:78,_RNvMs4_NtCsky0f8fcmJ7i_15gungraun_macros6commonNtB5_13BenchesConsts9from_expr
FNDA:32,_RNvMs5_NtCsky0f8fcmJ7i_15gungraun_macros6commonNtB5_6Consts10parse_pair
FNDA:993,_RNvMs5_NtCsky0f8fcmJ7i_15gungraun_macros6commonNtB5_6Consts12maybe_string
FNDA:993,_RNvMs5_NtCsky0f8fcmJ7i_15gungraun_macros6commonNtB5_6Consts17to_function_calls
FNDA:829,_RNvMs5_NtCsky0f8fcmJ7i_15gungraun_macros6commonNtB5_6Consts19check_num_arguments
FNDA:829,_RNvMs5_NtCsky0f8fcmJ7i_15gungraun_macros6commonNtB5_6Consts3len
FNDA:171,_RNvMs5_NtCsky0f8fcmJ7i_15gungraun_macros6commonNtB5_6Consts3new
FNDA:0,_RNvMs5_NtCsky0f8fcmJ7i_15gungraun_macros6commonNtB5_6Consts4span
FNDA:194,_RNvMs5_NtCsky0f8fcmJ7i_15gungraun_macros6commonNtB5_6Consts5exprs
FNDA:993,_RNvMs5_NtCsky0f8fcmJ7i_15gungraun_macros6commonNtB5_6Consts8is_empty
FNDA:22,_RNvMs5_NtCsky0f8fcmJ7i_15gungraun_macros6commonNtB5_6Consts8set_span
FNDA:9,_RNvMs8_NtCsky0f8fcmJ7i_15gungraun_macros6commonNtB5_4File10parse_pair
FNDA:9,_RNvMs8_NtCsky0f8fcmJ7i_15gungraun_macros6commonNtB5_4File4read
FNDA:183,_RNvMs8_NtCsky0f8fcmJ7i_15gungraun_macros6commonNtB5_4File7is_some
FNDA:9,_RNvMs8_NtCsky0f8fcmJ7i_15gungraun_macros6commonNtB5_4File7literal
FNDA:35,_RNvMs9_NtCsky0f8fcmJ7i_15gungraun_macros6commonNtB5_4Iter10parse_pair
FNDA:35,_RNvMs9_NtCsky0f8fcmJ7i_15gungraun_macros6commonNtB5_4Iter4expr
FNDA:183,_RNvMs9_NtCsky0f8fcmJ7i_15gungraun_macros6commonNtB5_4Iter7is_some
FNDA:230,_RNvMsa_NtCsky0f8fcmJ7i_15gungraun_macros6commonNtB5_5Setup10parse_pair
FNDA:844,_RNvMsa_NtCsky0f8fcmJ7i_15gungraun_macros6commonNtB5_5Setup19to_string_with_args
FNDA:26,_RNvMsa_NtCsky0f8fcmJ7i_15gungraun_macros6commonNtB5_5Setup19to_string_with_iter
FNDA:743,_RNvMsa_NtCsky0f8fcmJ7i_15gungraun_macros6commonNtB5_5Setup6update
FNDA:48,_RNvMsb_NtCsky0f8fcmJ7i_15gungraun_macros6commonNtB5_8Teardown10parse_pair
FNDA:743,_RNvMsb_NtCsky0f8fcmJ7i_15gungraun_macros6commonNtB5_8Teardown6update
FNDA:4319,_RNvNtCsky0f8fcmJ7i_15gungraun_macros6common12format_ident
FNDA:961,_RNvNtCsky0f8fcmJ7i_15gungraun_macros6common17truncate_str_utf8
FNDA:291,_RNvNtCsky0f8fcmJ7i_15gungraun_macros6common20format_indexed_ident
FNDA:785,_RNvNtCsky0f8fcmJ7i_15gungraun_macros6common32pattern_to_single_function_ident
FNDA:1559,_RNvXs0_NtCsky0f8fcmJ7i_15gungraun_macros6commonNtB5_4ArgsNtNtCs3me4nhu3r8b_5quote9to_tokens8ToTokens9to_tokens
FNDA:22,_RNvXs6_NtCsky0f8fcmJ7i_15gungraun_macros6commonNtB5_6ConstsNtNtCsihgYlrnpvvS_3syn5parse5Parse5parse
FNDA:0,_RNvXs7_NtCsky0f8fcmJ7i_15gungraun_macros6commonNtB5_6ConstsNtNtCs3me4nhu3r8b_5quote9to_tokens8ToTokens9to_tokens
FNDA:469,_RNvXs_NtCsky0f8fcmJ7i_15gungraun_macros6commonNtB4_4ArgsNtNtCsihgYlrnpvvS_3syn5parse5Parse5parse
FNDA:0,_RNCNCNvMs5_NtCseH83rItu4NK_15gungraun_macros6commonNtB9_6Consts12maybe_string00Bb_
FNDA:8,_RNCNvMNtCseH83rItu4NK_15gungraun_macros6commonNtB4_4Args3len0B6_
FNDA:0,_RNCNvMs1_NtCseH83rItu4NK_15gungraun_macros6commonNtB7_5Bench22from_benches_attribute0B9_
FNDA:0,_RNCNvMs5_NtCseH83rItu4NK_15gungraun_macros6commonNtB7_6Consts12maybe_string0B9_
FNDA:8,_RNCNvMs5_NtCseH83rItu4NK_15gungraun_macros6commonNtB7_6Consts17to_function_calls0B9_
FNDA:0,_RNCNvMs5_NtCseH83rItu4NK_15gungraun_macros6commonNtB7_6Consts17to_function_callss0_0B9_
FNDA:0,_RNCNvMs5_NtCseH83rItu4NK_15gungraun_macros6commonNtB7_6Consts17to_function_callss_0B9_
FNDA:0,_RNCNvMs5_NtCseH83rItu4NK_15gungraun_macros6commonNtB7_6Consts3len0B9_
FNDA:0,_RNCNvMs5_NtCseH83rItu4NK_15gungraun_macros6commonNtB7_6Consts5exprs0B9_
FNDA:0,_RNCNvMs5_NtCseH83rItu4NK_15gungraun_macros6commonNtB7_6Consts8is_empty0B9_
FNDA:0,_RNCNvMs8_NtCseH83rItu4NK_15gungraun_macros6commonNtB7_4File4read0B9_
FNDA:156,_RNCNvNtCseH83rItu4NK_15gungraun_macros6common17truncate_str_utf80B5_
FNDA:7,_RNvMNtCseH83rItu4NK_15gungraun_macros6commonNtB2_4Args10parse_pair
FNDA:1,_RNvMNtCseH83rItu4NK_15gungraun_macros6commonNtB2_4Args15parse_meta_list
FNDA:8,_RNvMNtCseH83rItu4NK_15gungraun_macros6commonNtB2_4Args19check_num_arguments
FNDA:8,_RNvMNtCseH83rItu4NK_15gungraun_macros6commonNtB2_4Args27to_tokens_without_black_box
FNDA:8,_RNvMNtCseH83rItu4NK_15gungraun_macros6commonNtB2_4Args3len
FNDA:8,_RNvMNtCseH83rItu4NK_15gungraun_macros6commonNtB2_4Args3new
FNDA:0,_RNvMNtCseH83rItu4NK_15gungraun_macros6commonNtB2_4Args4span
FNDA:1,_RNvMNtCseH83rItu4NK_15gungraun_macros6commonNtB2_4Args8set_span
FNDA:0,_RNvMs1_NtCseH83rItu4NK_15gungraun_macros6commonNtB5_5Bench22from_benches_attribute
FNDA:0,_RNvMs1_NtCseH83rItu4NK_15gungraun_macros6commonNtB5_5Bench3new
FNDA:7,_RNvMs2_NtCseH83rItu4NK_15gungraun_macros6commonNtB5_11BenchConfig10parse_pair
FNDA:12,_RNvMs2_NtCseH83rItu4NK_15gungraun_macros6commonNtB5_11BenchConfig5ident
FNDA:0,_RNvMs2_NtCseH83rItu4NK_15gungraun_macros6commonNtB5_11BenchConfig7is_some
FNDA:0,_RNvMs3_NtCseH83rItu4NK_15gungraun_macros6commonNtB5_11BenchesArgs10parse_pair
FNDA:0,_RNvMs3_NtCseH83rItu4NK_15gungraun_macros6commonNtB5_11BenchesArgs13iter_infinite
FNDA:0,_RNvMs3_NtCseH83rItu4NK_15gungraun_macros6commonNtB5_11BenchesArgs14from_meta_list
FNDA:0,_RNvMs3_NtCseH83rItu4NK_15gungraun_macros6commonNtB5_11BenchesArgs3len
FNDA:0,_RNvMs3_NtCseH83rItu4NK_15gungraun_macros6commonNtB5_11BenchesArgs3new
FNDA:0,_RNvMs3_NtCseH83rItu4NK_15gungraun_macros6commonNtB5_11BenchesArgs7is_some
FNDA:0,_RNvMs3_NtCseH83rItu4NK_15gungraun_macros6commonNtB5_11BenchesArgs9from_expr
FNDA:0,_RNvMs4_NtCseH83rItu4NK_15gungraun_macros6commonNtB5_13BenchesConsts10parse_pair
FNDA:0,_RNvMs4_NtCseH83rItu4NK_15gungraun_macros6commonNtB5_13BenchesConsts13iter_infinite
FNDA:0,_RNvMs4_NtCseH83rItu4NK_15gungraun_macros6commonNtB5_13BenchesConsts3len
FNDA:0,_RNvMs4_NtCseH83rItu4NK_15gungraun_macros6commonNtB5_13BenchesConsts3new
FNDA:0,_RNvMs4_NtCseH83rItu4NK_15gungraun_macros6commonNtB5_13BenchesConsts5first
FNDA:0,_RNvMs4_NtCseH83rItu4NK_15gungraun_macros6commonNtB5_13BenchesConsts9from_expr
FNDA:0,_RNvMs5_NtCseH83rItu4NK_15gungraun_macros6commonNtB5_6Consts10parse_pair
FNDA:8,_RNvMs5_NtCseH83rItu4NK_15gungraun_macros6commonNtB5_6Consts12maybe_string
FNDA:8,_RNvMs5_NtCseH83rItu4NK_15gungraun_macros6commonNtB5_6Consts17to_function_calls
FNDA:8,_RNvMs5_NtCseH83rItu4NK_15gungraun_macros6commonNtB5_6Consts19check_num_arguments
FNDA:8,_RNvMs5_NtCseH83rItu4NK_15gungraun_macros6commonNtB5_6Consts3len
FNDA:0,_RNvMs5_NtCseH83rItu4NK_15gungraun_macros6commonNtB5_6Consts3new
FNDA:0,_RNvMs5_NtCseH83rItu4NK_15gungraun_macros6commonNtB5_6Consts4span
FNDA:0,_RNvMs5_NtCseH83rItu4NK_15gungraun_macros6commonNtB5_6Consts5exprs
FNDA:8,_RNvMs5_NtCseH83rItu4NK_15gungraun_macros6commonNtB5_6Consts8is_empty
FNDA:0,_RNvMs5_NtCseH83rItu4NK_15gungraun_macros6commonNtB5_6Consts8set_span
FNDA:0,_RNvMs8_NtCseH83rItu4NK_15gungraun_macros6commonNtB5_4File10parse_pair
FNDA:0,_RNvMs8_NtCseH83rItu4NK_15gungraun_macros6commonNtB5_4File4read
FNDA:0,_RNvMs8_NtCseH83rItu4NK_15gungraun_macros6commonNtB5_4File7is_some
FNDA:0,_RNvMs8_NtCseH83rItu4NK_15gungraun_macros6commonNtB5_4File7literal
FNDA:0,_RNvMs9_NtCseH83rItu4NK_15gungraun_macros6commonNtB5_4Iter10parse_pair
FNDA:0,_RNvMs9_NtCseH83rItu4NK_15gungraun_macros6commonNtB5_4Iter4expr
FNDA:0,_RNvMs9_NtCseH83rItu4NK_15gungraun_macros6commonNtB5_4Iter7is_some
FNDA:4,_RNvMsa_NtCseH83rItu4NK_15gungraun_macros6commonNtB5_5Setup10parse_pair
FNDA:8,_RNvMsa_NtCseH83rItu4NK_15gungraun_macros6commonNtB5_5Setup19to_string_with_args
FNDA:0,_RNvMsa_NtCseH83rItu4NK_15gungraun_macros6commonNtB5_5Setup19to_string_with_iter
FNDA:8,_RNvMsa_NtCseH83rItu4NK_15gungraun_macros6commonNtB5_5Setup6update
FNDA:0,_RNvMsb_NtCseH83rItu4NK_15gungraun_macros6commonNtB5_8Teardown10parse_pair
FNDA:8,_RNvMsb_NtCseH83rItu4NK_15gungraun_macros6commonNtB5_8Teardown6update
FNDA:39,_RNvNtCseH83rItu4NK_15gungraun_macros6common12format_ident
FNDA:8,_RNvNtCseH83rItu4NK_15gungraun_macros6common17truncate_str_utf8
FNDA:0,_RNvNtCseH83rItu4NK_15gungraun_macros6common20format_indexed_ident
FNDA:8,_RNvNtCseH83rItu4NK_15gungraun_macros6common32pattern_to_single_function_ident
FNDA:12,_RNvXs0_NtCseH83rItu4NK_15gungraun_macros6commonNtB5_4ArgsNtNtCs3me4nhu3r8b_5quote9to_tokens8ToTokens9to_tokens
FNDA:0,_RNvXs6_NtCseH83rItu4NK_15gungraun_macros6commonNtB5_6ConstsNtNtCsihgYlrnpvvS_3syn5parse5Parse5parse
FNDA:0,_RNvXs7_NtCseH83rItu4NK_15gungraun_macros6commonNtB5_6ConstsNtNtCs3me4nhu3r8b_5quote9to_tokens8ToTokens9to_tokens
FNDA:1,_RNvXs_NtCseH83rItu4NK_15gungraun_macros6commonNtB4_4ArgsNtNtCsihgYlrnpvvS_3syn5parse5Parse5parse
FNDA:58,_RNCNCNvMs5_NtCs4VtoIICFLcm_15gungraun_macros6commonNtB9_6Consts12maybe_string00Bb_
FNDA:303,_RNCNvMNtCs4VtoIICFLcm_15gungraun_macros6commonNtB4_4Args3len0B6_
FNDA:11,_RNCNvMNtCs4VtoIICFLcm_15gungraun_macros6commonNtB4_4Args4span0B6_
FNDA:248,_RNCNvMs1_NtCs4VtoIICFLcm_15gungraun_macros6commonNtB7_5Bench22from_benches_attribute0B9_
FNDA:273,_RNCNvMs5_NtCs4VtoIICFLcm_15gungraun_macros6commonNtB7_6Consts12maybe_string0B9_
FNDA:213,_RNCNvMs5_NtCs4VtoIICFLcm_15gungraun_macros6commonNtB7_6Consts17to_function_calls0B9_
FNDA:128,_RNCNvMs5_NtCs4VtoIICFLcm_15gungraun_macros6commonNtB7_6Consts17to_function_callss0_0B9_
FNDA:420,_RNCNvMs5_NtCs4VtoIICFLcm_15gungraun_macros6commonNtB7_6Consts17to_function_callss_0B9_
FNDA:277,_RNCNvMs5_NtCs4VtoIICFLcm_15gungraun_macros6commonNtB7_6Consts3len0B9_
FNDA:25,_RNCNvMs5_NtCs4VtoIICFLcm_15gungraun_macros6commonNtB7_6Consts4span0B9_
FNDA:261,_RNCNvMs5_NtCs4VtoIICFLcm_15gungraun_macros6commonNtB7_6Consts5exprs0B9_
FNDA:277,_RNCNvMs5_NtCs4VtoIICFLcm_15gungraun_macros6commonNtB7_6Consts8is_empty0B9_
FNDA:2,_RNCNvMs8_NtCs4VtoIICFLcm_15gungraun_macros6commonNtB7_4File4read0B9_
FNDA:5849,_RNCNvNtCs4VtoIICFLcm_15gungraun_macros6common17truncate_str_utf80B5_
FNDA:84,_RNvMNtCs4VtoIICFLcm_15gungraun_macros6commonNtB2_4Args10parse_pair
FNDA:46,_RNvMNtCs4VtoIICFLcm_15gungraun_macros6commonNtB2_4Args15parse_meta_list
FNDA:427,_RNvMNtCs4VtoIICFLcm_15gungraun_macros6commonNtB2_4Args19check_num_arguments
FNDA:649,_RNvMNtCs4VtoIICFLcm_15gungraun_macros6commonNtB2_4Args27to_tokens_without_black_box
FNDA:427,_RNvMNtCs4VtoIICFLcm_15gungraun_macros6commonNtB2_4Args3len
FNDA:347,_RNvMNtCs4VtoIICFLcm_15gungraun_macros6commonNtB2_4Args3new
FNDA:13,_RNvMNtCs4VtoIICFLcm_15gungraun_macros6commonNtB2_4Args4span
FNDA:85,_RNvMNtCs4VtoIICFLcm_15gungraun_macros6commonNtB2_4Args8set_span
FNDA:311,_RNvMs1_NtCs4VtoIICFLcm_15gungraun_macros6commonNtB5_5Bench22from_benches_attribute
FNDA:391,_RNvMs1_NtCs4VtoIICFLcm_15gungraun_macros6commonNtB5_5Bench3new
FNDA:28,_RNvMs2_NtCs4VtoIICFLcm_15gungraun_macros6commonNtB5_11BenchConfig10parse_pair
FNDA:26,_RNvMs2_NtCs4VtoIICFLcm_15gungraun_macros6commonNtB5_11BenchConfig5ident
FNDA:225,_RNvMs2_NtCs4VtoIICFLcm_15gungraun_macros6commonNtB5_11BenchConfig7is_some
FNDA:116,_RNvMs3_NtCs4VtoIICFLcm_15gungraun_macros6commonNtB5_11BenchesArgs10parse_pair
FNDA:180,_RNvMs3_NtCs4VtoIICFLcm_15gungraun_macros6commonNtB5_11BenchesArgs13iter_infinite
FNDA:26,_RNvMs3_NtCs4VtoIICFLcm_15gungraun_macros6commonNtB5_11BenchesArgs14from_meta_list
FNDA:180,_RNvMs3_NtCs4VtoIICFLcm_15gungraun_macros6commonNtB5_11BenchesArgs3len
FNDA:327,_RNvMs3_NtCs4VtoIICFLcm_15gungraun_macros6commonNtB5_11BenchesArgs3new
FNDA:311,_RNvMs3_NtCs4VtoIICFLcm_15gungraun_macros6commonNtB5_11BenchesArgs7is_some
FNDA:141,_RNvMs3_NtCs4VtoIICFLcm_15gungraun_macros6commonNtB5_11BenchesArgs9from_expr
FNDA:161,_RNvMs4_NtCs4VtoIICFLcm_15gungraun_macros6commonNtB5_13BenchesConsts10parse_pair
FNDA:196,_RNvMs4_NtCs4VtoIICFLcm_15gungraun_macros6commonNtB5_13BenchesConsts13iter_infinite
FNDA:279,_RNvMs4_NtCs4VtoIICFLcm_15gungraun_macros6commonNtB5_13BenchesConsts3len
FNDA:327,_RNvMs4_NtCs4VtoIICFLcm_15gungraun_macros6commonNtB5_13BenchesConsts3new
FNDA:95,_RNvMs4_NtCs4VtoIICFLcm_15gungraun_macros6commonNtB5_13BenchesConsts5first
FNDA:159,_RNvMs4_NtCs4VtoIICFLcm_15gungraun_macros6commonNtB5_13BenchesConsts9from_expr
FNDA:98,_RNvMs5_NtCs4VtoIICFLcm_15gungraun_macros6commonNtB5_6Consts10parse_pair
FNDA:566,_RNvMs5_NtCs4VtoIICFLcm_15gungraun_macros6commonNtB5_6Consts12maybe_string
FNDA:570,_RNvMs5_NtCs4VtoIICFLcm_15gungraun_macros6commonNtB5_6Consts17to_function_calls
FNDA:364,_RNvMs5_NtCs4VtoIICFLcm_15gungraun_macros6commonNtB5_6Consts19check_num_arguments
FNDA:364,_RNvMs5_NtCs4VtoIICFLcm_15gungraun_macros6commonNtB5_6Consts3len
FNDA:259,_RNvMs5_NtCs4VtoIICFLcm_15gungraun_macros6commonNtB5_6Consts3new
FNDA:25,_RNvMs5_NtCs4VtoIICFLcm_15gungraun_macros6commonNtB5_6Consts4span
FNDA:261,_RNvMs5_NtCs4VtoIICFLcm_15gungraun_macros6commonNtB5_6Consts5exprs
FNDA:570,_RNvMs5_NtCs4VtoIICFLcm_15gungraun_macros6commonNtB5_6Consts8is_empty
FNDA:70,_RNvMs5_NtCs4VtoIICFLcm_15gungraun_macros6commonNtB5_6Consts8set_span
FNDA:30,_RNvMs8_NtCs4VtoIICFLcm_15gungraun_macros6commonNtB5_4File10parse_pair
FNDA:22,_RNvMs8_NtCs4VtoIICFLcm_15gungraun_macros6commonNtB5_4File4read
FNDA:311,_RNvMs8_NtCs4VtoIICFLcm_15gungraun_macros6commonNtB5_4File7is_some
FNDA:24,_RNvMs8_NtCs4VtoIICFLcm_15gungraun_macros6commonNtB5_4File7literal
FNDA:107,_RNvMs9_NtCs4VtoIICFLcm_15gungraun_macros6commonNtB5_4Iter10parse_pair
FNDA:103,_RNvMs9_NtCs4VtoIICFLcm_15gungraun_macros6commonNtB5_4Iter4expr
FNDA:311,_RNvMs9_NtCs4VtoIICFLcm_15gungraun_macros6commonNtB5_4Iter7is_some
FNDA:44,_RNvMsa_NtCs4VtoIICFLcm_15gungraun_macros6commonNtB5_5Setup10parse_pair
FNDA:293,_RNvMsa_NtCs4VtoIICFLcm_15gungraun_macros6commonNtB5_5Setup19to_string_with_args
FNDA:48,_RNvMsa_NtCs4VtoIICFLcm_15gungraun_macros6commonNtB5_5Setup19to_string_with_iter
FNDA:290,_RNvMsa_NtCs4VtoIICFLcm_15gungraun_macros6commonNtB5_5Setup6update
FNDA:25,_RNvMsb_NtCs4VtoIICFLcm_15gungraun_macros6commonNtB5_8Teardown10parse_pair
FNDA:290,_RNvMsb_NtCs4VtoIICFLcm_15gungraun_macros6commonNtB5_8Teardown6update
FNDA:2332,_RNvNtCs4VtoIICFLcm_15gungraun_macros6common12format_ident
FNDA:693,_RNvNtCs4VtoIICFLcm_15gungraun_macros6common17truncate_str_utf8
FNDA:296,_RNvNtCs4VtoIICFLcm_15gungraun_macros6common20format_indexed_ident
FNDA:304,_RNvNtCs4VtoIICFLcm_15gungraun_macros6common32pattern_to_single_function_ident
FNDA:626,_RNvXs0_NtCs4VtoIICFLcm_15gungraun_macros6commonNtB5_4ArgsNtNtCs5zTqYJ1QKLS_5quote9to_tokens8ToTokens9to_tokens
FNDA:70,_RNvXs6_NtCs4VtoIICFLcm_15gungraun_macros6commonNtB5_6ConstsNtNtCs7YDbPhiuUg2_3syn5parse5Parse5parse
FNDA:0,_RNvXs7_NtCs4VtoIICFLcm_15gungraun_macros6commonNtB5_6ConstsNtNtCs5zTqYJ1QKLS_5quote9to_tokens8ToTokens9to_tokens
FNDA:87,_RNvXs_NtCs4VtoIICFLcm_15gungraun_macros6commonNtB4_4ArgsNtNtCs7YDbPhiuUg2_3syn5parse5Parse5parse
FNF:73
FNH:72
DA:79,727
DA:80,727
DA:81,727
DA:83,951
DA:84,951
DA:85,951
DA:87,0
DA:88,13
DA:89,13
DA:91,470
DA:92,555
DA:93,555
DA:94,555
DA:95,555
DA:97,315
DA:98,315
DA:99,315
DA:100,315
DA:101,399
DA:102,160
DA:103,160
DA:105,160
DA:106,160
DA:108,64
DA:109,64
DA:111,48
DA:112,48
DA:114,107
DA:117,0
DA:118,1
DA:119,1
DA:120,1
DA:121,0
DA:122,1
DA:123,0
DA:124,1
DA:128,315
DA:129,0
DA:130,0
DA:131,0
DA:132,0
DA:133,0
DA:134,0
DA:136,398
DA:137,398
DA:139,168
DA:140,212
DA:141,168
DA:142,44
DA:143,168
DA:144,44
DA:145,168
DA:146,214
DA:148,1080
DA:149,1729
DA:150,837
DA:152,243
DA:154,1729
DA:159,951
DA:160,951
DA:161,427
DA:162,1055
DA:163,13
DA:164,11
DA:165,11
DA:166,11
DA:167,11
DA:168,11
DA:169,11
DA:170,11
DA:171,11
DA:172,2
DA:173,2
DA:174,2
DA:175,2
DA:176,2
DA:177,2
DA:178,2
DA:179,2
DA:180,1365
DA:181,1378
DA:185,470
DA:186,555
DA:187,470
DA:188,470
DA:189,470
DA:190,85
DA:191,85
DA:192,85
DA:193,470
DA:194,557
DA:198,1571
DA:199,2197
DA:200,1519
DA:201,1086
DA:202,678
DA:203,2197
DA:207,326
DA:208,391
DA:209,391
DA:216,183
DA:217,183
DA:218,183
DA:219,183
DA:220,183
DA:221,183
DA:222,183
DA:223,183
DA:224,183
DA:225,183
DA:226,311
DA:227,311
DA:228,311
DA:229,311
DA:231,0
DA:232,4
DA:233,4
DA:234,4
DA:239,319
DA:240,319
DA:241,263
DA:243,9
DA:248,139
DA:249,180
DA:250,180
DA:251,180
DA:252,180
DA:253,276
DA:254,276
DA:255,524
DA:256,315
DA:257,315
DA:259,276
DA:260,276
DA:261,276
DA:262,180
DA:266,9
DA:267,24
DA:268,0
DA:269,2
DA:270,2
DA:271,0
DA:272,2
DA:273,2
DA:274,22
DA:275,22
DA:276,22
DA:277,22
DA:278,0
DA:279,20
DA:280,20
DA:281,20
DA:282,15
DA:283,9
DA:285,15
DA:286,63
DA:287,0
DA:289,15
DA:292,63
DA:293,24
DA:294,39
DA:296,15
DA:297,48
DA:300,25
DA:304,35
DA:305,103
DA:306,0
DA:307,4
DA:308,4
DA:309,0
DA:310,4
DA:311,4
DA:312,0
DA:313,0
DA:314,0
DA:315,0
DA:316,4
DA:317,134
DA:318,0
DA:319,4
DA:320,4
DA:321,4
DA:322,4
DA:323,0
DA:324,4
DA:325,0
DA:326,4
DA:327,35
DA:328,35
DA:329,35
DA:330,95
DA:331,95
DA:332,130
DA:333,8
DA:334,122
DA:336,35
DA:339,474
DA:343,774
DA:344,774
DA:345,774
DA:347,462
DA:348,490
DA:349,490
DA:350,490
DA:351,0
DA:352,0
DA:353,0
DA:354,0
DA:355,0
DA:356,490
DA:358,123
DA:359,225
DA:360,225
DA:364,183
DA:365,311
DA:366,311
DA:368,139
DA:369,180
DA:370,180
DA:372,183
DA:373,327
DA:374,183
DA:375,183
DA:376,183
DA:377,183
DA:378,327
DA:380,119
DA:381,119
DA:382,235
DA:383,119
DA:385,0
DA:386,2
DA:387,2
DA:388,2
DA:389,2
DA:390,0
DA:391,0
DA:392,0
DA:393,0
DA:394,2
DA:395,119
DA:396,119
DA:397,119
DA:399,0
DA:400,0
DA:401,0
DA:402,0
DA:405,233
DA:406,233
DA:408,130
DA:409,271
DA:410,130
DA:411,443
DA:412,229
DA:413,401
DA:414,119
DA:415,119
DA:416,94
DA:417,94
DA:419,0
DA:420,135
DA:423,229
DA:426,271
DA:427,271
DA:429,11
DA:430,26
DA:431,36
DA:433,36
DA:434,36
DA:435,36
DA:436,36
DA:437,36
DA:438,36
DA:439,37
DA:441,139
DA:442,263
DA:443,263
DA:444,126
DA:445,126
DA:446,126
DA:447,126
DA:448,126
DA:450,13
DA:452,319
DA:456,78
DA:457,161
DA:458,235
DA:459,78
DA:461,0
DA:462,4
DA:463,4
DA:464,4
DA:465,4
DA:466,0
DA:467,0
DA:468,0
DA:469,0
DA:470,4
DA:471,153
DA:472,153
DA:473,153
DA:474,153
DA:476,0
DA:477,2
DA:478,2
DA:479,2
DA:482,231
DA:483,233
DA:485,78
DA:486,235
DA:487,78
DA:488,402
DA:489,139
DA:490,306
DA:491,51
DA:492,51
DA:493,15
DA:494,36
DA:496,0
DA:497,124
DA:500,139
DA:503,235
DA:504,237
DA:506,148
DA:507,213
DA:508,213
DA:509,119
DA:510,119
DA:512,70
DA:514,344
DA:516,174
DA:517,279
DA:518,279
DA:520,183
DA:521,327
DA:522,183
DA:523,183
DA:524,183
DA:525,183
DA:526,327
DA:528,35
DA:529,95
DA:530,95
DA:534,171
DA:535,259
DA:536,259
DA:538,837
DA:539,837
DA:540,837
DA:542,1001
DA:543,1001
DA:544,1001
DA:546,194
DA:547,261
DA:548,261
DA:550,1001
DA:551,1001
DA:552,273
DA:553,16
DA:555,194
DA:556,257
DA:557,257
DA:558,257
DA:559,58
DA:560,58
DA:561,257
DA:562,257
DA:564,566
DA:565,1001
DA:567,0
DA:568,25
DA:569,25
DA:571,22
DA:572,92
DA:573,92
DA:574,92
DA:575,92
DA:577,32
DA:578,98
DA:579,32
DA:580,96
DA:581,128
DA:582,0
DA:583,0
DA:585,0
DA:586,0
DA:588,41
DA:589,41
DA:591,7
DA:592,34
DA:594,25
DA:597,0
DA:598,4
DA:599,4
DA:600,4
DA:601,0
DA:602,4
DA:603,0
DA:604,4
DA:608,32
DA:609,2
DA:610,2
DA:611,2
DA:612,2
DA:613,2
DA:614,2
DA:616,126
DA:617,126
DA:622,837
DA:623,837
DA:624,364
DA:625,837
DA:626,25
DA:627,25
DA:628,25
DA:629,25
DA:630,25
DA:631,25
DA:632,25
DA:633,25
DA:634,25
DA:635,25
DA:636,0
DA:637,0
DA:638,0
DA:639,0
DA:640,0
DA:641,0
DA:642,0
DA:643,0
DA:644,0
DA:645,1176
DA:646,1201
DA:648,1001
DA:649,1001
DA:650,1001
DA:651,1001
DA:652,1001
DA:653,1001
DA:654,1001
DA:655,309
DA:656,807
DA:657,807
DA:658,309
DA:660,194
DA:661,261
DA:662,261
DA:663,194
DA:664,261
DA:665,420
DA:666,144
DA:667,173
DA:668,523
DA:669,523
DA:670,519
DA:672,0
DA:673,4
DA:674,4
DA:675,4
DA:676,4
DA:679,836
DA:680,261
DA:681,261
DA:682,261
DA:683,194
DA:684,257
DA:685,300
DA:686,257
DA:687,257
DA:689,1567
DA:693,22
DA:694,92
DA:695,70
DA:696,22
DA:697,70
DA:698,70
DA:699,70
DA:700,70
DA:701,70
DA:702,92
DA:706,0
DA:707,0
DA:708,0
DA:709,0
DA:710,0
DA:711,0
DA:715,9
DA:716,24
DA:717,24
DA:719,183
DA:720,311
DA:721,311
DA:723,9
DA:724,30
DA:725,39
DA:726,35
DA:728,0
DA:729,4
DA:730,4
DA:731,0
DA:732,4
DA:733,4
DA:735,0
DA:736,0
DA:737,0
DA:738,0
DA:739,0
DA:740,0
DA:742,35
DA:743,35
DA:750,9
DA:751,22
DA:752,22
DA:753,22
DA:754,22
DA:755,22
DA:756,31
DA:757,31
DA:758,31
DA:759,31
DA:760,0
DA:762,9
DA:763,22
DA:764,22
DA:765,22
DA:766,15
DA:767,65
DA:768,15
DA:769,15
DA:770,15
DA:771,0
DA:772,2
DA:773,2
DA:774,2
DA:775,2
DA:776,2
DA:777,2
DA:778,2
DA:782,9
DA:783,18
DA:787,183
DA:788,311
DA:789,311
DA:791,35
DA:792,103
DA:793,103
DA:795,35
DA:796,140
DA:797,140
DA:798,140
DA:799,2
DA:800,2
DA:801,2
DA:802,2
DA:803,2
DA:804,142
DA:808,234
DA:809,234
DA:810,234
DA:811,278
DA:812,278
DA:813,278
DA:814,0
DA:815,0
DA:816,0
DA:817,0
DA:818,0
DA:819,0
DA:822,0
DA:823,0
DA:824,0
DA:825,0
DA:827,278
DA:829,852
DA:830,852
DA:831,1145
DA:832,258
DA:834,594
DA:836,1145
DA:838,26
DA:839,48
DA:840,74
DA:841,8
DA:843,18
DA:845,74
DA:848,751
DA:849,751
DA:850,16
DA:851,1025
DA:852,1041
DA:856,48
DA:857,48
DA:858,48
DA:859,73
DA:860,73
DA:861,73
DA:862,0
DA:863,0
DA:864,0
DA:865,0
DA:866,0
DA:867,0
DA:870,0
DA:871,0
DA:872,0
DA:873,0
DA:875,73
DA:879,751
DA:880,751
DA:881,6
DA:882,1035
DA:883,1041
DA:886,4358
DA:887,6690
DA:888,3990
DA:890,368
DA:892,6690
DA:894,291
DA:895,296
DA:896,296
DA:899,969
DA:900,969
DA:901,969
DA:902,15768
DA:903,969
DA:905,1662
DA:907,0
DA:909,1662
DA:911,793
DA:912,793
DA:913,793
DA:914,793
DA:915,793
DA:916,793
DA:917,773
DA:918,773
DA:919,773
DA:920,773
DA:921,773
DA:922,773
DA:923,773
DA:924,0
DA:925,0
DA:927,0
DA:928,8
DA:929,8
DA:930,8
DA:931,8
DA:932,8
DA:933,0
DA:935,0
DA:936,0
DA:937,0
DA:938,0
DA:939,0
DA:940,0
DA:941,0
DA:942,0
DA:943,0
DA:944,0
DA:945,0
DA:946,0
DA:947,0
DA:948,0
DA:949,20
DA:950,20
DA:951,20
DA:952,20
DA:953,20
DA:954,20
DA:955,20
DA:956,0
DA:957,0
DA:958,0
DA:959,0
DA:960,0
DA:961,0
DA:962,0
DA:963,0
DA:964,0
DA:965,0
DA:966,0
DA:967,0
DA:968,0
DA:969,0
DA:970,0
DA:971,0
DA:973,1097
BRF:0
BRH:0
LF:717
LH:643
end_of_record
SF:/fast/lenny/workspace/programming/gungraun/gungraun/gungraun-macros/src/derive_macros.rs
FN:14,_RNCNvNtCseTlsjhGl7ts_15gungraun_macros13derive_macros17render_into_inner0B5_
FN:6,_RNvNtCseTlsjhGl7ts_15gungraun_macros13derive_macros17render_into_inner
FN:14,_RNCNvNtCsky0f8fcmJ7i_15gungraun_macros13derive_macros17render_into_inner0B5_
FN:6,_RNvNtCsky0f8fcmJ7i_15gungraun_macros13derive_macros17render_into_inner
FN:14,_RNCNvNtCseH83rItu4NK_15gungraun_macros13derive_macros17render_into_inner0B5_
FN:6,_RNvNtCseH83rItu4NK_15gungraun_macros13derive_macros17render_into_inner
FN:14,_RNCNvNtCs4VtoIICFLcm_15gungraun_macros13derive_macros17render_into_inner0B5_
FN:6,_RNvNtCs4VtoIICFLcm_15gungraun_macros13derive_macros17render_into_inner
FNDA:45,_RNCNvNtCseTlsjhGl7ts_15gungraun_macros13derive_macros17render_into_inner0B5_
FNDA:45,_RNvNtCseTlsjhGl7ts_15gungraun_macros13derive_macros17render_into_inner
FNDA:45,_RNCNvNtCsky0f8fcmJ7i_15gungraun_macros13derive_macros17render_into_inner0B5_
FNDA:45,_RNvNtCsky0f8fcmJ7i_15gungraun_macros13derive_macros17render_into_inner
FNDA:15,_RNCNvNtCseH83rItu4NK_15gungraun_macros13derive_macros17render_into_inner0B5_
FNDA:15,_RNvNtCseH83rItu4NK_15gungraun_macros13derive_macros17render_into_inner
FNDA:30,_RNCNvNtCs4VtoIICFLcm_15gungraun_macros13derive_macros17render_into_inner0B5_
FNDA:30,_RNvNtCs4VtoIICFLcm_15gungraun_macros13derive_macros17render_into_inner
FNF:2
FNH:2
DA:6,105
DA:7,105
DA:8,105
DA:9,135
DA:10,135
DA:11,105
DA:12,105
DA:13,105
DA:14,105
DA:15,105
DA:16,105
DA:17,105
DA:18,0
DA:19,0
DA:20,105
DA:21,0
DA:22,0
DA:23,0
DA:26,0
DA:27,0
DA:28,0
DA:31,0
DA:32,0
DA:33,0
DA:36,105
DA:37,30
DA:38,30
DA:39,30
DA:40,30
DA:41,30
DA:42,30
DA:43,30
DA:44,30
DA:45,30
DA:46,30
DA:47,30
DA:48,30
DA:49,30
DA:50,30
DA:51,30
DA:52,30
DA:53,30
DA:54,30
DA:55,30
DA:56,105
DA:57,135
BRF:0
BRH:0
LF:47
LH:36
end_of_record
SF:/fast/lenny/workspace/programming/gungraun/gungraun/gungraun-macros/src/lib.rs
FN:639,_RNCNvCseTlsjhGl7ts_15gungraun_macros10into_inner0B3_
FN:617,_RNCNvCseTlsjhGl7ts_15gungraun_macros16binary_benchmark0B3_
FN:462,_RNCNvCseTlsjhGl7ts_15gungraun_macros17library_benchmark0B3_
FN:28,_RNCNvMCseTlsjhGl7ts_15gungraun_macrosNtB4_13CargoMetadata7try_new0B4_
FN:23,_RNvMCseTlsjhGl7ts_15gungraun_macrosNtB2_13CargoMetadata7try_new
FN:639,_RNCNvCsky0f8fcmJ7i_15gungraun_macros10into_inner0B3_
FN:617,_RNCNvCsky0f8fcmJ7i_15gungraun_macros16binary_benchmark0B3_
FN:462,_RNCNvCsky0f8fcmJ7i_15gungraun_macros17library_benchmark0B3_
FN:28,_RNCNvMCsky0f8fcmJ7i_15gungraun_macrosNtB4_13CargoMetadata7try_new0B4_
FN:23,_RNvMCsky0f8fcmJ7i_15gungraun_macrosNtB2_13CargoMetadata7try_new
FN:639,_RNCNvCseH83rItu4NK_15gungraun_macros10into_inner0B3_
FN:617,_RNCNvCseH83rItu4NK_15gungraun_macros16binary_benchmark0B3_
FN:462,_RNCNvCseH83rItu4NK_15gungraun_macros17library_benchmark0B3_
FN:28,_RNCNvMCseH83rItu4NK_15gungraun_macrosNtB4_13CargoMetadata7try_new0B4_
FN:23,_RNvMCseH83rItu4NK_15gungraun_macrosNtB2_13CargoMetadata7try_new
FN:639,_RNCNvCs4VtoIICFLcm_15gungraun_macros10into_inner0B3_
FN:617,_RNCNvCs4VtoIICFLcm_15gungraun_macros16binary_benchmark0B3_
FN:462,_RNCNvCs4VtoIICFLcm_15gungraun_macros17library_benchmark0B3_
FN:28,_RNCNvMCs4VtoIICFLcm_15gungraun_macrosNtB4_13CargoMetadata7try_new0B4_
FN:23,_RNvMCs4VtoIICFLcm_15gungraun_macrosNtB2_13CargoMetadata7try_new
FNDA:45,_RNCNvCseTlsjhGl7ts_15gungraun_macros10into_inner0B3_
FNDA:0,_RNCNvCseTlsjhGl7ts_15gungraun_macros16binary_benchmark0B3_
FNDA:0,_RNCNvCseTlsjhGl7ts_15gungraun_macros17library_benchmark0B3_
FNDA:0,_RNCNvMCseTlsjhGl7ts_15gungraun_macrosNtB4_13CargoMetadata7try_new0B4_
FNDA:0,_RNvMCseTlsjhGl7ts_15gungraun_macrosNtB2_13CargoMetadata7try_new
FNDA:45,_RNCNvCsky0f8fcmJ7i_15gungraun_macros10into_inner0B3_
FNDA:69,_RNCNvCsky0f8fcmJ7i_15gungraun_macros16binary_benchmark0B3_
FNDA:281,_RNCNvCsky0f8fcmJ7i_15gungraun_macros17library_benchmark0B3_
FNDA:350,_RNCNvMCsky0f8fcmJ7i_15gungraun_macrosNtB4_13CargoMetadata7try_new0B4_
FNDA:350,_RNvMCsky0f8fcmJ7i_15gungraun_macrosNtB2_13CargoMetadata7try_new
FNDA:15,_RNCNvCseH83rItu4NK_15gungraun_macros10into_inner0B3_
FNDA:0,_RNCNvCseH83rItu4NK_15gungraun_macros16binary_benchmark0B3_
FNDA:3,_RNCNvCseH83rItu4NK_15gungraun_macros17library_benchmark0B3_
FNDA:3,_RNCNvMCseH83rItu4NK_15gungraun_macrosNtB4_13CargoMetadata7try_new0B4_
FNDA:3,_RNvMCseH83rItu4NK_15gungraun_macrosNtB2_13CargoMetadata7try_new
FNDA:30,_RNCNvCs4VtoIICFLcm_15gungraun_macros10into_inner0B3_
FNDA:222,_RNCNvCs4VtoIICFLcm_15gungraun_macros16binary_benchmark0B3_
FNDA:297,_RNCNvCs4VtoIICFLcm_15gungraun_macros17library_benchmark0B3_
FNDA:515,_RNCNvMCs4VtoIICFLcm_15gungraun_macrosNtB4_13CargoMetadata7try_new0B4_
FNDA:515,_RNvMCs4VtoIICFLcm_15gungraun_macrosNtB2_13CargoMetadata7try_new
FNF:5
FNH:5
DA:23,353
DA:24,515
DA:25,353
DA:26,515
DA:27,515
DA:28,515
DA:29,515
DA:462,284
DA:463,297
DA:464,284
DA:465,0
DA:617,69
DA:618,222
DA:619,69
DA:620,0
DA:639,105
DA:640,105
DA:641,105
DA:642,0
BRF:0
BRH:0
LF:20
LH:19
end_of_record
SF:/fast/lenny/workspace/programming/gungraun/gungraun/gungraun-macros/src/lib_bench.rs
FN:446,_RNCNvMs2_NtCseTlsjhGl7ts_15gungraun_macros9lib_benchNtB7_6Callee19to_caller_signature0B9_
FN:471,_RNCNvMs2_NtCseTlsjhGl7ts_15gungraun_macros9lib_benchNtB7_6Callee19to_caller_signatures_0B9_
FN:557,_RNCNvMs5_NtCseTlsjhGl7ts_15gungraun_macros9lib_benchNtB7_16LibraryBenchmark15extract_benches0B9_
FN:582,_RNCNvMs5_NtCseTlsjhGl7ts_15gungraun_macros9lib_benchNtB7_16LibraryBenchmark15extract_benchess_0B9_
FN:221,_RNCNvMs_NtCseTlsjhGl7ts_15gungraun_macros9lib_benchNtB6_5Bench23parse_benches_attribute0B8_
FN:396,_RNvMs0_NtCseTlsjhGl7ts_15gungraun_macros9lib_benchNtB5_11BenchConfig14render_as_code
FN:410,_RNvMs0_NtCseTlsjhGl7ts_15gungraun_macros9lib_benchNtB5_11BenchConfig16render_as_member
FN:440,_RNvMs2_NtCseTlsjhGl7ts_15gungraun_macros9lib_benchNtB5_6Callee19to_caller_signature
FN:496,_RNvMs4_NtCseTlsjhGl7ts_15gungraun_macros9lib_benchNtB5_4Iter10iter_ident
FN:500,_RNvMs4_NtCseTlsjhGl7ts_15gungraun_macros9lib_benchNtB5_4Iter11index_ident
FN:508,_RNvMs4_NtCseTlsjhGl7ts_15gungraun_macros9lib_benchNtB5_4Iter14render_as_code
FN:504,_RNvMs4_NtCseTlsjhGl7ts_15gungraun_macros9lib_benchNtB5_4Iter4expr
FN:750,_RNvMs5_NtCseTlsjhGl7ts_15gungraun_macros9lib_benchNtB5_16LibraryBenchmark14render_benches
FN:536,_RNvMs5_NtCseTlsjhGl7ts_15gungraun_macros9lib_benchNtB5_16LibraryBenchmark15extract_benches
FN:625,_RNvMs5_NtCseTlsjhGl7ts_15gungraun_macros9lib_benchNtB5_16LibraryBenchmark17render_standalone
FN:826,_RNvMs7_NtCseTlsjhGl7ts_15gungraun_macros9lib_benchNtB5_22LibraryBenchmarkConfig14render_as_code
FN:822,_RNvMs7_NtCseTlsjhGl7ts_15gungraun_macros9lib_benchNtB5_22LibraryBenchmarkConfig5ident
FN:858,_RNvMs8_NtCseTlsjhGl7ts_15gungraun_macros9lib_benchNtB5_5Setup14render_as_code
FN:854,_RNvMs8_NtCseTlsjhGl7ts_15gungraun_macros9lib_benchNtB5_5Setup4expr
FN:850,_RNvMs8_NtCseTlsjhGl7ts_15gungraun_macros9lib_benchNtB5_5Setup7is_some
FN:868,_RNvMs9_NtCseTlsjhGl7ts_15gungraun_macros9lib_benchNtB5_8Teardown14render_as_code
FN:234,_RNvMs_NtCseTlsjhGl7ts_15gungraun_macros9lib_benchNtB4_5Bench14render_as_code
FN:351,_RNvMs_NtCseTlsjhGl7ts_15gungraun_macros9lib_benchNtB4_5Bench16render_as_member
FN:91,_RNvMs_NtCseTlsjhGl7ts_15gungraun_macros9lib_benchNtB4_5Bench21parse_bench_attribute
FN:154,_RNvMs_NtCseTlsjhGl7ts_15gungraun_macros9lib_benchNtB4_5Bench23parse_benches_attribute
FN:904,_RNvNtCseTlsjhGl7ts_15gungraun_macros9lib_bench14create_item_fn
FN:914,_RNvNtCseTlsjhGl7ts_15gungraun_macros9lib_bench6render
FN:85,_RNvXNtCseTlsjhGl7ts_15gungraun_macros9lib_benchNtB2_4ArgsNtNtCsitvrDxV7QKm_5quote9to_tokens8ToTokens9to_tokens
FN:421,_RNvXs1_NtCseTlsjhGl7ts_15gungraun_macros9lib_benchNtB5_9BenchModeINtNtCsgEmfK2I1SDS_4core7convert4FromNtNtB7_6common9BenchModeE4from
FN:490,_RNvXs3_NtCseTlsjhGl7ts_15gungraun_macros9lib_benchNtB5_6ConstsINtNtCsgEmfK2I1SDS_4core7convert4FromNtNtB7_6common6ConstsE4from
FN:786,_RNvXs6_NtCseTlsjhGl7ts_15gungraun_macros9lib_benchNtB5_16LibraryBenchmarkNtNtCska53IhjTmSY_3syn5parse5Parse5parse
FN:431,_RNvMs2_NtCseTlsjhGl7ts_15gungraun_macros9lib_benchNtB5_6Callee10len_inputs
FN:446,_RNCNvMs2_NtCsky0f8fcmJ7i_15gungraun_macros9lib_benchNtB7_6Callee19to_caller_signature0B9_
FN:471,_RNCNvMs2_NtCsky0f8fcmJ7i_15gungraun_macros9lib_benchNtB7_6Callee19to_caller_signatures_0B9_
FN:557,_RNCNvMs5_NtCsky0f8fcmJ7i_15gungraun_macros9lib_benchNtB7_16LibraryBenchmark15extract_benches0B9_
FN:582,_RNCNvMs5_NtCsky0f8fcmJ7i_15gungraun_macros9lib_benchNtB7_16LibraryBenchmark15extract_benchess_0B9_
FN:221,_RNCNvMs_NtCsky0f8fcmJ7i_15gungraun_macros9lib_benchNtB6_5Bench23parse_benches_attribute0B8_
FN:396,_RNvMs0_NtCsky0f8fcmJ7i_15gungraun_macros9lib_benchNtB5_11BenchConfig14render_as_code
FN:410,_RNvMs0_NtCsky0f8fcmJ7i_15gungraun_macros9lib_benchNtB5_11BenchConfig16render_as_member
FN:440,_RNvMs2_NtCsky0f8fcmJ7i_15gungraun_macros9lib_benchNtB5_6Callee19to_caller_signature
FN:496,_RNvMs4_NtCsky0f8fcmJ7i_15gungraun_macros9lib_benchNtB5_4Iter10iter_ident
FN:500,_RNvMs4_NtCsky0f8fcmJ7i_15gungraun_macros9lib_benchNtB5_4Iter11index_ident
FN:508,_RNvMs4_NtCsky0f8fcmJ7i_15gungraun_macros9lib_benchNtB5_4Iter14render_as_code
FN:504,_RNvMs4_NtCsky0f8fcmJ7i_15gungraun_macros9lib_benchNtB5_4Iter4expr
FN:750,_RNvMs5_NtCsky0f8fcmJ7i_15gungraun_macros9lib_benchNtB5_16LibraryBenchmark14render_benches
FN:536,_RNvMs5_NtCsky0f8fcmJ7i_15gungraun_macros9lib_benchNtB5_16LibraryBenchmark15extract_benches
FN:625,_RNvMs5_NtCsky0f8fcmJ7i_15gungraun_macros9lib_benchNtB5_16LibraryBenchmark17render_standalone
FN:826,_RNvMs7_NtCsky0f8fcmJ7i_15gungraun_macros9lib_benchNtB5_22LibraryBenchmarkConfig14render_as_code
FN:822,_RNvMs7_NtCsky0f8fcmJ7i_15gungraun_macros9lib_benchNtB5_22LibraryBenchmarkConfig5ident
FN:858,_RNvMs8_NtCsky0f8fcmJ7i_15gungraun_macros9lib_benchNtB5_5Setup14render_as_code
FN:854,_RNvMs8_NtCsky0f8fcmJ7i_15gungraun_macros9lib_benchNtB5_5Setup4expr
FN:850,_RNvMs8_NtCsky0f8fcmJ7i_15gungraun_macros9lib_benchNtB5_5Setup7is_some
FN:868,_RNvMs9_NtCsky0f8fcmJ7i_15gungraun_macros9lib_benchNtB5_8Teardown14render_as_code
FN:234,_RNvMs_NtCsky0f8fcmJ7i_15gungraun_macros9lib_benchNtB4_5Bench14render_as_code
FN:351,_RNvMs_NtCsky0f8fcmJ7i_15gungraun_macros9lib_benchNtB4_5Bench16render_as_member
FN:91,_RNvMs_NtCsky0f8fcmJ7i_15gungraun_macros9lib_benchNtB4_5Bench21parse_bench_attribute
FN:154,_RNvMs_NtCsky0f8fcmJ7i_15gungraun_macros9lib_benchNtB4_5Bench23parse_benches_attribute
FN:904,_RNvNtCsky0f8fcmJ7i_15gungraun_macros9lib_bench14create_item_fn
FN:914,_RNvNtCsky0f8fcmJ7i_15gungraun_macros9lib_bench6render
FN:85,_RNvXNtCsky0f8fcmJ7i_15gungraun_macros9lib_benchNtB2_4ArgsNtNtCs3me4nhu3r8b_5quote9to_tokens8ToTokens9to_tokens
FN:421,_RNvXs1_NtCsky0f8fcmJ7i_15gungraun_macros9lib_benchNtB5_9BenchModeINtNtCsgEmfK2I1SDS_4core7convert4FromNtNtB7_6common9BenchModeE4from
FN:490,_RNvXs3_NtCsky0f8fcmJ7i_15gungraun_macros9lib_benchNtB5_6ConstsINtNtCsgEmfK2I1SDS_4core7convert4FromNtNtB7_6common6ConstsE4from
FN:786,_RNvXs6_NtCsky0f8fcmJ7i_15gungraun_macros9lib_benchNtB5_16LibraryBenchmarkNtNtCsihgYlrnpvvS_3syn5parse5Parse5parse
FN:431,_RNvMs2_NtCsky0f8fcmJ7i_15gungraun_macros9lib_benchNtB5_6Callee10len_inputs
FN:446,_RNCNvMs2_NtCseH83rItu4NK_15gungraun_macros9lib_benchNtB7_6Callee19to_caller_signature0B9_
FN:471,_RNCNvMs2_NtCseH83rItu4NK_15gungraun_macros9lib_benchNtB7_6Callee19to_caller_signatures_0B9_
FN:557,_RNCNvMs5_NtCseH83rItu4NK_15gungraun_macros9lib_benchNtB7_16LibraryBenchmark15extract_benches0B9_
FN:582,_RNCNvMs5_NtCseH83rItu4NK_15gungraun_macros9lib_benchNtB7_16LibraryBenchmark15extract_benchess_0B9_
FN:221,_RNCNvMs_NtCseH83rItu4NK_15gungraun_macros9lib_benchNtB6_5Bench23parse_benches_attribute0B8_
FN:396,_RNvMs0_NtCseH83rItu4NK_15gungraun_macros9lib_benchNtB5_11BenchConfig14render_as_code
FN:410,_RNvMs0_NtCseH83rItu4NK_15gungraun_macros9lib_benchNtB5_11BenchConfig16render_as_member
FN:440,_RNvMs2_NtCseH83rItu4NK_15gungraun_macros9lib_benchNtB5_6Callee19to_caller_signature
FN:496,_RNvMs4_NtCseH83rItu4NK_15gungraun_macros9lib_benchNtB5_4Iter10iter_ident
FN:500,_RNvMs4_NtCseH83rItu4NK_15gungraun_macros9lib_benchNtB5_4Iter11index_ident
FN:508,_RNvMs4_NtCseH83rItu4NK_15gungraun_macros9lib_benchNtB5_4Iter14render_as_code
FN:504,_RNvMs4_NtCseH83rItu4NK_15gungraun_macros9lib_benchNtB5_4Iter4expr
FN:750,_RNvMs5_NtCseH83rItu4NK_15gungraun_macros9lib_benchNtB5_16LibraryBenchmark14render_benches
FN:536,_RNvMs5_NtCseH83rItu4NK_15gungraun_macros9lib_benchNtB5_16LibraryBenchmark15extract_benches
FN:625,_RNvMs5_NtCseH83rItu4NK_15gungraun_macros9lib_benchNtB5_16LibraryBenchmark17render_standalone
FN:826,_RNvMs7_NtCseH83rItu4NK_15gungraun_macros9lib_benchNtB5_22LibraryBenchmarkConfig14render_as_code
FN:822,_RNvMs7_NtCseH83rItu4NK_15gungraun_macros9lib_benchNtB5_22LibraryBenchmarkConfig5ident
FN:858,_RNvMs8_NtCseH83rItu4NK_15gungraun_macros9lib_benchNtB5_5Setup14render_as_code
FN:854,_RNvMs8_NtCseH83rItu4NK_15gungraun_macros9lib_benchNtB5_5Setup4expr
FN:850,_RNvMs8_NtCseH83rItu4NK_15gungraun_macros9lib_benchNtB5_5Setup7is_some
FN:868,_RNvMs9_NtCseH83rItu4NK_15gungraun_macros9lib_benchNtB5_8Teardown14render_as_code
FN:234,_RNvMs_NtCseH83rItu4NK_15gungraun_macros9lib_benchNtB4_5Bench14render_as_code
FN:351,_RNvMs_NtCseH83rItu4NK_15gungraun_macros9lib_benchNtB4_5Bench16render_as_member
FN:91,_RNvMs_NtCseH83rItu4NK_15gungraun_macros9lib_benchNtB4_5Bench21parse_bench_attribute
FN:154,_RNvMs_NtCseH83rItu4NK_15gungraun_macros9lib_benchNtB4_5Bench23parse_benches_attribute
FN:883,_RNvNtCseH83rItu4NK_15gungraun_macros9lib_bench14create_item_fn
FN:914,_RNvNtCseH83rItu4NK_15gungraun_macros9lib_bench6render
FN:85,_RNvXNtCseH83rItu4NK_15gungraun_macros9lib_benchNtB2_4ArgsNtNtCs3me4nhu3r8b_5quote9to_tokens8ToTokens9to_tokens
FN:421,_RNvXs1_NtCseH83rItu4NK_15gungraun_macros9lib_benchNtB5_9BenchModeINtNtCsgEmfK2I1SDS_4core7convert4FromNtNtB7_6common9BenchModeE4from
FN:490,_RNvXs3_NtCseH83rItu4NK_15gungraun_macros9lib_benchNtB5_6ConstsINtNtCsgEmfK2I1SDS_4core7convert4FromNtNtB7_6common6ConstsE4from
FN:786,_RNvXs6_NtCseH83rItu4NK_15gungraun_macros9lib_benchNtB5_16LibraryBenchmarkNtNtCsihgYlrnpvvS_3syn5parse5Parse5parse
FN:431,_RNvMs2_NtCseH83rItu4NK_15gungraun_macros9lib_benchNtB5_6Callee10len_inputs
FN:446,_RNCNvMs2_NtCs4VtoIICFLcm_15gungraun_macros9lib_benchNtB7_6Callee19to_caller_signature0B9_
FN:471,_RNCNvMs2_NtCs4VtoIICFLcm_15gungraun_macros9lib_benchNtB7_6Callee19to_caller_signatures_0B9_
FN:557,_RNCNvMs5_NtCs4VtoIICFLcm_15gungraun_macros9lib_benchNtB7_16LibraryBenchmark15extract_benches0B9_
FN:582,_RNCNvMs5_NtCs4VtoIICFLcm_15gungraun_macros9lib_benchNtB7_16LibraryBenchmark15extract_benchess_0B9_
FN:220,_RNCNvMs_NtCs4VtoIICFLcm_15gungraun_macros9lib_benchNtB6_5Bench23parse_benches_attribute0B8_
FN:396,_RNvMs0_NtCs4VtoIICFLcm_15gungraun_macros9lib_benchNtB5_11BenchConfig14render_as_code
FN:410,_RNvMs0_NtCs4VtoIICFLcm_15gungraun_macros9lib_benchNtB5_11BenchConfig16render_as_member
FN:440,_RNvMs2_NtCs4VtoIICFLcm_15gungraun_macros9lib_benchNtB5_6Callee19to_caller_signature
FN:496,_RNvMs4_NtCs4VtoIICFLcm_15gungraun_macros9lib_benchNtB5_4Iter10iter_ident
FN:500,_RNvMs4_NtCs4VtoIICFLcm_15gungraun_macros9lib_benchNtB5_4Iter11index_ident
FN:508,_RNvMs4_NtCs4VtoIICFLcm_15gungraun_macros9lib_benchNtB5_4Iter14render_as_code
FN:504,_RNvMs4_NtCs4VtoIICFLcm_15gungraun_macros9lib_benchNtB5_4Iter4expr
FN:750,_RNvMs5_NtCs4VtoIICFLcm_15gungraun_macros9lib_benchNtB5_16LibraryBenchmark14render_benches
FN:536,_RNvMs5_NtCs4VtoIICFLcm_15gungraun_macros9lib_benchNtB5_16LibraryBenchmark15extract_benches
FN:625,_RNvMs5_NtCs4VtoIICFLcm_15gungraun_macros9lib_benchNtB5_16LibraryBenchmark17render_standalone
FN:826,_RNvMs7_NtCs4VtoIICFLcm_15gungraun_macros9lib_benchNtB5_22LibraryBenchmarkConfig14render_as_code
FN:822,_RNvMs7_NtCs4VtoIICFLcm_15gungraun_macros9lib_benchNtB5_22LibraryBenchmarkConfig5ident
FN:858,_RNvMs8_NtCs4VtoIICFLcm_15gungraun_macros9lib_benchNtB5_5Setup14render_as_code
FN:854,_RNvMs8_NtCs4VtoIICFLcm_15gungraun_macros9lib_benchNtB5_5Setup4expr
FN:850,_RNvMs8_NtCs4VtoIICFLcm_15gungraun_macros9lib_benchNtB5_5Setup7is_some
FN:868,_RNvMs9_NtCs4VtoIICFLcm_15gungraun_macros9lib_benchNtB5_8Teardown14render_as_code
FN:234,_RNvMs_NtCs4VtoIICFLcm_15gungraun_macros9lib_benchNtB4_5Bench14render_as_code
FN:351,_RNvMs_NtCs4VtoIICFLcm_15gungraun_macros9lib_benchNtB4_5Bench16render_as_member
FN:91,_RNvMs_NtCs4VtoIICFLcm_15gungraun_macros9lib_benchNtB4_5Bench21parse_bench_attribute
FN:154,_RNvMs_NtCs4VtoIICFLcm_15gungraun_macros9lib_benchNtB4_5Bench23parse_benches_attribute
FN:904,_RNvNtCs4VtoIICFLcm_15gungraun_macros9lib_bench14create_item_fn
FN:914,_RNvNtCs4VtoIICFLcm_15gungraun_macros9lib_bench6render
FN:85,_RNvXNtCs4VtoIICFLcm_15gungraun_macros9lib_benchNtB2_4ArgsNtNtCs5zTqYJ1QKLS_5quote9to_tokens8ToTokens9to_tokens
FN:421,_RNvXs1_NtCs4VtoIICFLcm_15gungraun_macros9lib_benchNtB5_9BenchModeINtNtCs2va5m0jqTTM_4core7convert4FromNtNtB7_6common9BenchModeE4from
FN:490,_RNvXs3_NtCs4VtoIICFLcm_15gungraun_macros9lib_benchNtB5_6ConstsINtNtCs2va5m0jqTTM_4core7convert4FromNtNtB7_6common6ConstsE4from
FN:786,_RNvXs6_NtCs4VtoIICFLcm_15gungraun_macros9lib_benchNtB5_16LibraryBenchmarkNtNtCs7YDbPhiuUg2_3syn5parse5Parse5parse
FN:431,_RNvMs2_NtCs4VtoIICFLcm_15gungraun_macros9lib_benchNtB5_6Callee10len_inputs
FNDA:0,_RNCNvMs2_NtCseTlsjhGl7ts_15gungraun_macros9lib_benchNtB7_6Callee19to_caller_signature0B9_
FNDA:0,_RNCNvMs2_NtCseTlsjhGl7ts_15gungraun_macros9lib_benchNtB7_6Callee19to_caller_signatures_0B9_
FNDA:0,_RNCNvMs5_NtCseTlsjhGl7ts_15gungraun_macros9lib_benchNtB7_16LibraryBenchmark15extract_benches0B9_
FNDA:0,_RNCNvMs5_NtCseTlsjhGl7ts_15gungraun_macros9lib_benchNtB7_16LibraryBenchmark15extract_benchess_0B9_
FNDA:0,_RNCNvMs_NtCseTlsjhGl7ts_15gungraun_macros9lib_benchNtB6_5Bench23parse_benches_attribute0B8_
FNDA:0,_RNvMs0_NtCseTlsjhGl7ts_15gungraun_macros9lib_benchNtB5_11BenchConfig14render_as_code
FNDA:0,_RNvMs0_NtCseTlsjhGl7ts_15gungraun_macros9lib_benchNtB5_11BenchConfig16render_as_member
FNDA:0,_RNvMs2_NtCseTlsjhGl7ts_15gungraun_macros9lib_benchNtB5_6Callee19to_caller_signature
FNDA:0,_RNvMs4_NtCseTlsjhGl7ts_15gungraun_macros9lib_benchNtB5_4Iter10iter_ident
FNDA:0,_RNvMs4_NtCseTlsjhGl7ts_15gungraun_macros9lib_benchNtB5_4Iter11index_ident
FNDA:0,_RNvMs4_NtCseTlsjhGl7ts_15gungraun_macros9lib_benchNtB5_4Iter14render_as_code
FNDA:0,_RNvMs4_NtCseTlsjhGl7ts_15gungraun_macros9lib_benchNtB5_4Iter4expr
FNDA:0,_RNvMs5_NtCseTlsjhGl7ts_15gungraun_macros9lib_benchNtB5_16LibraryBenchmark14render_benches
FNDA:0,_RNvMs5_NtCseTlsjhGl7ts_15gungraun_macros9lib_benchNtB5_16LibraryBenchmark15extract_benches
FNDA:0,_RNvMs5_NtCseTlsjhGl7ts_15gungraun_macros9lib_benchNtB5_16LibraryBenchmark17render_standalone
FNDA:0,_RNvMs7_NtCseTlsjhGl7ts_15gungraun_macros9lib_benchNtB5_22LibraryBenchmarkConfig14render_as_code
FNDA:0,_RNvMs7_NtCseTlsjhGl7ts_15gungraun_macros9lib_benchNtB5_22LibraryBenchmarkConfig5ident
FNDA:0,_RNvMs8_NtCseTlsjhGl7ts_15gungraun_macros9lib_benchNtB5_5Setup14render_as_code
FNDA:0,_RNvMs8_NtCseTlsjhGl7ts_15gungraun_macros9lib_benchNtB5_5Setup4expr
FNDA:0,_RNvMs8_NtCseTlsjhGl7ts_15gungraun_macros9lib_benchNtB5_5Setup7is_some
FNDA:0,_RNvMs9_NtCseTlsjhGl7ts_15gungraun_macros9lib_benchNtB5_8Teardown14render_as_code
FNDA:0,_RNvMs_NtCseTlsjhGl7ts_15gungraun_macros9lib_benchNtB4_5Bench14render_as_code
FNDA:0,_RNvMs_NtCseTlsjhGl7ts_15gungraun_macros9lib_benchNtB4_5Bench16render_as_member
FNDA:0,_RNvMs_NtCseTlsjhGl7ts_15gungraun_macros9lib_benchNtB4_5Bench21parse_bench_attribute
FNDA:0,_RNvMs_NtCseTlsjhGl7ts_15gungraun_macros9lib_benchNtB4_5Bench23parse_benches_attribute
FNDA:0,_RNvNtCseTlsjhGl7ts_15gungraun_macros9lib_bench14create_item_fn
FNDA:0,_RNvNtCseTlsjhGl7ts_15gungraun_macros9lib_bench6render
FNDA:0,_RNvXNtCseTlsjhGl7ts_15gungraun_macros9lib_benchNtB2_4ArgsNtNtCsitvrDxV7QKm_5quote9to_tokens8ToTokens9to_tokens
FNDA:0,_RNvXs1_NtCseTlsjhGl7ts_15gungraun_macros9lib_benchNtB5_9BenchModeINtNtCsgEmfK2I1SDS_4core7convert4FromNtNtB7_6common9BenchModeE4from
FNDA:0,_RNvXs3_NtCseTlsjhGl7ts_15gungraun_macros9lib_benchNtB5_6ConstsINtNtCsgEmfK2I1SDS_4core7convert4FromNtNtB7_6common6ConstsE4from
FNDA:0,_RNvXs6_NtCseTlsjhGl7ts_15gungraun_macros9lib_benchNtB5_16LibraryBenchmarkNtNtCska53IhjTmSY_3syn5parse5Parse5parse
FNDA:0,_RNvMs2_NtCseTlsjhGl7ts_15gungraun_macros9lib_benchNtB5_6Callee10len_inputs
FNDA:785,_RNCNvMs2_NtCsky0f8fcmJ7i_15gungraun_macros9lib_benchNtB7_6Callee19to_caller_signature0B9_
FNDA:785,_RNCNvMs2_NtCsky0f8fcmJ7i_15gungraun_macros9lib_benchNtB7_6Callee19to_caller_signatures_0B9_
FNDA:584,_RNCNvMs5_NtCsky0f8fcmJ7i_15gungraun_macros9lib_benchNtB7_16LibraryBenchmark15extract_benches0B9_
FNDA:159,_RNCNvMs5_NtCsky0f8fcmJ7i_15gungraun_macros9lib_benchNtB7_16LibraryBenchmark15extract_benchess_0B9_
FNDA:286,_RNCNvMs_NtCsky0f8fcmJ7i_15gungraun_macros9lib_benchNtB6_5Bench23parse_benches_attribute0B8_
FNDA:870,_RNvMs0_NtCsky0f8fcmJ7i_15gungraun_macros9lib_benchNtB5_11BenchConfig14render_as_code
FNDA:870,_RNvMs0_NtCsky0f8fcmJ7i_15gungraun_macros9lib_benchNtB5_11BenchConfig16render_as_member
FNDA:922,_RNvMs2_NtCsky0f8fcmJ7i_15gungraun_macros9lib_benchNtB5_6Callee19to_caller_signature
FNDA:52,_RNvMs4_NtCsky0f8fcmJ7i_15gungraun_macros9lib_benchNtB5_4Iter10iter_ident
FNDA:52,_RNvMs4_NtCsky0f8fcmJ7i_15gungraun_macros9lib_benchNtB5_4Iter11index_ident
FNDA:26,_RNvMs4_NtCsky0f8fcmJ7i_15gungraun_macros9lib_benchNtB5_4Iter14render_as_code
FNDA:26,_RNvMs4_NtCsky0f8fcmJ7i_15gungraun_macros9lib_benchNtB5_4Iter4expr
FNDA:229,_RNvMs5_NtCsky0f8fcmJ7i_15gungraun_macros9lib_benchNtB5_16LibraryBenchmark14render_benches
FNDA:281,_RNvMs5_NtCsky0f8fcmJ7i_15gungraun_macros9lib_benchNtB5_16LibraryBenchmark15extract_benches
FNDA:52,_RNvMs5_NtCsky0f8fcmJ7i_15gungraun_macros9lib_benchNtB5_16LibraryBenchmark17render_standalone
FNDA:281,_RNvMs7_NtCsky0f8fcmJ7i_15gungraun_macros9lib_benchNtB5_22LibraryBenchmarkConfig14render_as_code
FNDA:281,_RNvMs7_NtCsky0f8fcmJ7i_15gungraun_macros9lib_benchNtB5_22LibraryBenchmarkConfig5ident
FNDA:896,_RNvMs8_NtCsky0f8fcmJ7i_15gungraun_macros9lib_benchNtB5_5Setup14render_as_code
FNDA:26,_RNvMs8_NtCsky0f8fcmJ7i_15gungraun_macros9lib_benchNtB5_5Setup4expr
FNDA:1639,_RNvMs8_NtCsky0f8fcmJ7i_15gungraun_macros9lib_benchNtB5_5Setup7is_some
FNDA:922,_RNvMs9_NtCsky0f8fcmJ7i_15gungraun_macros9lib_benchNtB5_8Teardown14render_as_code
FNDA:870,_RNvMs_NtCsky0f8fcmJ7i_15gungraun_macros9lib_benchNtB4_5Bench14render_as_code
FNDA:870,_RNvMs_NtCsky0f8fcmJ7i_15gungraun_macros9lib_benchNtB4_5Bench16render_as_member
FNDA:584,_RNvMs_NtCsky0f8fcmJ7i_15gungraun_macros9lib_benchNtB4_5Bench21parse_bench_attribute
FNDA:159,_RNvMs_NtCsky0f8fcmJ7i_15gungraun_macros9lib_benchNtB4_5Bench23parse_benches_attribute
FNDA:281,_RNvNtCsky0f8fcmJ7i_15gungraun_macros9lib_bench14create_item_fn
FNDA:281,_RNvNtCsky0f8fcmJ7i_15gungraun_macros9lib_bench6render
FNDA:1538,_RNvXNtCsky0f8fcmJ7i_15gungraun_macros9lib_benchNtB2_4ArgsNtNtCs3me4nhu3r8b_5quote9to_tokens8ToTokens9to_tokens
FNDA:286,_RNvXs1_NtCsky0f8fcmJ7i_15gungraun_macros9lib_benchNtB5_9BenchModeINtNtCsgEmfK2I1SDS_4core7convert4FromNtNtB7_6common9BenchModeE4from
FNDA:146,_RNvXs3_NtCsky0f8fcmJ7i_15gungraun_macros9lib_benchNtB5_6ConstsINtNtCsgEmfK2I1SDS_4core7convert4FromNtNtB7_6common6ConstsE4from
FNDA:281,_RNvXs6_NtCsky0f8fcmJ7i_15gungraun_macros9lib_benchNtB5_16LibraryBenchmarkNtNtCsihgYlrnpvvS_3syn5parse5Parse5parse
FNDA:0,_RNvMs2_NtCsky0f8fcmJ7i_15gungraun_macros9lib_benchNtB5_6Callee10len_inputs
FNDA:8,_RNCNvMs2_NtCseH83rItu4NK_15gungraun_macros9lib_benchNtB7_6Callee19to_caller_signature0B9_
FNDA:8,_RNCNvMs2_NtCseH83rItu4NK_15gungraun_macros9lib_benchNtB7_6Callee19to_caller_signatures_0B9_
FNDA:8,_RNCNvMs5_NtCseH83rItu4NK_15gungraun_macros9lib_benchNtB7_16LibraryBenchmark15extract_benches0B9_
FNDA:0,_RNCNvMs5_NtCseH83rItu4NK_15gungraun_macros9lib_benchNtB7_16LibraryBenchmark15extract_benchess_0B9_
FNDA:0,_RNCNvMs_NtCseH83rItu4NK_15gungraun_macros9lib_benchNtB6_5Bench23parse_benches_attribute0B8_
FNDA:8,_RNvMs0_NtCseH83rItu4NK_15gungraun_macros9lib_benchNtB5_11BenchConfig14render_as_code
FNDA:8,_RNvMs0_NtCseH83rItu4NK_15gungraun_macros9lib_benchNtB5_11BenchConfig16render_as_member
FNDA:8,_RNvMs2_NtCseH83rItu4NK_15gungraun_macros9lib_benchNtB5_6Callee19to_caller_signature
FNDA:0,_RNvMs4_NtCseH83rItu4NK_15gungraun_macros9lib_benchNtB5_4Iter10iter_ident
FNDA:0,_RNvMs4_NtCseH83rItu4NK_15gungraun_macros9lib_benchNtB5_4Iter11index_ident
FNDA:0,_RNvMs4_NtCseH83rItu4NK_15gungraun_macros9lib_benchNtB5_4Iter14render_as_code
FNDA:0,_RNvMs4_NtCseH83rItu4NK_15gungraun_macros9lib_benchNtB5_4Iter4expr
FNDA:3,_RNvMs5_NtCseH83rItu4NK_15gungraun_macros9lib_benchNtB5_16LibraryBenchmark14render_benches
FNDA:3,_RNvMs5_NtCseH83rItu4NK_15gungraun_macros9lib_benchNtB5_16LibraryBenchmark15extract_benches
FNDA:0,_RNvMs5_NtCseH83rItu4NK_15gungraun_macros9lib_benchNtB5_16LibraryBenchmark17render_standalone
FNDA:3,_RNvMs7_NtCseH83rItu4NK_15gungraun_macros9lib_benchNtB5_22LibraryBenchmarkConfig14render_as_code
FNDA:3,_RNvMs7_NtCseH83rItu4NK_15gungraun_macros9lib_benchNtB5_22LibraryBenchmarkConfig5ident
FNDA:8,_RNvMs8_NtCseH83rItu4NK_15gungraun_macros9lib_benchNtB5_5Setup14render_as_code
FNDA:0,_RNvMs8_NtCseH83rItu4NK_15gungraun_macros9lib_benchNtB5_5Setup4expr
FNDA:16,_RNvMs8_NtCseH83rItu4NK_15gungraun_macros9lib_benchNtB5_5Setup7is_some
FNDA:8,_RNvMs9_NtCseH83rItu4NK_15gungraun_macros9lib_benchNtB5_8Teardown14render_as_code
FNDA:8,_RNvMs_NtCseH83rItu4NK_15gungraun_macros9lib_benchNtB4_5Bench14render_as_code
FNDA:8,_RNvMs_NtCseH83rItu4NK_15gungraun_macros9lib_benchNtB4_5Bench16render_as_member
FNDA:8,_RNvMs_NtCseH83rItu4NK_15gungraun_macros9lib_benchNtB4_5Bench21parse_bench_attribute
FNDA:0,_RNvMs_NtCseH83rItu4NK_15gungraun_macros9lib_benchNtB4_5Bench23parse_benches_attribute
FNDA:3,_RNvNtCseH83rItu4NK_15gungraun_macros9lib_bench14create_item_fn
FNDA:3,_RNvNtCseH83rItu4NK_15gungraun_macros9lib_bench6render
FNDA:12,_RNvXNtCseH83rItu4NK_15gungraun_macros9lib_benchNtB2_4ArgsNtNtCs3me4nhu3r8b_5quote9to_tokens8ToTokens9to_tokens
FNDA:0,_RNvXs1_NtCseH83rItu4NK_15gungraun_macros9lib_benchNtB5_9BenchModeINtNtCsgEmfK2I1SDS_4core7convert4FromNtNtB7_6common9BenchModeE4from
FNDA:0,_RNvXs3_NtCseH83rItu4NK_15gungraun_macros9lib_benchNtB5_6ConstsINtNtCsgEmfK2I1SDS_4core7convert4FromNtNtB7_6common6ConstsE4from
FNDA:3,_RNvXs6_NtCseH83rItu4NK_15gungraun_macros9lib_benchNtB5_16LibraryBenchmarkNtNtCsihgYlrnpvvS_3syn5parse5Parse5parse
FNDA:0,_RNvMs2_NtCseH83rItu4NK_15gungraun_macros9lib_benchNtB5_6Callee10len_inputs
FNDA:296,_RNCNvMs2_NtCs4VtoIICFLcm_15gungraun_macros9lib_benchNtB7_6Callee19to_caller_signature0B9_
FNDA:296,_RNCNvMs2_NtCs4VtoIICFLcm_15gungraun_macros9lib_benchNtB7_6Callee19to_caller_signatures_0B9_
FNDA:113,_RNCNvMs5_NtCs4VtoIICFLcm_15gungraun_macros9lib_benchNtB7_16LibraryBenchmark15extract_benches0B9_
FNDA:194,_RNCNvMs5_NtCs4VtoIICFLcm_15gungraun_macros9lib_benchNtB7_16LibraryBenchmark15extract_benchess_0B9_
FNDA:237,_RNCNvMs_NtCs4VtoIICFLcm_15gungraun_macros9lib_benchNtB6_5Bench23parse_benches_attribute0B8_
FNDA:341,_RNvMs0_NtCs4VtoIICFLcm_15gungraun_macros9lib_benchNtB5_11BenchConfig14render_as_code
FNDA:341,_RNvMs0_NtCs4VtoIICFLcm_15gungraun_macros9lib_benchNtB5_11BenchConfig16render_as_member
FNDA:374,_RNvMs2_NtCs4VtoIICFLcm_15gungraun_macros9lib_benchNtB5_6Callee19to_caller_signature
FNDA:96,_RNvMs4_NtCs4VtoIICFLcm_15gungraun_macros9lib_benchNtB5_4Iter10iter_ident
FNDA:96,_RNvMs4_NtCs4VtoIICFLcm_15gungraun_macros9lib_benchNtB5_4Iter11index_ident
FNDA:48,_RNvMs4_NtCs4VtoIICFLcm_15gungraun_macros9lib_benchNtB5_4Iter14render_as_code
FNDA:48,_RNvMs4_NtCs4VtoIICFLcm_15gungraun_macros9lib_benchNtB5_4Iter4expr
FNDA:229,_RNvMs5_NtCs4VtoIICFLcm_15gungraun_macros9lib_benchNtB5_16LibraryBenchmark14render_benches
FNDA:293,_RNvMs5_NtCs4VtoIICFLcm_15gungraun_macros9lib_benchNtB5_16LibraryBenchmark15extract_benches
FNDA:33,_RNvMs5_NtCs4VtoIICFLcm_15gungraun_macros9lib_benchNtB5_16LibraryBenchmark17render_standalone
FNDA:260,_RNvMs7_NtCs4VtoIICFLcm_15gungraun_macros9lib_benchNtB5_22LibraryBenchmarkConfig14render_as_code
FNDA:260,_RNvMs7_NtCs4VtoIICFLcm_15gungraun_macros9lib_benchNtB5_22LibraryBenchmarkConfig5ident
FNDA:328,_RNvMs8_NtCs4VtoIICFLcm_15gungraun_macros9lib_benchNtB5_5Setup14render_as_code
FNDA:57,_RNvMs8_NtCs4VtoIICFLcm_15gungraun_macros9lib_benchNtB5_5Setup4expr
FNDA:616,_RNvMs8_NtCs4VtoIICFLcm_15gungraun_macros9lib_benchNtB5_5Setup7is_some
FNDA:374,_RNvMs9_NtCs4VtoIICFLcm_15gungraun_macros9lib_benchNtB5_8Teardown14render_as_code
FNDA:343,_RNvMs_NtCs4VtoIICFLcm_15gungraun_macros9lib_benchNtB4_5Bench14render_as_code
FNDA:341,_RNvMs_NtCs4VtoIICFLcm_15gungraun_macros9lib_benchNtB4_5Bench16render_as_member
FNDA:113,_RNvMs_NtCs4VtoIICFLcm_15gungraun_macros9lib_benchNtB4_5Bench21parse_bench_attribute
FNDA:194,_RNvMs_NtCs4VtoIICFLcm_15gungraun_macros9lib_benchNtB4_5Bench23parse_benches_attribute
FNDA:262,_RNvNtCs4VtoIICFLcm_15gungraun_macros9lib_bench14create_item_fn
FNDA:297,_RNvNtCs4VtoIICFLcm_15gungraun_macros9lib_bench6render
FNDA:614,_RNvXNtCs4VtoIICFLcm_15gungraun_macros9lib_benchNtB2_4ArgsNtNtCs5zTqYJ1QKLS_5quote9to_tokens8ToTokens9to_tokens
FNDA:237,_RNvXs1_NtCs4VtoIICFLcm_15gungraun_macros9lib_benchNtB5_9BenchModeINtNtCs2va5m0jqTTM_4core7convert4FromNtNtB7_6common9BenchModeE4from
FNDA:92,_RNvXs3_NtCs4VtoIICFLcm_15gungraun_macros9lib_benchNtB5_6ConstsINtNtCs2va5m0jqTTM_4core7convert4FromNtNtB7_6common6ConstsE4from
FNDA:297,_RNvXs6_NtCs4VtoIICFLcm_15gungraun_macros9lib_benchNtB5_16LibraryBenchmarkNtNtCs7YDbPhiuUg2_3syn5parse5Parse5parse
FNDA:0,_RNvMs2_NtCs4VtoIICFLcm_15gungraun_macros9lib_benchNtB5_6Callee10len_inputs
FNF:35
FNH:34
DA:85,1550
DA:86,1550
DA:87,1550
DA:91,592
DA:92,592
DA:93,592
DA:94,592
DA:95,592
DA:96,592
DA:97,592
DA:98,592
DA:99,592
DA:100,592
DA:102,704
DA:104,592
DA:105,592
DA:106,592
DA:107,592
DA:108,592
DA:109,112
DA:110,592
DA:111,528
DA:112,1019
DA:113,909
DA:114,278
DA:115,631
DA:116,26
DA:117,605
DA:118,384
DA:119,384
DA:120,205
DA:121,205
DA:122,30
DA:123,30
DA:124,0
DA:125,2
DA:126,2
DA:127,2
DA:133,139
DA:137,592
DA:138,592
DA:139,106
DA:140,592
DA:141,592
DA:142,106
DA:143,592
DA:144,592
DA:145,592
DA:146,592
DA:147,592
DA:148,592
DA:149,592
DA:150,592
DA:151,592
DA:152,701
DA:154,159
DA:155,159
DA:156,159
DA:157,159
DA:158,159
DA:159,159
DA:160,159
DA:161,159
DA:162,194
DA:163,194
DA:164,194
DA:165,353
DA:167,159
DA:168,194
DA:169,194
DA:170,194
DA:171,194
DA:172,194
DA:173,194
DA:174,194
DA:175,194
DA:176,319
DA:177,580
DA:178,271
DA:179,111
DA:180,160
DA:181,70
DA:182,90
DA:183,14
DA:184,80
DA:185,58
DA:186,58
DA:187,31
DA:188,34
DA:189,8
DA:190,80
DA:191,80
DA:192,80
DA:193,0
DA:194,1
DA:195,1
DA:196,1
DA:202,33
DA:206,159
DA:207,184
DA:208,184
DA:209,184
DA:210,184
DA:211,184
DA:212,184
DA:213,184
DA:214,184
DA:215,184
DA:216,184
DA:217,184
DA:218,184
DA:219,184
DA:220,237
DA:221,286
DA:222,286
DA:223,286
DA:224,286
DA:225,286
DA:226,286
DA:227,286
DA:228,286
DA:229,184
DA:230,184
DA:231,184
DA:232,347
DA:234,878
DA:235,878
DA:236,878
DA:237,878
DA:238,878
DA:240,1221
DA:243,26
DA:244,48
DA:245,48
DA:246,48
DA:247,48
DA:248,48
DA:249,48
DA:250,48
DA:251,48
DA:252,48
DA:253,26
DA:254,48
DA:255,48
DA:256,48
DA:257,74
DA:258,48
DA:259,48
DA:260,48
DA:261,48
DA:263,26
DA:264,48
DA:265,48
DA:266,48
DA:267,48
DA:268,48
DA:269,48
DA:270,48
DA:271,48
DA:272,48
DA:273,48
DA:274,48
DA:275,48
DA:276,48
DA:277,48
DA:278,48
DA:279,48
DA:280,48
DA:281,48
DA:282,48
DA:283,48
DA:284,48
DA:285,48
DA:286,48
DA:287,48
DA:288,48
DA:289,48
DA:290,48
DA:291,48
DA:292,48
DA:293,48
DA:294,48
DA:296,852
DA:297,852
DA:298,852
DA:299,295
DA:300,852
DA:301,852
DA:302,852
DA:305,1147
DA:306,258
DA:307,258
DA:308,33
DA:309,33
DA:310,33
DA:311,33
DA:312,33
DA:314,594
DA:315,594
DA:316,262
DA:317,262
DA:320,852
DA:321,1145
DA:322,295
DA:323,295
DA:324,295
DA:325,295
DA:327,852
DA:328,293
DA:329,293
DA:330,293
DA:331,293
DA:332,293
DA:333,293
DA:334,293
DA:335,293
DA:336,293
DA:337,293
DA:338,293
DA:339,293
DA:340,293
DA:344,878
DA:345,878
DA:346,341
DA:347,341
DA:348,341
DA:349,878
DA:351,878
DA:352,878
DA:353,878
DA:354,878
DA:355,878
DA:357,1219
DA:358,26
DA:359,26
DA:360,26
DA:361,26
DA:362,852
DA:363,852
DA:364,852
DA:365,852
DA:367,878
DA:369,1219
DA:370,197
DA:372,681
DA:373,681
DA:376,1219
DA:377,172
DA:378,172
DA:380,706
DA:383,878
DA:384,341
DA:385,341
DA:386,341
DA:387,341
DA:388,341
DA:389,341
DA:390,341
DA:391,341
DA:392,878
DA:396,878
DA:397,1219
DA:398,387
DA:399,387
DA:400,13
DA:401,13
DA:402,13
DA:403,13
DA:404,13
DA:406,491
DA:408,1219
DA:410,878
DA:411,878
DA:412,387
DA:413,387
DA:415,491
DA:417,1219
DA:421,286
DA:422,286
DA:423,26
DA:424,260
DA:426,523
DA:431,0
DA:432,0
DA:433,0
DA:440,930
DA:441,930
DA:442,930
DA:443,930
DA:444,930
DA:445,930
DA:446,930
DA:448,0
DA:449,0
DA:450,0
DA:451,0
DA:453,793
DA:454,793
DA:455,793
DA:456,793
DA:457,793
DA:458,793
DA:459,793
DA:460,793
DA:461,793
DA:462,0
DA:463,0
DA:464,0
DA:465,0
DA:468,1089
DA:469,930
DA:470,930
DA:471,793
DA:472,793
DA:473,793
DA:474,793
DA:475,793
DA:476,374
DA:477,374
DA:478,930
DA:479,930
DA:480,930
DA:481,930
DA:482,930
DA:483,930
DA:484,930
DA:485,930
DA:486,930
DA:490,146
DA:491,146
DA:492,146
DA:496,52
DA:497,96
DA:498,96
DA:500,52
DA:501,96
DA:502,96
DA:504,26
DA:505,48
DA:506,48
DA:508,26
DA:509,48
DA:510,48
DA:511,48
DA:512,48
DA:513,48
DA:514,74
DA:515,8
DA:516,12
DA:517,12
DA:518,12
DA:519,12
DA:520,12
DA:521,12
DA:523,18
DA:524,36
DA:525,36
DA:526,36
DA:527,36
DA:528,36
DA:531,26
DA:532,48
DA:536,284
DA:537,284
DA:538,284
DA:539,284
DA:540,284
DA:541,293
DA:542,293
DA:544,1062
DA:545,751
DA:546,751
DA:547,1062
DA:548,592
DA:550,0
DA:551,0
DA:552,0
DA:553,0
DA:554,0
DA:555,0
DA:556,706
DA:557,705
DA:558,0
DA:559,1
DA:560,1
DA:561,1
DA:562,1
DA:564,592
DA:565,592
DA:566,592
DA:567,592
DA:568,592
DA:569,592
DA:570,113
DA:572,356
DA:573,194
DA:575,0
DA:576,0
DA:577,0
DA:578,0
DA:579,0
DA:580,0
DA:581,353
DA:582,353
DA:583,0
DA:584,0
DA:585,0
DA:586,0
DA:587,0
DA:589,159
DA:590,194
DA:591,194
DA:592,194
DA:593,194
DA:594,194
DA:595,194
DA:596,194
DA:598,0
DA:599,3
DA:600,3
DA:601,3
DA:602,3
DA:603,3
DA:604,0
DA:605,3
DA:609,0
DA:614,546
DA:615,573
DA:625,52
DA:626,52
DA:627,33
DA:628,52
DA:629,52
DA:630,33
DA:631,52
DA:632,52
DA:633,52
DA:634,33
DA:635,52
DA:636,33
DA:637,52
DA:638,85
DA:639,0
DA:640,9
DA:641,9
DA:642,9
DA:643,9
DA:644,9
DA:645,9
DA:647,52
DA:648,52
DA:649,24
DA:650,24
DA:653,52
DA:654,85
DA:655,33
DA:656,33
DA:657,33
DA:658,33
DA:660,52
DA:661,33
DA:662,33
DA:663,33
DA:664,52
DA:665,33
DA:666,33
DA:667,33
DA:668,33
DA:669,33
DA:670,33
DA:671,33
DA:672,33
DA:673,33
DA:674,33
DA:675,33
DA:676,33
DA:677,33
DA:678,33
DA:679,33
DA:680,33
DA:681,33
DA:682,33
DA:683,33
DA:684,33
DA:685,33
DA:686,33
DA:687,33
DA:688,33
DA:689,33
DA:690,33
DA:691,33
DA:692,33
DA:693,33
DA:694,33
DA:695,33
DA:696,33
DA:697,33
DA:698,33
DA:699,33
DA:700,33
DA:701,33
DA:702,52
DA:750,232
DA:751,232
DA:752,229
DA:753,232
DA:754,232
DA:755,232
DA:756,1221
DA:757,1221
DA:758,1221
DA:759,1221
DA:761,232
DA:762,232
DA:763,229
DA:764,229
DA:765,229
DA:766,229
DA:767,229
DA:768,229
DA:769,229
DA:770,229
DA:771,229
DA:772,229
DA:773,229
DA:774,229
DA:775,229
DA:776,229
DA:777,229
DA:778,229
DA:779,229
DA:780,229
DA:781,229
DA:782,459
DA:786,284
DA:787,297
DA:788,502
DA:790,53
DA:791,53
DA:792,53
DA:794,76
DA:795,106
DA:796,58
DA:797,58
DA:798,58
DA:799,15
DA:800,15
DA:801,12
DA:802,12
DA:803,0
DA:804,1
DA:805,1
DA:810,53
DA:811,53
DA:812,53
DA:813,53
DA:814,53
DA:815,53
DA:816,53
DA:818,580
DA:822,284
DA:823,284
DA:824,284
DA:826,284
DA:827,284
DA:828,544
DA:829,49
DA:830,9
DA:831,9
DA:832,9
DA:833,9
DA:834,9
DA:835,9
DA:836,9
DA:838,235
DA:839,251
DA:840,251
DA:841,251
DA:842,251
DA:843,251
DA:844,251
DA:846,544
DA:850,1655
DA:851,1655
DA:852,1655
DA:854,26
DA:855,57
DA:856,57
DA:858,904
DA:859,1232
DA:860,258
DA:862,646
DA:864,1232
DA:868,930
DA:869,1304
DA:870,70
DA:871,23
DA:872,23
DA:873,23
DA:874,23
DA:875,23
DA:877,1211
DA:879,1304
DA:883,3
DA:884,3
DA:885,3
DA:886,3
DA:895,3
DA:896,3
DA:897,3
DA:898,3
DA:899,3
DA:900,3
DA:901,3
DA:904,281
DA:905,281
DA:906,281
DA:907,281
DA:908,281
DA:909,281
DA:910,281
DA:911,281
DA:912,281
DA:914,284
DA:915,578
DA:916,578
DA:918,284
DA:919,294
DA:920,294
DA:921,284
DA:922,85
DA:924,489
DA:926,581
BRF:0
BRH:0
LF:666
LH:631
end_of_record
SF:/fast/lenny/workspace/programming/gungraun/gungraun/gungraun-runner/src/api.rs
FN:2185,_RNvMsn_NtCs6wj2z9XdCGO_15gungraun_runner3apiNtB5_11RawToolArgs8as_slice
FN:2608,_RNvMsB_NtCs6wj2z9XdCGO_15gungraun_runner3apiNtB5_12ValgrindTool15has_output_file
FN:1947,_RNvXsg_NtCs6wj2z9XdCGO_15gungraun_runner3apiINtNtCslfzsRR9BCUr_8indexmap3set8IndexSetNtB5_16CachegrindMetricEINtNtCsgEmfK2I1SDS_4core7convert4FromNtB5_17CachegrindMetricsE4from
FN:2015,_RNvXsh_NtCs6wj2z9XdCGO_15gungraun_runner3apiINtNtCslfzsRR9BCUr_8indexmap3set8IndexSetNtB5_10DhatMetricEINtNtCsgEmfK2I1SDS_4core7convert4FromNtB5_11DhatMetricsE4from
FN:2037,_RNvXsi_NtCs6wj2z9XdCGO_15gungraun_runner3apiINtNtCslfzsRR9BCUr_8indexmap3set8IndexSetNtB5_9EventKindEINtNtCsgEmfK2I1SDS_4core7convert4FromNtB5_16CallgrindMetricsE4from
FN:2207,_RNCINvMsn_NtCs6wj2z9XdCGO_15gungraun_runner3apiNtB8_11RawToolArgs18extend_ignore_flagNtNtCslNYArtu3iFV_5alloc6string6StringINtNtNtNtCsgEmfK2I1SDS_4core4iter8adapters3map3MapINtNtNtB1p_3vec9into_iter8IntoIterB1l_ENvYB1l_INtNtB26_7convert4IntoB1l_E4intoEEs_0Ba_
FN:2207,_RNCINvMsn_NtCs6wj2z9XdCGO_15gungraun_runner3apiNtB8_11RawToolArgs18extend_ignore_flagNtNtCslNYArtu3iFV_5alloc6string6StringINtNtNtNtCsgEmfK2I1SDS_4core4iter8adapters3map3MapINtNtNtB26_5array4iter8IntoIterReKj1_ENvYB3g_INtNtB26_7convert4IntoB1l_E4intoEEs_0Ba_
FN:2207,_RNCINvMsn_NtCs6wj2z9XdCGO_15gungraun_runner3apiNtB8_11RawToolArgs18extend_ignore_flagRNtNtCslNYArtu3iFV_5alloc6string6StringINtNtNtCsgEmfK2I1SDS_4core5slice4iter4IterB1m_EEs_0Ba_
FN:2207,_RNCINvMsn_NtCs6wj2z9XdCGO_15gungraun_runner3apiNtB8_11RawToolArgs18extend_ignore_flagRNtNtCslNYArtu3iFV_5alloc6string6StringRAB1m_j1_Es_0Ba_
FN:2621,_RNvMsB_NtCs6wj2z9XdCGO_15gungraun_runner3apiNtB5_12ValgrindTool14has_xleak_file
FN:2616,_RNvMsB_NtCs6wj2z9XdCGO_15gungraun_runner3apiNtB5_12ValgrindTool14has_xtree_file
FN:1399,_RINvMNtCs6wj2z9XdCGO_15gungraun_runner3apiNtB3_21BinaryBenchmarkConfig15update_from_allAINtNtCsgEmfK2I1SDS_4core6option6OptionRBE_Ej1_EB5_
FN:1399,_RINvMNtCs6wj2z9XdCGO_15gungraun_runner3apiNtB3_21BinaryBenchmarkConfig15update_from_allAINtNtCsgEmfK2I1SDS_4core6option6OptionRBE_Ej3_EB5_
FN:2568,_RINvMsA_NtCs6wj2z9XdCGO_15gungraun_runner3apiNtB6_5Tools10update_allINtNtNtNtCsgEmfK2I1SDS_4core4iter8adapters6cloned6ClonedINtNtNtB1d_5slice4iter4IterNtB6_4ToolEEEB8_
FN:2118,_RINvMsj_NtCs6wj2z9XdCGO_15gungraun_runner3apiNtB6_22LibraryBenchmarkConfig15update_from_allAINtNtCsgEmfK2I1SDS_4core6option6OptionRBH_Ej1_EB8_
FN:2118,_RINvMsj_NtCs6wj2z9XdCGO_15gungraun_runner3apiNtB6_22LibraryBenchmarkConfig15update_from_allAINtNtCsgEmfK2I1SDS_4core6option6OptionRBH_Ej2_EB8_
FN:2199,_RINvMsn_NtCs6wj2z9XdCGO_15gungraun_runner3apiNtB6_11RawToolArgs18extend_ignore_flagNtNtCslNYArtu3iFV_5alloc6string6StringINtNtNtNtCsgEmfK2I1SDS_4core4iter8adapters3map3MapINtNtNtB1n_3vec9into_iter8IntoIterB1j_ENvYB1j_INtNtB24_7convert4IntoB1j_E4intoEEB8_
FN:2199,_RINvMsn_NtCs6wj2z9XdCGO_15gungraun_runner3apiNtB6_11RawToolArgs18extend_ignore_flagNtNtCslNYArtu3iFV_5alloc6string6StringINtNtNtNtCsgEmfK2I1SDS_4core4iter8adapters3map3MapINtNtNtB24_5array4iter8IntoIterReKj1_ENvYB3e_INtNtB24_7convert4IntoB1j_E4intoEEB8_
FN:2199,_RINvMsn_NtCs6wj2z9XdCGO_15gungraun_runner3apiNtB6_11RawToolArgs18extend_ignore_flagRNtNtCslNYArtu3iFV_5alloc6string6StringINtNtNtCsgEmfK2I1SDS_4core5slice4iter4IterB1k_EEB8_
FN:2199,_RINvMsn_NtCs6wj2z9XdCGO_15gungraun_runner3apiNtB6_11RawToolArgs18extend_ignore_flagRNtNtCslNYArtu3iFV_5alloc6string6StringRAB1k_j1_EB8_
FN:2190,_RINvMsn_NtCs6wj2z9XdCGO_15gungraun_runner3apiNtB6_11RawToolArgs3newNtNtCslNYArtu3iFV_5alloc6string6StringINtNtB17_3vec3VecB13_EEB8_
FN:2190,_RINvMsn_NtCs6wj2z9XdCGO_15gungraun_runner3apiNtB6_11RawToolArgs3newReAB13_j1_EB8_
FN:2661,_RINvNtCs6wj2z9XdCGO_15gungraun_runner3api13update_optionINtNtCslNYArtu3iFV_5alloc3vec3VecNtNtBX_6string6StringEEB4_
FN:2661,_RINvNtCs6wj2z9XdCGO_15gungraun_runner3api13update_optionNtB2_10EntryPointEB4_
FN:2661,_RINvNtCs6wj2z9XdCGO_15gungraun_runner3api13update_optionNtB2_12OutputFormatEB4_
FN:2661,_RINvNtCs6wj2z9XdCGO_15gungraun_runner3api13update_optionNtB2_12ValgrindToolEB4_
FN:2661,_RINvNtCs6wj2z9XdCGO_15gungraun_runner3api13update_optionNtB2_16ToolOutputFormatEB4_
FN:2661,_RINvNtCs6wj2z9XdCGO_15gungraun_runner3api13update_optionNtB2_20ToolFlamegraphConfigEB4_
FN:2661,_RINvNtCs6wj2z9XdCGO_15gungraun_runner3api13update_optionNtB2_20ToolRegressionConfigEB4_
FN:2661,_RINvNtCs6wj2z9XdCGO_15gungraun_runner3api13update_optionNtB2_7SandboxEB4_
FN:2661,_RINvNtCs6wj2z9XdCGO_15gungraun_runner3api13update_optionNtB2_8ExitWithEB4_
FN:2661,_RINvNtCs6wj2z9XdCGO_15gungraun_runner3api13update_optionNtNtCsjrHSEGnQ3l9_3std4path7PathBufEB4_
FN:2661,_RINvNtCs6wj2z9XdCGO_15gungraun_runner3api13update_optionbEB4_
FN:2242,_RINvXso_NtCs6wj2z9XdCGO_15gungraun_runner3apiNtB6_11RawToolArgsINtNtNtNtCsgEmfK2I1SDS_4core4iter6traits7collect12FromIteratorNtNtCslNYArtu3iFV_5alloc6string6StringE9from_iterINtNtNtB16_8adapters3map3MapINtNtNtB18_5array4iter8IntoIterReKj1_ENvYB3J_INtNtB18_7convert4IntoB1Z_E4intoEEB8_
FN:2242,_RINvXso_NtCs6wj2z9XdCGO_15gungraun_runner3apiNtB6_11RawToolArgsINtNtNtNtCsgEmfK2I1SDS_4core4iter6traits7collect12FromIteratorNtNtCslNYArtu3iFV_5alloc6string6StringE9from_iterINtNtNtB16_8adapters3map3MapINtNtNtB23_3vec9into_iter8IntoIterB1Z_ENvYB1Z_INtNtB18_7convert4IntoB1Z_E4intoEEB8_
FN:2206,_RNCINvMsn_NtCs6wj2z9XdCGO_15gungraun_runner3apiNtB8_11RawToolArgs18extend_ignore_flagNtNtCslNYArtu3iFV_5alloc6string6StringINtNtNtNtCsgEmfK2I1SDS_4core4iter8adapters3map3MapINtNtNtB1p_3vec9into_iter8IntoIterB1l_ENvYB1l_INtNtB26_7convert4IntoB1l_E4intoEE0Ba_
FN:2206,_RNCINvMsn_NtCs6wj2z9XdCGO_15gungraun_runner3apiNtB8_11RawToolArgs18extend_ignore_flagNtNtCslNYArtu3iFV_5alloc6string6StringINtNtNtNtCsgEmfK2I1SDS_4core4iter8adapters3map3MapINtNtNtB26_5array4iter8IntoIterReKj1_ENvYB3g_INtNtB26_7convert4IntoB1l_E4intoEE0Ba_
FN:2206,_RNCINvMsn_NtCs6wj2z9XdCGO_15gungraun_runner3apiNtB8_11RawToolArgs18extend_ignore_flagRNtNtCslNYArtu3iFV_5alloc6string6StringINtNtNtCsgEmfK2I1SDS_4core5slice4iter4IterB1m_EE0Ba_
FN:2206,_RNCINvMsn_NtCs6wj2z9XdCGO_15gungraun_runner3apiNtB8_11RawToolArgs18extend_ignore_flagRNtNtCslNYArtu3iFV_5alloc6string6StringRAB1m_j1_E0Ba_
FN:2662,_RNCINvNtCs6wj2z9XdCGO_15gungraun_runner3api13update_optionINtNtCslNYArtu3iFV_5alloc3vec3VecNtNtBZ_6string6StringEE0B6_
FN:2662,_RNCINvNtCs6wj2z9XdCGO_15gungraun_runner3api13update_optionNtB4_10EntryPointE0B6_
FN:2662,_RNCINvNtCs6wj2z9XdCGO_15gungraun_runner3api13update_optionNtB4_12OutputFormatE0B6_
FN:2662,_RNCINvNtCs6wj2z9XdCGO_15gungraun_runner3api13update_optionNtB4_12ValgrindToolE0B6_
FN:2662,_RNCINvNtCs6wj2z9XdCGO_15gungraun_runner3api13update_optionNtB4_16ToolOutputFormatE0B6_
FN:2662,_RNCINvNtCs6wj2z9XdCGO_15gungraun_runner3api13update_optionNtB4_20ToolFlamegraphConfigE0B6_
FN:2662,_RNCINvNtCs6wj2z9XdCGO_15gungraun_runner3api13update_optionNtB4_20ToolRegressionConfigE0B6_
FN:2662,_RNCINvNtCs6wj2z9XdCGO_15gungraun_runner3api13update_optionNtB4_7SandboxE0B6_
FN:2662,_RNCINvNtCs6wj2z9XdCGO_15gungraun_runner3api13update_optionNtB4_8ExitWithE0B6_
FN:2662,_RNCINvNtCs6wj2z9XdCGO_15gungraun_runner3api13update_optionNtNtCsjrHSEGnQ3l9_3std4path7PathBufE0B6_
FN:2662,_RNCINvNtCs6wj2z9XdCGO_15gungraun_runner3api13update_optionbE0B6_
FN:1443,_RNCNCNvMNtCs6wj2z9XdCGO_15gungraun_runner3apiNtB6_21BinaryBenchmarkConfig12collect_envs00B8_
FN:2156,_RNCNCNvMsj_NtCs6wj2z9XdCGO_15gungraun_runner3apiNtB9_22LibraryBenchmarkConfig12collect_envs00Bb_
FN:1443,_RNCNvMNtCs6wj2z9XdCGO_15gungraun_runner3apiNtB4_21BinaryBenchmarkConfig12collect_envs0B6_
FN:2560,_RNCNvMsA_NtCs6wj2z9XdCGO_15gungraun_runner3apiNtB7_5Tools6update0B9_
FN:2587,_RNCNvMsA_NtCs6wj2z9XdCGO_15gungraun_runner3apiNtB7_5Tools7consume0B9_
FN:2588,_RNCNvMsA_NtCs6wj2z9XdCGO_15gungraun_runner3apiNtB7_5Tools7consumes_0B9_
FN:2156,_RNCNvMsj_NtCs6wj2z9XdCGO_15gungraun_runner3apiNtB7_22LibraryBenchmarkConfig12collect_envs0B9_
FN:2330,_RNCNvMsp_NtCs6wj2z9XdCGO_15gungraun_runner3apiNtB7_5Stdin5apply0B9_
FN:2339,_RNCNvMsp_NtCs6wj2z9XdCGO_15gungraun_runner3apiNtB7_5Stdin5applys_0B9_
FN:2452,_RNCNvMsu_NtCs6wj2z9XdCGO_15gungraun_runner3apiNtB7_5Stdio5apply0B9_
FN:2460,_RNCNvMsu_NtCs6wj2z9XdCGO_15gungraun_runner3apiNtB7_5Stdio5applys_0B9_
FN:1440,_RNvMNtCs6wj2z9XdCGO_15gungraun_runner3apiNtB2_21BinaryBenchmarkConfig12collect_envs
FN:1433,_RNvMNtCs6wj2z9XdCGO_15gungraun_runner3apiNtB2_21BinaryBenchmarkConfig12resolve_envs
FN:2578,_RNvMsA_NtCs6wj2z9XdCGO_15gungraun_runner3apiNtB5_5Tools17update_from_other
FN:2559,_RNvMsA_NtCs6wj2z9XdCGO_15gungraun_runner3apiNtB5_5Tools6update
FN:2584,_RNvMsA_NtCs6wj2z9XdCGO_15gungraun_runner3apiNtB5_5Tools7consume
FN:2554,_RNvMsA_NtCs6wj2z9XdCGO_15gungraun_runner3apiNtB5_5Tools8is_empty
FN:2594,_RNvMsB_NtCs6wj2z9XdCGO_15gungraun_runner3apiNtB5_12ValgrindTool2id
FN:1487,_RNvMs_NtCs6wj2z9XdCGO_15gungraun_runner3apiNtB4_16CachegrindMetric7to_name
FN:1791,_RNvMsc_NtCs6wj2z9XdCGO_15gungraun_runner3apiNtB5_9EventKind7to_name
FN:2153,_RNvMsj_NtCs6wj2z9XdCGO_15gungraun_runner3apiNtB5_22LibraryBenchmarkConfig12collect_envs
FN:2146,_RNvMsj_NtCs6wj2z9XdCGO_15gungraun_runner3apiNtB5_22LibraryBenchmarkConfig12resolve_envs
FN:2224,_RNvMsn_NtCs6wj2z9XdCGO_15gungraun_runner3apiNtB5_11RawToolArgs6update
FN:2229,_RNvMsn_NtCs6wj2z9XdCGO_15gungraun_runner3apiNtB5_11RawToolArgs7prepend
FN:2219,_RNvMsn_NtCs6wj2z9XdCGO_15gungraun_runner3apiNtB5_11RawToolArgs8is_empty
FN:2317,_RNvMsp_NtCs6wj2z9XdCGO_15gungraun_runner3apiNtB5_5Stdin5apply
FN:2434,_RNvMsu_NtCs6wj2z9XdCGO_15gungraun_runner3apiNtB5_5Stdio5apply
FN:2534,_RNvMsz_NtCs6wj2z9XdCGO_15gungraun_runner3apiNtB5_4Tool6update
FN:1493,_RNvXs0_NtCs6wj2z9XdCGO_15gungraun_runner3apiNtB5_16CachegrindMetricNtNtCsgEmfK2I1SDS_4core3fmt7Display3fmt
FN:1550,_RNvXs1_NtCs6wj2z9XdCGO_15gungraun_runner3apiNtB5_16CachegrindMetricNtNtNtB7_6runner7metrics11TypeChecker6is_int
FN:1581,_RNvXs1_NtCs6wj2z9XdCGO_15gungraun_runner3apiNtB5_16CachegrindMetricNtNtNtB7_6runner7metrics11TypeChecker8is_float
FN:1644,_RNvXs5_NtCs6wj2z9XdCGO_15gungraun_runner3apiNtB5_10DhatMetricNtNtCsgEmfK2I1SDS_4core3fmt7Display3fmt
FN:54,_RNvXs5a_NtCs6wj2z9XdCGO_15gungraun_runner3apiNtB6_16CachegrindMetricNtNtNtCsgEmfK2I1SDS_4core3str6traits7FromStr8from_str
FN:78,_RNvXs5b_NtCs6wj2z9XdCGO_15gungraun_runner3apiNtB6_17CachegrindMetricsNtNtNtCsgEmfK2I1SDS_4core3str6traits7FromStr8from_str
FN:78,_RNvXs5c_NtCs6wj2z9XdCGO_15gungraun_runner3apiNtB6_16CallgrindMetricsNtNtNtCsgEmfK2I1SDS_4core3str6traits7FromStr8from_str
FN:54,_RNvXs5d_NtCs6wj2z9XdCGO_15gungraun_runner3apiNtB6_10DhatMetricNtNtNtCsgEmfK2I1SDS_4core3str6traits7FromStr8from_str
FN:78,_RNvXs5e_NtCs6wj2z9XdCGO_15gungraun_runner3apiNtB6_11DhatMetricsNtNtNtCsgEmfK2I1SDS_4core3str6traits7FromStr8from_str
FN:54,_RNvXs5f_NtCs6wj2z9XdCGO_15gungraun_runner3apiNtB6_11ErrorMetricNtNtNtCsgEmfK2I1SDS_4core3str6traits7FromStr8from_str
FN:54,_RNvXs5g_NtCs6wj2z9XdCGO_15gungraun_runner3apiNtB6_9EventKindNtNtNtCsgEmfK2I1SDS_4core3str6traits7FromStr8from_str
FN:1689,_RNvXs7_NtCs6wj2z9XdCGO_15gungraun_runner3apiNtB5_10DhatMetricNtNtNtB7_6runner7metrics11TypeChecker6is_int
FN:1693,_RNvXs7_NtCs6wj2z9XdCGO_15gungraun_runner3apiNtB5_10DhatMetricNtNtNtB7_6runner7metrics11TypeChecker8is_float
FN:2627,_RNvXsC_NtCs6wj2z9XdCGO_15gungraun_runner3apiNtB5_12ValgrindToolNtNtCsgEmfK2I1SDS_4core3fmt7Display3fmt
FN:2636,_RNvXsD_NtCs6wj2z9XdCGO_15gungraun_runner3apiNtB5_12ValgrindToolNtNtNtCsgEmfK2I1SDS_4core3str6traits7FromStr8from_str
FN:2645,_RNvXsE_NtCs6wj2z9XdCGO_15gungraun_runner3apiNtB5_12ValgrindToolINtNtCsgEmfK2I1SDS_4core7convert7TryFromReE8try_from
FN:1726,_RNvXsa_NtCs6wj2z9XdCGO_15gungraun_runner3apiNtB5_11ErrorMetricNtNtCsgEmfK2I1SDS_4core3fmt7Display3fmt
FN:1797,_RNvXsd_NtCs6wj2z9XdCGO_15gungraun_runner3apiNtB5_9EventKindNtNtCsgEmfK2I1SDS_4core3fmt7Display3fmt
FN:1819,_RNvXse_NtCs6wj2z9XdCGO_15gungraun_runner3apiNtB5_9EventKindINtNtCsgEmfK2I1SDS_4core7convert4FromNtB5_16CachegrindMetricE4from
FN:1898,_RNvXsf_NtCs6wj2z9XdCGO_15gungraun_runner3apiNtB5_9EventKindNtNtNtB7_6runner7metrics11TypeChecker6is_int
FN:1940,_RNvXsf_NtCs6wj2z9XdCGO_15gungraun_runner3apiNtB5_9EventKindNtNtNtB7_6runner7metrics11TypeChecker8is_float
FN:2369,_RNvXss_NtCs6wj2z9XdCGO_15gungraun_runner3apiNtB5_5StdinINtNtCsgEmfK2I1SDS_4core7convert4FromRNtNtCsjrHSEGnQ3l9_3std4path7PathBufE4from
FN:2375,_RNvXst_NtCs6wj2z9XdCGO_15gungraun_runner3apiNtB5_5StdinINtNtCsgEmfK2I1SDS_4core7convert4FromRNtNtCsjrHSEGnQ3l9_3std4path4PathE4from
FN:2488,_RNvXsw_NtCs6wj2z9XdCGO_15gungraun_runner3apiNtB5_5StdioINtNtCsgEmfK2I1SDS_4core7convert4FromRNtNtCsjrHSEGnQ3l9_3std4path7PathBufE4from
FN:2494,_RNvXsx_NtCs6wj2z9XdCGO_15gungraun_runner3apiNtB5_5StdioINtNtCsgEmfK2I1SDS_4core7convert4FromRNtNtCsjrHSEGnQ3l9_3std4path4PathE4from
FN:2501,_RNvXsy_NtCs6wj2z9XdCGO_15gungraun_runner3apiNtB5_6StreamNtNtCsgEmfK2I1SDS_4core3fmt7Display3fmt
FN:2508,_RNvMsz_NtCs6wj2z9XdCGO_15gungraun_runner3apiNtB5_4Tool3new
FN:2523,_RINvMsz_NtCs6wj2z9XdCGO_15gungraun_runner3apiNtB6_4Tool9with_argsppEB8_
FN:1467,_RNvMs_NtCs6wj2z9XdCGO_15gungraun_runner3apiNtB4_16CachegrindMetric10is_derived
FN:1720,_RNvXININtCs6wj2z9XdCGO_15gungraun_runner3apis9_0pENtB5_10EntryPointINtNtCsgEmfK2I1SDS_4core7convert4FrompE4fromB7_
FN:1611,_RNvXs3_NtCs6wj2z9XdCGO_15gungraun_runner3apiNtB5_16CallgrindMetricsINtNtCsgEmfK2I1SDS_4core7convert4FromNtB5_9EventKindE4from
FN:1638,_RNvXs4_NtCs6wj2z9XdCGO_15gungraun_runner3apiNtB5_9DelayKindNtNtCsgEmfK2I1SDS_4core7default7Default7default
FN:2163,_RNvXsk_NtCs6wj2z9XdCGO_15gungraun_runner3apiNtB5_5LimitINtNtCsgEmfK2I1SDS_4core7convert4FromNtNtNtB7_6runner7metrics6MetricE4from
FN:2172,_RNvXsl_NtCs6wj2z9XdCGO_15gungraun_runner3apiNtB5_5LimitINtNtCsgEmfK2I1SDS_4core7convert4FromdE4from
FN:2352,_RNvXsq_NtCs6wj2z9XdCGO_15gungraun_runner3apiNtB5_5StdinINtNtCsgEmfK2I1SDS_4core7convert4FromNtB5_5StdioE4from
FN:2363,_RNvXsr_NtCs6wj2z9XdCGO_15gungraun_runner3apiNtB5_5StdinINtNtCsgEmfK2I1SDS_4core7convert4FromNtNtCsjrHSEGnQ3l9_3std4path7PathBufE4from
FN:2482,_RNvXsv_NtCs6wj2z9XdCGO_15gungraun_runner3apiNtB5_5StdioINtNtCsgEmfK2I1SDS_4core7convert4FromNtNtCsjrHSEGnQ3l9_3std4path7PathBufE4from
FN:1771,_RNvMsc_NtCs6wj2z9XdCGO_15gungraun_runner3apiNtB5_9EventKind10is_derived
FN:1947,_RNvXsg_NtCslU5GooN79Bb_15gungraun_runner3apiINtNtCsjqwwtHpusuX_8indexmap3set8IndexSetNtB5_16CachegrindMetricEINtNtCsgEmfK2I1SDS_4core7convert4FromNtB5_17CachegrindMetricsE4from
FN:2015,_RNvXsh_NtCslU5GooN79Bb_15gungraun_runner3apiINtNtCsjqwwtHpusuX_8indexmap3set8IndexSetNtB5_10DhatMetricEINtNtCsgEmfK2I1SDS_4core7convert4FromNtB5_11DhatMetricsE4from
FN:2037,_RNvXsi_NtCslU5GooN79Bb_15gungraun_runner3apiINtNtCsjqwwtHpusuX_8indexmap3set8IndexSetNtB5_9EventKindEINtNtCsgEmfK2I1SDS_4core7convert4FromNtB5_16CallgrindMetricsE4from
FN:2185,_RNvMsn_NtCslU5GooN79Bb_15gungraun_runner3apiNtB5_11RawToolArgs8as_slice
FN:2207,_RNCINvMsn_NtCslU5GooN79Bb_15gungraun_runner3apiNtB8_11RawToolArgs18extend_ignore_flagNtNtCslNYArtu3iFV_5alloc6string6StringINtNtNtNtCsgEmfK2I1SDS_4core4iter8adapters3map3MapINtNtNtB1p_3vec9into_iter8IntoIterB1l_ENvYB1l_INtNtB26_7convert4IntoB1l_E4intoEEs_0Ba_
FN:2207,_RNCINvMsn_NtCslU5GooN79Bb_15gungraun_runner3apiNtB8_11RawToolArgs18extend_ignore_flagNtNtCslNYArtu3iFV_5alloc6string6StringINtNtNtNtCsgEmfK2I1SDS_4core4iter8adapters3map3MapINtNtNtB26_5array4iter8IntoIterReKj1_ENvYB3g_INtNtB26_7convert4IntoB1l_E4intoEEs_0Ba_
FN:2207,_RNCINvMsn_NtCslU5GooN79Bb_15gungraun_runner3apiNtB8_11RawToolArgs18extend_ignore_flagRNtNtCslNYArtu3iFV_5alloc6string6StringINtNtNtCsgEmfK2I1SDS_4core5slice4iter4IterB1m_EEs_0Ba_
FN:2207,_RNCINvMsn_NtCslU5GooN79Bb_15gungraun_runner3apiNtB8_11RawToolArgs18extend_ignore_flagRNtNtCslNYArtu3iFV_5alloc6string6StringRAB1m_j1_Es_0Ba_
FN:2508,_RNvMsz_NtCslU5GooN79Bb_15gungraun_runner3apiNtB5_4Tool3new
FN:1399,_RINvMNtCslU5GooN79Bb_15gungraun_runner3apiNtB3_21BinaryBenchmarkConfig15update_from_allAINtNtCsgEmfK2I1SDS_4core6option6OptionRBE_Ej1_EB5_
FN:1399,_RINvMNtCslU5GooN79Bb_15gungraun_runner3apiNtB3_21BinaryBenchmarkConfig15update_from_allAINtNtCsgEmfK2I1SDS_4core6option6OptionRBE_Ej3_EB5_
FN:2568,_RINvMsA_NtCslU5GooN79Bb_15gungraun_runner3apiNtB6_5Tools10update_allINtNtNtNtCsgEmfK2I1SDS_4core4iter8adapters6cloned6ClonedINtNtNtB1d_5slice4iter4IterNtB6_4ToolEEEB8_
FN:2118,_RINvMsj_NtCslU5GooN79Bb_15gungraun_runner3apiNtB6_22LibraryBenchmarkConfig15update_from_allAINtNtCsgEmfK2I1SDS_4core6option6OptionRBH_Ej1_EB8_
FN:2118,_RINvMsj_NtCslU5GooN79Bb_15gungraun_runner3apiNtB6_22LibraryBenchmarkConfig15update_from_allAINtNtCsgEmfK2I1SDS_4core6option6OptionRBH_Ej2_EB8_
FN:2199,_RINvMsn_NtCslU5GooN79Bb_15gungraun_runner3apiNtB6_11RawToolArgs18extend_ignore_flagNtNtCslNYArtu3iFV_5alloc6string6StringINtNtNtNtCsgEmfK2I1SDS_4core4iter8adapters3map3MapINtNtNtB1n_3vec9into_iter8IntoIterB1j_ENvYB1j_INtNtB24_7convert4IntoB1j_E4intoEEB8_
FN:2199,_RINvMsn_NtCslU5GooN79Bb_15gungraun_runner3apiNtB6_11RawToolArgs18extend_ignore_flagNtNtCslNYArtu3iFV_5alloc6string6StringINtNtNtNtCsgEmfK2I1SDS_4core4iter8adapters3map3MapINtNtNtB24_5array4iter8IntoIterReKj1_ENvYB3e_INtNtB24_7convert4IntoB1j_E4intoEEB8_
FN:2199,_RINvMsn_NtCslU5GooN79Bb_15gungraun_runner3apiNtB6_11RawToolArgs18extend_ignore_flagRNtNtCslNYArtu3iFV_5alloc6string6StringINtNtNtCsgEmfK2I1SDS_4core5slice4iter4IterB1k_EEB8_
FN:2199,_RINvMsn_NtCslU5GooN79Bb_15gungraun_runner3apiNtB6_11RawToolArgs18extend_ignore_flagRNtNtCslNYArtu3iFV_5alloc6string6StringRAB1k_j1_EB8_
FN:2190,_RINvMsn_NtCslU5GooN79Bb_15gungraun_runner3apiNtB6_11RawToolArgs3newNtNtCslNYArtu3iFV_5alloc6string6StringINtNtB17_3vec3VecB13_EEB8_
FN:2190,_RINvMsn_NtCslU5GooN79Bb_15gungraun_runner3apiNtB6_11RawToolArgs3newReAB13_j1_EB8_
FN:2661,_RINvNtCslU5GooN79Bb_15gungraun_runner3api13update_optionINtNtCslNYArtu3iFV_5alloc3vec3VecNtNtBX_6string6StringEEB4_
FN:2661,_RINvNtCslU5GooN79Bb_15gungraun_runner3api13update_optionNtB2_10EntryPointEB4_
FN:2661,_RINvNtCslU5GooN79Bb_15gungraun_runner3api13update_optionNtB2_12OutputFormatEB4_
FN:2661,_RINvNtCslU5GooN79Bb_15gungraun_runner3api13update_optionNtB2_12ValgrindToolEB4_
FN:2661,_RINvNtCslU5GooN79Bb_15gungraun_runner3api13update_optionNtB2_16ToolOutputFormatEB4_
FN:2661,_RINvNtCslU5GooN79Bb_15gungraun_runner3api13update_optionNtB2_20ToolFlamegraphConfigEB4_
FN:2661,_RINvNtCslU5GooN79Bb_15gungraun_runner3api13update_optionNtB2_20ToolRegressionConfigEB4_
FN:2661,_RINvNtCslU5GooN79Bb_15gungraun_runner3api13update_optionNtB2_7SandboxEB4_
FN:2661,_RINvNtCslU5GooN79Bb_15gungraun_runner3api13update_optionNtB2_8ExitWithEB4_
FN:2661,_RINvNtCslU5GooN79Bb_15gungraun_runner3api13update_optionNtNtCsjrHSEGnQ3l9_3std4path7PathBufEB4_
FN:2661,_RINvNtCslU5GooN79Bb_15gungraun_runner3api13update_optionbEB4_
FN:2242,_RINvXso_NtCslU5GooN79Bb_15gungraun_runner3apiNtB6_11RawToolArgsINtNtNtNtCsgEmfK2I1SDS_4core4iter6traits7collect12FromIteratorNtNtCslNYArtu3iFV_5alloc6string6StringE9from_iterINtNtNtB16_8adapters3map3MapINtNtNtB18_5array4iter8IntoIterReKj1_ENvYB3J_INtNtB18_7convert4IntoB1Z_E4intoEEB8_
FN:2242,_RINvXso_NtCslU5GooN79Bb_15gungraun_runner3apiNtB6_11RawToolArgsINtNtNtNtCsgEmfK2I1SDS_4core4iter6traits7collect12FromIteratorNtNtCslNYArtu3iFV_5alloc6string6StringE9from_iterINtNtNtB16_8adapters3map3MapINtNtNtB23_3vec9into_iter8IntoIterB1Z_ENvYB1Z_INtNtB18_7convert4IntoB1Z_E4intoEEB8_
FN:2206,_RNCINvMsn_NtCslU5GooN79Bb_15gungraun_runner3apiNtB8_11RawToolArgs18extend_ignore_flagNtNtCslNYArtu3iFV_5alloc6string6StringINtNtNtNtCsgEmfK2I1SDS_4core4iter8adapters3map3MapINtNtNtB1p_3vec9into_iter8IntoIterB1l_ENvYB1l_INtNtB26_7convert4IntoB1l_E4intoEE0Ba_
FN:2206,_RNCINvMsn_NtCslU5GooN79Bb_15gungraun_runner3apiNtB8_11RawToolArgs18extend_ignore_flagNtNtCslNYArtu3iFV_5alloc6string6StringINtNtNtNtCsgEmfK2I1SDS_4core4iter8adapters3map3MapINtNtNtB26_5array4iter8IntoIterReKj1_ENvYB3g_INtNtB26_7convert4IntoB1l_E4intoEE0Ba_
FN:2206,_RNCINvMsn_NtCslU5GooN79Bb_15gungraun_runner3apiNtB8_11RawToolArgs18extend_ignore_flagRNtNtCslNYArtu3iFV_5alloc6string6StringINtNtNtCsgEmfK2I1SDS_4core5slice4iter4IterB1m_EE0Ba_
FN:2206,_RNCINvMsn_NtCslU5GooN79Bb_15gungraun_runner3apiNtB8_11RawToolArgs18extend_ignore_flagRNtNtCslNYArtu3iFV_5alloc6string6StringRAB1m_j1_E0Ba_
FN:2662,_RNCINvNtCslU5GooN79Bb_15gungraun_runner3api13update_optionINtNtCslNYArtu3iFV_5alloc3vec3VecNtNtBZ_6string6StringEE0B6_
FN:2662,_RNCINvNtCslU5GooN79Bb_15gungraun_runner3api13update_optionNtB4_10EntryPointE0B6_
FN:2662,_RNCINvNtCslU5GooN79Bb_15gungraun_runner3api13update_optionNtB4_12OutputFormatE0B6_
FN:2662,_RNCINvNtCslU5GooN79Bb_15gungraun_runner3api13update_optionNtB4_12ValgrindToolE0B6_
FN:2662,_RNCINvNtCslU5GooN79Bb_15gungraun_runner3api13update_optionNtB4_16ToolOutputFormatE0B6_
FN:2662,_RNCINvNtCslU5GooN79Bb_15gungraun_runner3api13update_optionNtB4_20ToolFlamegraphConfigE0B6_
FN:2662,_RNCINvNtCslU5GooN79Bb_15gungraun_runner3api13update_optionNtB4_20ToolRegressionConfigE0B6_
FN:2662,_RNCINvNtCslU5GooN79Bb_15gungraun_runner3api13update_optionNtB4_7SandboxE0B6_
FN:2662,_RNCINvNtCslU5GooN79Bb_15gungraun_runner3api13update_optionNtB4_8ExitWithE0B6_
FN:2662,_RNCINvNtCslU5GooN79Bb_15gungraun_runner3api13update_optionNtNtCsjrHSEGnQ3l9_3std4path7PathBufE0B6_
FN:2662,_RNCINvNtCslU5GooN79Bb_15gungraun_runner3api13update_optionbE0B6_
FN:1443,_RNCNCNvMNtCslU5GooN79Bb_15gungraun_runner3apiNtB6_21BinaryBenchmarkConfig12collect_envs00B8_
FN:2156,_RNCNCNvMsj_NtCslU5GooN79Bb_15gungraun_runner3apiNtB9_22LibraryBenchmarkConfig12collect_envs00Bb_
FN:1443,_RNCNvMNtCslU5GooN79Bb_15gungraun_runner3apiNtB4_21BinaryBenchmarkConfig12collect_envs0B6_
FN:2560,_RNCNvMsA_NtCslU5GooN79Bb_15gungraun_runner3apiNtB7_5Tools6update0B9_
FN:2587,_RNCNvMsA_NtCslU5GooN79Bb_15gungraun_runner3apiNtB7_5Tools7consume0B9_
FN:2588,_RNCNvMsA_NtCslU5GooN79Bb_15gungraun_runner3apiNtB7_5Tools7consumes_0B9_
FN:2156,_RNCNvMsj_NtCslU5GooN79Bb_15gungraun_runner3apiNtB7_22LibraryBenchmarkConfig12collect_envs0B9_
FN:2330,_RNCNvMsp_NtCslU5GooN79Bb_15gungraun_runner3apiNtB7_5Stdin5apply0B9_
FN:2339,_RNCNvMsp_NtCslU5GooN79Bb_15gungraun_runner3apiNtB7_5Stdin5applys_0B9_
FN:2452,_RNCNvMsu_NtCslU5GooN79Bb_15gungraun_runner3apiNtB7_5Stdio5apply0B9_
FN:2460,_RNCNvMsu_NtCslU5GooN79Bb_15gungraun_runner3apiNtB7_5Stdio5applys_0B9_
FN:1440,_RNvMNtCslU5GooN79Bb_15gungraun_runner3apiNtB2_21BinaryBenchmarkConfig12collect_envs
FN:1433,_RNvMNtCslU5GooN79Bb_15gungraun_runner3apiNtB2_21BinaryBenchmarkConfig12resolve_envs
FN:2578,_RNvMsA_NtCslU5GooN79Bb_15gungraun_runner3apiNtB5_5Tools17update_from_other
FN:2559,_RNvMsA_NtCslU5GooN79Bb_15gungraun_runner3apiNtB5_5Tools6update
FN:2584,_RNvMsA_NtCslU5GooN79Bb_15gungraun_runner3apiNtB5_5Tools7consume
FN:2554,_RNvMsA_NtCslU5GooN79Bb_15gungraun_runner3apiNtB5_5Tools8is_empty
FN:2594,_RNvMsB_NtCslU5GooN79Bb_15gungraun_runner3apiNtB5_12ValgrindTool2id
FN:1487,_RNvMs_NtCslU5GooN79Bb_15gungraun_runner3apiNtB4_16CachegrindMetric7to_name
FN:1791,_RNvMsc_NtCslU5GooN79Bb_15gungraun_runner3apiNtB5_9EventKind7to_name
FN:2153,_RNvMsj_NtCslU5GooN79Bb_15gungraun_runner3apiNtB5_22LibraryBenchmarkConfig12collect_envs
FN:2146,_RNvMsj_NtCslU5GooN79Bb_15gungraun_runner3apiNtB5_22LibraryBenchmarkConfig12resolve_envs
FN:2224,_RNvMsn_NtCslU5GooN79Bb_15gungraun_runner3apiNtB5_11RawToolArgs6update
FN:2229,_RNvMsn_NtCslU5GooN79Bb_15gungraun_runner3apiNtB5_11RawToolArgs7prepend
FN:2219,_RNvMsn_NtCslU5GooN79Bb_15gungraun_runner3apiNtB5_11RawToolArgs8is_empty
FN:2317,_RNvMsp_NtCslU5GooN79Bb_15gungraun_runner3apiNtB5_5Stdin5apply
FN:2434,_RNvMsu_NtCslU5GooN79Bb_15gungraun_runner3apiNtB5_5Stdio5apply
FN:2534,_RNvMsz_NtCslU5GooN79Bb_15gungraun_runner3apiNtB5_4Tool6update
FN:1493,_RNvXs0_NtCslU5GooN79Bb_15gungraun_runner3apiNtB5_16CachegrindMetricNtNtCsgEmfK2I1SDS_4core3fmt7Display3fmt
FN:1550,_RNvXs1_NtCslU5GooN79Bb_15gungraun_runner3apiNtB5_16CachegrindMetricNtNtNtB7_6runner7metrics11TypeChecker6is_int
FN:1581,_RNvXs1_NtCslU5GooN79Bb_15gungraun_runner3apiNtB5_16CachegrindMetricNtNtNtB7_6runner7metrics11TypeChecker8is_float
FN:1644,_RNvXs5_NtCslU5GooN79Bb_15gungraun_runner3apiNtB5_10DhatMetricNtNtCsgEmfK2I1SDS_4core3fmt7Display3fmt
FN:54,_RNvXs5a_NtCslU5GooN79Bb_15gungraun_runner3apiNtB6_16CachegrindMetricNtNtNtCsgEmfK2I1SDS_4core3str6traits7FromStr8from_str
FN:78,_RNvXs5b_NtCslU5GooN79Bb_15gungraun_runner3apiNtB6_17CachegrindMetricsNtNtNtCsgEmfK2I1SDS_4core3str6traits7FromStr8from_str
FN:78,_RNvXs5c_NtCslU5GooN79Bb_15gungraun_runner3apiNtB6_16CallgrindMetricsNtNtNtCsgEmfK2I1SDS_4core3str6traits7FromStr8from_str
FN:54,_RNvXs5d_NtCslU5GooN79Bb_15gungraun_runner3apiNtB6_10DhatMetricNtNtNtCsgEmfK2I1SDS_4core3str6traits7FromStr8from_str
FN:78,_RNvXs5e_NtCslU5GooN79Bb_15gungraun_runner3apiNtB6_11DhatMetricsNtNtNtCsgEmfK2I1SDS_4core3str6traits7FromStr8from_str
FN:54,_RNvXs5f_NtCslU5GooN79Bb_15gungraun_runner3apiNtB6_11ErrorMetricNtNtNtCsgEmfK2I1SDS_4core3str6traits7FromStr8from_str
FN:54,_RNvXs5g_NtCslU5GooN79Bb_15gungraun_runner3apiNtB6_9EventKindNtNtNtCsgEmfK2I1SDS_4core3str6traits7FromStr8from_str
FN:1689,_RNvXs7_NtCslU5GooN79Bb_15gungraun_runner3apiNtB5_10DhatMetricNtNtNtB7_6runner7metrics11TypeChecker6is_int
FN:1693,_RNvXs7_NtCslU5GooN79Bb_15gungraun_runner3apiNtB5_10DhatMetricNtNtNtB7_6runner7metrics11TypeChecker8is_float
FN:2627,_RNvXsC_NtCslU5GooN79Bb_15gungraun_runner3apiNtB5_12ValgrindToolNtNtCsgEmfK2I1SDS_4core3fmt7Display3fmt
FN:2636,_RNvXsD_NtCslU5GooN79Bb_15gungraun_runner3apiNtB5_12ValgrindToolNtNtNtCsgEmfK2I1SDS_4core3str6traits7FromStr8from_str
FN:2645,_RNvXsE_NtCslU5GooN79Bb_15gungraun_runner3apiNtB5_12ValgrindToolINtNtCsgEmfK2I1SDS_4core7convert7TryFromReE8try_from
FN:1726,_RNvXsa_NtCslU5GooN79Bb_15gungraun_runner3apiNtB5_11ErrorMetricNtNtCsgEmfK2I1SDS_4core3fmt7Display3fmt
FN:1797,_RNvXsd_NtCslU5GooN79Bb_15gungraun_runner3apiNtB5_9EventKindNtNtCsgEmfK2I1SDS_4core3fmt7Display3fmt
FN:1819,_RNvXse_NtCslU5GooN79Bb_15gungraun_runner3apiNtB5_9EventKindINtNtCsgEmfK2I1SDS_4core7convert4FromNtB5_16CachegrindMetricE4from
FN:1898,_RNvXsf_NtCslU5GooN79Bb_15gungraun_runner3apiNtB5_9EventKindNtNtNtB7_6runner7metrics11TypeChecker6is_int
FN:1940,_RNvXsf_NtCslU5GooN79Bb_15gungraun_runner3apiNtB5_9EventKindNtNtNtB7_6runner7metrics11TypeChecker8is_float
FN:2369,_RNvXss_NtCslU5GooN79Bb_15gungraun_runner3apiNtB5_5StdinINtNtCsgEmfK2I1SDS_4core7convert4FromRNtNtCsjrHSEGnQ3l9_3std4path7PathBufE4from
FN:2375,_RNvXst_NtCslU5GooN79Bb_15gungraun_runner3apiNtB5_5StdinINtNtCsgEmfK2I1SDS_4core7convert4FromRNtNtCsjrHSEGnQ3l9_3std4path4PathE4from
FN:2488,_RNvXsw_NtCslU5GooN79Bb_15gungraun_runner3apiNtB5_5StdioINtNtCsgEmfK2I1SDS_4core7convert4FromRNtNtCsjrHSEGnQ3l9_3std4path7PathBufE4from
FN:2494,_RNvXsx_NtCslU5GooN79Bb_15gungraun_runner3apiNtB5_5StdioINtNtCsgEmfK2I1SDS_4core7convert4FromRNtNtCsjrHSEGnQ3l9_3std4path4PathE4from
FN:2501,_RNvXsy_NtCslU5GooN79Bb_15gungraun_runner3apiNtB5_6StreamNtNtCsgEmfK2I1SDS_4core3fmt7Display3fmt
FN:1771,_RNvMsc_NtCslU5GooN79Bb_15gungraun_runner3apiNtB5_9EventKind10is_derived
FN:2621,_RNvMsB_NtCslU5GooN79Bb_15gungraun_runner3apiNtB5_12ValgrindTool14has_xleak_file
FN:2616,_RNvMsB_NtCslU5GooN79Bb_15gungraun_runner3apiNtB5_12ValgrindTool14has_xtree_file
FN:2523,_RINvMsz_NtCslU5GooN79Bb_15gungraun_runner3apiNtB6_4Tool9with_argsppEB8_
FN:1467,_RNvMs_NtCslU5GooN79Bb_15gungraun_runner3apiNtB4_16CachegrindMetric10is_derived
FN:1720,_RNvXININtCslU5GooN79Bb_15gungraun_runner3apis9_0pENtB5_10EntryPointINtNtCsgEmfK2I1SDS_4core7convert4FrompE4fromB7_
FN:1587,_RNvXs2_NtCslU5GooN79Bb_15gungraun_runner3apiNtB5_17CachegrindMetricsINtNtCsgEmfK2I1SDS_4core7convert4FromNtB5_16CachegrindMetricE4from
FN:1611,_RNvXs3_NtCslU5GooN79Bb_15gungraun_runner3apiNtB5_16CallgrindMetricsINtNtCsgEmfK2I1SDS_4core7convert4FromNtB5_9EventKindE4from
FN:1638,_RNvXs4_NtCslU5GooN79Bb_15gungraun_runner3apiNtB5_9DelayKindNtNtCsgEmfK2I1SDS_4core7default7Default7default
FN:1699,_RNvXs8_NtCslU5GooN79Bb_15gungraun_runner3apiNtB5_11DhatMetricsINtNtCsgEmfK2I1SDS_4core7convert4FromNtB5_10DhatMetricE4from
FN:2163,_RNvXsk_NtCslU5GooN79Bb_15gungraun_runner3apiNtB5_5LimitINtNtCsgEmfK2I1SDS_4core7convert4FromNtNtNtB7_6runner7metrics6MetricE4from
FN:2172,_RNvXsl_NtCslU5GooN79Bb_15gungraun_runner3apiNtB5_5LimitINtNtCsgEmfK2I1SDS_4core7convert4FromdE4from
FN:2178,_RNvXsm_NtCslU5GooN79Bb_15gungraun_runner3apiNtB5_5LimitINtNtCsgEmfK2I1SDS_4core7convert4FromyE4from
FN:2352,_RNvXsq_NtCslU5GooN79Bb_15gungraun_runner3apiNtB5_5StdinINtNtCsgEmfK2I1SDS_4core7convert4FromNtB5_5StdioE4from
FN:2363,_RNvXsr_NtCslU5GooN79Bb_15gungraun_runner3apiNtB5_5StdinINtNtCsgEmfK2I1SDS_4core7convert4FromNtNtCsjrHSEGnQ3l9_3std4path7PathBufE4from
FN:2482,_RNvXsv_NtCslU5GooN79Bb_15gungraun_runner3apiNtB5_5StdioINtNtCsgEmfK2I1SDS_4core7convert4FromNtNtCsjrHSEGnQ3l9_3std4path7PathBufE4from
FN:2608,_RNvMsB_NtCslU5GooN79Bb_15gungraun_runner3apiNtB5_12ValgrindTool15has_output_file
FN:2508,_RNvMsz_NtCs8iksUjoTkmC_15gungraun_runner3apiNtB5_4Tool3new
FN:1947,_RNvXsg_NtCs8iksUjoTkmC_15gungraun_runner3apiINtNtCsjqwwtHpusuX_8indexmap3set8IndexSetNtB5_16CachegrindMetricEINtNtCsgEmfK2I1SDS_4core7convert4FromNtB5_17CachegrindMetricsE4from
FN:2015,_RNvXsh_NtCs8iksUjoTkmC_15gungraun_runner3apiINtNtCsjqwwtHpusuX_8indexmap3set8IndexSetNtB5_10DhatMetricEINtNtCsgEmfK2I1SDS_4core7convert4FromNtB5_11DhatMetricsE4from
FN:2037,_RNvXsi_NtCs8iksUjoTkmC_15gungraun_runner3apiINtNtCsjqwwtHpusuX_8indexmap3set8IndexSetNtB5_9EventKindEINtNtCsgEmfK2I1SDS_4core7convert4FromNtB5_16CallgrindMetricsE4from
FN:2185,_RNvMsn_NtCs8iksUjoTkmC_15gungraun_runner3apiNtB5_11RawToolArgs8as_slice
FN:2207,_RNCINvMsn_NtCs8iksUjoTkmC_15gungraun_runner3apiNtB8_11RawToolArgs18extend_ignore_flagNtNtCslNYArtu3iFV_5alloc6string6StringINtNtNtNtCsgEmfK2I1SDS_4core4iter8adapters3map3MapINtNtNtB1p_3vec9into_iter8IntoIterB1l_ENvYB1l_INtNtB26_7convert4IntoB1l_E4intoEEs_0Ba_
FN:2207,_RNCINvMsn_NtCs8iksUjoTkmC_15gungraun_runner3apiNtB8_11RawToolArgs18extend_ignore_flagNtNtCslNYArtu3iFV_5alloc6string6StringINtNtNtNtCsgEmfK2I1SDS_4core4iter8adapters3map3MapINtNtNtB26_5array4iter8IntoIterReKj1_ENvYB3g_INtNtB26_7convert4IntoB1l_E4intoEEs_0Ba_
FN:2207,_RNCINvMsn_NtCs8iksUjoTkmC_15gungraun_runner3apiNtB8_11RawToolArgs18extend_ignore_flagRNtNtCslNYArtu3iFV_5alloc6string6StringINtNtNtCsgEmfK2I1SDS_4core5slice4iter4IterB1m_EEs_0Ba_
FN:2207,_RNCINvMsn_NtCs8iksUjoTkmC_15gungraun_runner3apiNtB8_11RawToolArgs18extend_ignore_flagRNtNtCslNYArtu3iFV_5alloc6string6StringRAB1m_j1_Es_0Ba_
FN:1399,_RINvMNtCs8iksUjoTkmC_15gungraun_runner3apiNtB3_21BinaryBenchmarkConfig15update_from_allAINtNtCsgEmfK2I1SDS_4core6option6OptionRBE_Ej1_EB5_
FN:1399,_RINvMNtCs8iksUjoTkmC_15gungraun_runner3apiNtB3_21BinaryBenchmarkConfig15update_from_allAINtNtCsgEmfK2I1SDS_4core6option6OptionRBE_Ej3_EB5_
FN:2568,_RINvMsA_NtCs8iksUjoTkmC_15gungraun_runner3apiNtB6_5Tools10update_allINtNtNtNtCsgEmfK2I1SDS_4core4iter8adapters6cloned6ClonedINtNtNtB1d_5slice4iter4IterNtB6_4ToolEEEB8_
FN:2118,_RINvMsj_NtCs8iksUjoTkmC_15gungraun_runner3apiNtB6_22LibraryBenchmarkConfig15update_from_allAINtNtCsgEmfK2I1SDS_4core6option6OptionRBH_Ej1_EB8_
FN:2118,_RINvMsj_NtCs8iksUjoTkmC_15gungraun_runner3apiNtB6_22LibraryBenchmarkConfig15update_from_allAINtNtCsgEmfK2I1SDS_4core6option6OptionRBH_Ej2_EB8_
FN:2199,_RINvMsn_NtCs8iksUjoTkmC_15gungraun_runner3apiNtB6_11RawToolArgs18extend_ignore_flagNtNtCslNYArtu3iFV_5alloc6string6StringINtNtNtNtCsgEmfK2I1SDS_4core4iter8adapters3map3MapINtNtNtB1n_3vec9into_iter8IntoIterB1j_ENvYB1j_INtNtB24_7convert4IntoB1j_E4intoEEB8_
FN:2199,_RINvMsn_NtCs8iksUjoTkmC_15gungraun_runner3apiNtB6_11RawToolArgs18extend_ignore_flagNtNtCslNYArtu3iFV_5alloc6string6StringINtNtNtNtCsgEmfK2I1SDS_4core4iter8adapters3map3MapINtNtNtB24_5array4iter8IntoIterReKj1_ENvYB3e_INtNtB24_7convert4IntoB1j_E4intoEEB8_
FN:2199,_RINvMsn_NtCs8iksUjoTkmC_15gungraun_runner3apiNtB6_11RawToolArgs18extend_ignore_flagRNtNtCslNYArtu3iFV_5alloc6string6StringINtNtNtCsgEmfK2I1SDS_4core5slice4iter4IterB1k_EEB8_
FN:2199,_RINvMsn_NtCs8iksUjoTkmC_15gungraun_runner3apiNtB6_11RawToolArgs18extend_ignore_flagRNtNtCslNYArtu3iFV_5alloc6string6StringRAB1k_j1_EB8_
FN:2190,_RINvMsn_NtCs8iksUjoTkmC_15gungraun_runner3apiNtB6_11RawToolArgs3newNtNtCslNYArtu3iFV_5alloc6string6StringINtNtB17_3vec3VecB13_EEB8_
FN:2190,_RINvMsn_NtCs8iksUjoTkmC_15gungraun_runner3apiNtB6_11RawToolArgs3newReAB13_j1_EB8_
FN:2661,_RINvNtCs8iksUjoTkmC_15gungraun_runner3api13update_optionINtNtCslNYArtu3iFV_5alloc3vec3VecNtNtBX_6string6StringEEB4_
FN:2661,_RINvNtCs8iksUjoTkmC_15gungraun_runner3api13update_optionNtB2_10EntryPointEB4_
FN:2661,_RINvNtCs8iksUjoTkmC_15gungraun_runner3api13update_optionNtB2_12OutputFormatEB4_
FN:2661,_RINvNtCs8iksUjoTkmC_15gungraun_runner3api13update_optionNtB2_12ValgrindToolEB4_
FN:2661,_RINvNtCs8iksUjoTkmC_15gungraun_runner3api13update_optionNtB2_16ToolOutputFormatEB4_
FN:2661,_RINvNtCs8iksUjoTkmC_15gungraun_runner3api13update_optionNtB2_20ToolFlamegraphConfigEB4_
FN:2661,_RINvNtCs8iksUjoTkmC_15gungraun_runner3api13update_optionNtB2_20ToolRegressionConfigEB4_
FN:2661,_RINvNtCs8iksUjoTkmC_15gungraun_runner3api13update_optionNtB2_7SandboxEB4_
FN:2661,_RINvNtCs8iksUjoTkmC_15gungraun_runner3api13update_optionNtB2_8ExitWithEB4_
FN:2661,_RINvNtCs8iksUjoTkmC_15gungraun_runner3api13update_optionNtNtCsjrHSEGnQ3l9_3std4path7PathBufEB4_
FN:2661,_RINvNtCs8iksUjoTkmC_15gungraun_runner3api13update_optionbEB4_
FN:2242,_RINvXso_NtCs8iksUjoTkmC_15gungraun_runner3apiNtB6_11RawToolArgsINtNtNtNtCsgEmfK2I1SDS_4core4iter6traits7collect12FromIteratorNtNtCslNYArtu3iFV_5alloc6string6StringE9from_iterINtNtNtB16_8adapters3map3MapINtNtNtB18_5array4iter8IntoIterReKj1_ENvYB3J_INtNtB18_7convert4IntoB1Z_E4intoEEB8_
FN:2242,_RINvXso_NtCs8iksUjoTkmC_15gungraun_runner3apiNtB6_11RawToolArgsINtNtNtNtCsgEmfK2I1SDS_4core4iter6traits7collect12FromIteratorNtNtCslNYArtu3iFV_5alloc6string6StringE9from_iterINtNtNtB16_8adapters3map3MapINtNtNtB23_3vec9into_iter8IntoIterB1Z_ENvYB1Z_INtNtB18_7convert4IntoB1Z_E4intoEEB8_
FN:2206,_RNCINvMsn_NtCs8iksUjoTkmC_15gungraun_runner3apiNtB8_11RawToolArgs18extend_ignore_flagNtNtCslNYArtu3iFV_5alloc6string6StringINtNtNtNtCsgEmfK2I1SDS_4core4iter8adapters3map3MapINtNtNtB1p_3vec9into_iter8IntoIterB1l_ENvYB1l_INtNtB26_7convert4IntoB1l_E4intoEE0Ba_
FN:2206,_RNCINvMsn_NtCs8iksUjoTkmC_15gungraun_runner3apiNtB8_11RawToolArgs18extend_ignore_flagNtNtCslNYArtu3iFV_5alloc6string6StringINtNtNtNtCsgEmfK2I1SDS_4core4iter8adapters3map3MapINtNtNtB26_5array4iter8IntoIterReKj1_ENvYB3g_INtNtB26_7convert4IntoB1l_E4intoEE0Ba_
FN:2206,_RNCINvMsn_NtCs8iksUjoTkmC_15gungraun_runner3apiNtB8_11RawToolArgs18extend_ignore_flagRNtNtCslNYArtu3iFV_5alloc6string6StringINtNtNtCsgEmfK2I1SDS_4core5slice4iter4IterB1m_EE0Ba_
FN:2206,_RNCINvMsn_NtCs8iksUjoTkmC_15gungraun_runner3apiNtB8_11RawToolArgs18extend_ignore_flagRNtNtCslNYArtu3iFV_5alloc6string6StringRAB1m_j1_E0Ba_
FN:2662,_RNCINvNtCs8iksUjoTkmC_15gungraun_runner3api13update_optionINtNtCslNYArtu3iFV_5alloc3vec3VecNtNtBZ_6string6StringEE0B6_
FN:2662,_RNCINvNtCs8iksUjoTkmC_15gungraun_runner3api13update_optionNtB4_10EntryPointE0B6_
FN:2662,_RNCINvNtCs8iksUjoTkmC_15gungraun_runner3api13update_optionNtB4_12OutputFormatE0B6_
FN:2662,_RNCINvNtCs8iksUjoTkmC_15gungraun_runner3api13update_optionNtB4_12ValgrindToolE0B6_
FN:2662,_RNCINvNtCs8iksUjoTkmC_15gungraun_runner3api13update_optionNtB4_16ToolOutputFormatE0B6_
FN:2662,_RNCINvNtCs8iksUjoTkmC_15gungraun_runner3api13update_optionNtB4_20ToolFlamegraphConfigE0B6_
FN:2662,_RNCINvNtCs8iksUjoTkmC_15gungraun_runner3api13update_optionNtB4_20ToolRegressionConfigE0B6_
FN:2662,_RNCINvNtCs8iksUjoTkmC_15gungraun_runner3api13update_optionNtB4_7SandboxE0B6_
FN:2662,_RNCINvNtCs8iksUjoTkmC_15gungraun_runner3api13update_optionNtB4_8ExitWithE0B6_
FN:2662,_RNCINvNtCs8iksUjoTkmC_15gungraun_runner3api13update_optionNtNtCsjrHSEGnQ3l9_3std4path7PathBufE0B6_
FN:2662,_RNCINvNtCs8iksUjoTkmC_15gungraun_runner3api13update_optionbE0B6_
FN:1443,_RNCNCNvMNtCs8iksUjoTkmC_15gungraun_runner3apiNtB6_21BinaryBenchmarkConfig12collect_envs00B8_
FN:2156,_RNCNCNvMsj_NtCs8iksUjoTkmC_15gungraun_runner3apiNtB9_22LibraryBenchmarkConfig12collect_envs00Bb_
FN:1443,_RNCNvMNtCs8iksUjoTkmC_15gungraun_runner3apiNtB4_21BinaryBenchmarkConfig12collect_envs0B6_
FN:2560,_RNCNvMsA_NtCs8iksUjoTkmC_15gungraun_runner3apiNtB7_5Tools6update0B9_
FN:2587,_RNCNvMsA_NtCs8iksUjoTkmC_15gungraun_runner3apiNtB7_5Tools7consume0B9_
FN:2588,_RNCNvMsA_NtCs8iksUjoTkmC_15gungraun_runner3apiNtB7_5Tools7consumes_0B9_
FN:2156,_RNCNvMsj_NtCs8iksUjoTkmC_15gungraun_runner3apiNtB7_22LibraryBenchmarkConfig12collect_envs0B9_
FN:2330,_RNCNvMsp_NtCs8iksUjoTkmC_15gungraun_runner3apiNtB7_5Stdin5apply0B9_
FN:2339,_RNCNvMsp_NtCs8iksUjoTkmC_15gungraun_runner3apiNtB7_5Stdin5applys_0B9_
FN:2452,_RNCNvMsu_NtCs8iksUjoTkmC_15gungraun_runner3apiNtB7_5Stdio5apply0B9_
FN:2460,_RNCNvMsu_NtCs8iksUjoTkmC_15gungraun_runner3apiNtB7_5Stdio5applys_0B9_
FN:1440,_RNvMNtCs8iksUjoTkmC_15gungraun_runner3apiNtB2_21BinaryBenchmarkConfig12collect_envs
FN:1433,_RNvMNtCs8iksUjoTkmC_15gungraun_runner3apiNtB2_21BinaryBenchmarkConfig12resolve_envs
FN:2578,_RNvMsA_NtCs8iksUjoTkmC_15gungraun_runner3apiNtB5_5Tools17update_from_other
FN:2559,_RNvMsA_NtCs8iksUjoTkmC_15gungraun_runner3apiNtB5_5Tools6update
FN:2584,_RNvMsA_NtCs8iksUjoTkmC_15gungraun_runner3apiNtB5_5Tools7consume
FN:2554,_RNvMsA_NtCs8iksUjoTkmC_15gungraun_runner3apiNtB5_5Tools8is_empty
FN:2594,_RNvMsB_NtCs8iksUjoTkmC_15gungraun_runner3apiNtB5_12ValgrindTool2id
FN:1487,_RNvMs_NtCs8iksUjoTkmC_15gungraun_runner3apiNtB4_16CachegrindMetric7to_name
FN:1791,_RNvMsc_NtCs8iksUjoTkmC_15gungraun_runner3apiNtB5_9EventKind7to_name
FN:2153,_RNvMsj_NtCs8iksUjoTkmC_15gungraun_runner3apiNtB5_22LibraryBenchmarkConfig12collect_envs
FN:2146,_RNvMsj_NtCs8iksUjoTkmC_15gungraun_runner3apiNtB5_22LibraryBenchmarkConfig12resolve_envs
FN:2224,_RNvMsn_NtCs8iksUjoTkmC_15gungraun_runner3apiNtB5_11RawToolArgs6update
FN:2229,_RNvMsn_NtCs8iksUjoTkmC_15gungraun_runner3apiNtB5_11RawToolArgs7prepend
FN:2219,_RNvMsn_NtCs8iksUjoTkmC_15gungraun_runner3apiNtB5_11RawToolArgs8is_empty
FN:2317,_RNvMsp_NtCs8iksUjoTkmC_15gungraun_runner3apiNtB5_5Stdin5apply
FN:2434,_RNvMsu_NtCs8iksUjoTkmC_15gungraun_runner3apiNtB5_5Stdio5apply
FN:2534,_RNvMsz_NtCs8iksUjoTkmC_15gungraun_runner3apiNtB5_4Tool6update
FN:1493,_RNvXs0_NtCs8iksUjoTkmC_15gungraun_runner3apiNtB5_16CachegrindMetricNtNtCsgEmfK2I1SDS_4core3fmt7Display3fmt
FN:1550,_RNvXs1_NtCs8iksUjoTkmC_15gungraun_runner3apiNtB5_16CachegrindMetricNtNtNtB7_6runner7metrics11TypeChecker6is_int
FN:1581,_RNvXs1_NtCs8iksUjoTkmC_15gungraun_runner3apiNtB5_16CachegrindMetricNtNtNtB7_6runner7metrics11TypeChecker8is_float
FN:1644,_RNvXs5_NtCs8iksUjoTkmC_15gungraun_runner3apiNtB5_10DhatMetricNtNtCsgEmfK2I1SDS_4core3fmt7Display3fmt
FN:54,_RNvXs5a_NtCs8iksUjoTkmC_15gungraun_runner3apiNtB6_16CachegrindMetricNtNtNtCsgEmfK2I1SDS_4core3str6traits7FromStr8from_str
FN:78,_RNvXs5b_NtCs8iksUjoTkmC_15gungraun_runner3apiNtB6_17CachegrindMetricsNtNtNtCsgEmfK2I1SDS_4core3str6traits7FromStr8from_str
FN:78,_RNvXs5c_NtCs8iksUjoTkmC_15gungraun_runner3apiNtB6_16CallgrindMetricsNtNtNtCsgEmfK2I1SDS_4core3str6traits7FromStr8from_str
FN:54,_RNvXs5d_NtCs8iksUjoTkmC_15gungraun_runner3apiNtB6_10DhatMetricNtNtNtCsgEmfK2I1SDS_4core3str6traits7FromStr8from_str
FN:78,_RNvXs5e_NtCs8iksUjoTkmC_15gungraun_runner3apiNtB6_11DhatMetricsNtNtNtCsgEmfK2I1SDS_4core3str6traits7FromStr8from_str
FN:54,_RNvXs5f_NtCs8iksUjoTkmC_15gungraun_runner3apiNtB6_11ErrorMetricNtNtNtCsgEmfK2I1SDS_4core3str6traits7FromStr8from_str
FN:54,_RNvXs5g_NtCs8iksUjoTkmC_15gungraun_runner3apiNtB6_9EventKindNtNtNtCsgEmfK2I1SDS_4core3str6traits7FromStr8from_str
FN:1689,_RNvXs7_NtCs8iksUjoTkmC_15gungraun_runner3apiNtB5_10DhatMetricNtNtNtB7_6runner7metrics11TypeChecker6is_int
FN:1693,_RNvXs7_NtCs8iksUjoTkmC_15gungraun_runner3apiNtB5_10DhatMetricNtNtNtB7_6runner7metrics11TypeChecker8is_float
FN:2627,_RNvXsC_NtCs8iksUjoTkmC_15gungraun_runner3apiNtB5_12ValgrindToolNtNtCsgEmfK2I1SDS_4core3fmt7Display3fmt
FN:2636,_RNvXsD_NtCs8iksUjoTkmC_15gungraun_runner3apiNtB5_12ValgrindToolNtNtNtCsgEmfK2I1SDS_4core3str6traits7FromStr8from_str
FN:2645,_RNvXsE_NtCs8iksUjoTkmC_15gungraun_runner3apiNtB5_12ValgrindToolINtNtCsgEmfK2I1SDS_4core7convert7TryFromReE8try_from
FN:1726,_RNvXsa_NtCs8iksUjoTkmC_15gungraun_runner3apiNtB5_11ErrorMetricNtNtCsgEmfK2I1SDS_4core3fmt7Display3fmt
FN:1797,_RNvXsd_NtCs8iksUjoTkmC_15gungraun_runner3apiNtB5_9EventKindNtNtCsgEmfK2I1SDS_4core3fmt7Display3fmt
FN:1819,_RNvXse_NtCs8iksUjoTkmC_15gungraun_runner3apiNtB5_9EventKindINtNtCsgEmfK2I1SDS_4core7convert4FromNtB5_16CachegrindMetricE4from
FN:1898,_RNvXsf_NtCs8iksUjoTkmC_15gungraun_runner3apiNtB5_9EventKindNtNtNtB7_6runner7metrics11TypeChecker6is_int
FN:1940,_RNvXsf_NtCs8iksUjoTkmC_15gungraun_runner3apiNtB5_9EventKindNtNtNtB7_6runner7metrics11TypeChecker8is_float
FN:2369,_RNvXss_NtCs8iksUjoTkmC_15gungraun_runner3apiNtB5_5StdinINtNtCsgEmfK2I1SDS_4core7convert4FromRNtNtCsjrHSEGnQ3l9_3std4path7PathBufE4from
FN:2375,_RNvXst_NtCs8iksUjoTkmC_15gungraun_runner3apiNtB5_5StdinINtNtCsgEmfK2I1SDS_4core7convert4FromRNtNtCsjrHSEGnQ3l9_3std4path4PathE4from
FN:2488,_RNvXsw_NtCs8iksUjoTkmC_15gungraun_runner3apiNtB5_5StdioINtNtCsgEmfK2I1SDS_4core7convert4FromRNtNtCsjrHSEGnQ3l9_3std4path7PathBufE4from
FN:2494,_RNvXsx_NtCs8iksUjoTkmC_15gungraun_runner3apiNtB5_5StdioINtNtCsgEmfK2I1SDS_4core7convert4FromRNtNtCsjrHSEGnQ3l9_3std4path4PathE4from
FN:2501,_RNvXsy_NtCs8iksUjoTkmC_15gungraun_runner3apiNtB5_6StreamNtNtCsgEmfK2I1SDS_4core3fmt7Display3fmt
FN:1771,_RNvMsc_NtCs8iksUjoTkmC_15gungraun_runner3apiNtB5_9EventKind10is_derived
FN:2621,_RNvMsB_NtCs8iksUjoTkmC_15gungraun_runner3apiNtB5_12ValgrindTool14has_xleak_file
FN:2616,_RNvMsB_NtCs8iksUjoTkmC_15gungraun_runner3apiNtB5_12ValgrindTool14has_xtree_file
FN:2523,_RINvMsz_NtCs8iksUjoTkmC_15gungraun_runner3apiNtB6_4Tool9with_argsppEB8_
FN:1467,_RNvMs_NtCs8iksUjoTkmC_15gungraun_runner3apiNtB4_16CachegrindMetric10is_derived
FN:1720,_RNvXININtCs8iksUjoTkmC_15gungraun_runner3apis9_0pENtB5_10EntryPointINtNtCsgEmfK2I1SDS_4core7convert4FrompE4fromB7_
FN:1587,_RNvXs2_NtCs8iksUjoTkmC_15gungraun_runner3apiNtB5_17CachegrindMetricsINtNtCsgEmfK2I1SDS_4core7convert4FromNtB5_16CachegrindMetricE4from
FN:1611,_RNvXs3_NtCs8iksUjoTkmC_15gungraun_runner3apiNtB5_16CallgrindMetricsINtNtCsgEmfK2I1SDS_4core7convert4FromNtB5_9EventKindE4from
FN:1638,_RNvXs4_NtCs8iksUjoTkmC_15gungraun_runner3apiNtB5_9DelayKindNtNtCsgEmfK2I1SDS_4core7default7Default7default
FN:1699,_RNvXs8_NtCs8iksUjoTkmC_15gungraun_runner3apiNtB5_11DhatMetricsINtNtCsgEmfK2I1SDS_4core7convert4FromNtB5_10DhatMetricE4from
FN:2163,_RNvXsk_NtCs8iksUjoTkmC_15gungraun_runner3apiNtB5_5LimitINtNtCsgEmfK2I1SDS_4core7convert4FromNtNtNtB7_6runner7metrics6MetricE4from
FN:2172,_RNvXsl_NtCs8iksUjoTkmC_15gungraun_runner3apiNtB5_5LimitINtNtCsgEmfK2I1SDS_4core7convert4FromdE4from
FN:2178,_RNvXsm_NtCs8iksUjoTkmC_15gungraun_runner3apiNtB5_5LimitINtNtCsgEmfK2I1SDS_4core7convert4FromyE4from
FN:2352,_RNvXsq_NtCs8iksUjoTkmC_15gungraun_runner3apiNtB5_5StdinINtNtCsgEmfK2I1SDS_4core7convert4FromNtB5_5StdioE4from
FN:2363,_RNvXsr_NtCs8iksUjoTkmC_15gungraun_runner3apiNtB5_5StdinINtNtCsgEmfK2I1SDS_4core7convert4FromNtNtCsjrHSEGnQ3l9_3std4path7PathBufE4from
FN:2482,_RNvXsv_NtCs8iksUjoTkmC_15gungraun_runner3apiNtB5_5StdioINtNtCsgEmfK2I1SDS_4core7convert4FromNtNtCsjrHSEGnQ3l9_3std4path7PathBufE4from
FN:2608,_RNvMsB_NtCs8iksUjoTkmC_15gungraun_runner3apiNtB5_12ValgrindTool15has_output_file
FN:2199,_RINvMsn_NtCs6wj2z9XdCGO_15gungraun_runner3apiNtB6_11RawToolArgs18extend_ignore_flagReAB1j_j1_ECshmjPteO6TPM_30test_bin_bench_client_requests
FN:2523,_RINvMsz_NtCs6wj2z9XdCGO_15gungraun_runner3apiNtB6_4Tool9with_argsReAB11_j1_ECshmjPteO6TPM_30test_bin_bench_client_requests
FN:2242,_RINvXso_NtCs6wj2z9XdCGO_15gungraun_runner3apiNtB6_11RawToolArgsINtNtNtNtCsgEmfK2I1SDS_4core4iter6traits7collect12FromIteratorReE9from_iterAB1Z_j1_ECshmjPteO6TPM_30test_bin_bench_client_requests
FN:2206,_RNCINvMsn_NtCs6wj2z9XdCGO_15gungraun_runner3apiNtB8_11RawToolArgs18extend_ignore_flagReAB1l_j1_E0CshmjPteO6TPM_30test_bin_bench_client_requests
FN:2207,_RNCINvMsn_NtCs6wj2z9XdCGO_15gungraun_runner3apiNtB8_11RawToolArgs18extend_ignore_flagReAB1l_j1_Es_0CshmjPteO6TPM_30test_bin_bench_client_requests
FN:2199,_RINvMsn_NtCs6wj2z9XdCGO_15gungraun_runner3apiNtB6_11RawToolArgs18extend_ignore_flagReAB1j_j1_ECs2kIrzMO5j5D_20test_bin_bench_paths
FN:2523,_RINvMsz_NtCs6wj2z9XdCGO_15gungraun_runner3apiNtB6_4Tool9with_argsReAB11_j1_ECs2kIrzMO5j5D_20test_bin_bench_paths
FN:2242,_RINvXso_NtCs6wj2z9XdCGO_15gungraun_runner3apiNtB6_11RawToolArgsINtNtNtNtCsgEmfK2I1SDS_4core4iter6traits7collect12FromIteratorReE9from_iterAB1Z_j1_ECs2kIrzMO5j5D_20test_bin_bench_paths
FN:2206,_RNCINvMsn_NtCs6wj2z9XdCGO_15gungraun_runner3apiNtB8_11RawToolArgs18extend_ignore_flagReAB1l_j1_E0Cs2kIrzMO5j5D_20test_bin_bench_paths
FN:2207,_RNCINvMsn_NtCs6wj2z9XdCGO_15gungraun_runner3apiNtB8_11RawToolArgs18extend_ignore_flagReAB1l_j1_Es_0Cs2kIrzMO5j5D_20test_bin_bench_paths
FN:2199,_RINvMsn_NtCs6wj2z9XdCGO_15gungraun_runner3apiNtB6_11RawToolArgs18extend_ignore_flagReAB1j_j1_ECsESj1Ic3GMS_20test_bin_bench_tools
FN:2523,_RINvMsz_NtCs6wj2z9XdCGO_15gungraun_runner3apiNtB6_4Tool9with_argsReAB11_j1_ECsESj1Ic3GMS_20test_bin_bench_tools
FN:2242,_RINvXso_NtCs6wj2z9XdCGO_15gungraun_runner3apiNtB6_11RawToolArgsINtNtNtNtCsgEmfK2I1SDS_4core4iter6traits7collect12FromIteratorReE9from_iterAB1Z_j1_ECsESj1Ic3GMS_20test_bin_bench_tools
FN:2206,_RNCINvMsn_NtCs6wj2z9XdCGO_15gungraun_runner3apiNtB8_11RawToolArgs18extend_ignore_flagReAB1l_j1_E0CsESj1Ic3GMS_20test_bin_bench_tools
FN:2207,_RNCINvMsn_NtCs6wj2z9XdCGO_15gungraun_runner3apiNtB8_11RawToolArgs18extend_ignore_flagReAB1l_j1_Es_0CsESj1Ic3GMS_20test_bin_bench_tools
FN:2207,_RNCINvMsn_NtCs6wj2z9XdCGO_15gungraun_runner3apiNtB8_11RawToolArgs18extend_ignore_flagReAB1l_j1_Es_0Cs6YU0dyphpgt_23test_lib_bench_all_args
FN:2207,_RNCINvMsn_NtCs6wj2z9XdCGO_15gungraun_runner3apiNtB8_11RawToolArgs18extend_ignore_flagReAB1l_j2_Es_0Cs6YU0dyphpgt_23test_lib_bench_all_args
FN:2207,_RNCINvMsn_NtCs6wj2z9XdCGO_15gungraun_runner3apiNtB8_11RawToolArgs18extend_ignore_flagReAB1l_j4_Es_0Cs6YU0dyphpgt_23test_lib_bench_all_args
FN:2207,_RNCINvMsn_NtCs6wj2z9XdCGO_15gungraun_runner3apiNtB8_11RawToolArgs18extend_ignore_flagReAB1l_j5_Es_0Cs6YU0dyphpgt_23test_lib_bench_all_args
FN:2207,_RNCINvMsn_NtCs6wj2z9XdCGO_15gungraun_runner3apiNtB8_11RawToolArgs18extend_ignore_flagReAB1l_j6_Es_0Cs6YU0dyphpgt_23test_lib_bench_all_args
FN:2199,_RINvMsn_NtCs6wj2z9XdCGO_15gungraun_runner3apiNtB6_11RawToolArgs18extend_ignore_flagReAB1j_j1_ECs6YU0dyphpgt_23test_lib_bench_all_args
FN:2199,_RINvMsn_NtCs6wj2z9XdCGO_15gungraun_runner3apiNtB6_11RawToolArgs18extend_ignore_flagReAB1j_j2_ECs6YU0dyphpgt_23test_lib_bench_all_args
FN:2199,_RINvMsn_NtCs6wj2z9XdCGO_15gungraun_runner3apiNtB6_11RawToolArgs18extend_ignore_flagReAB1j_j4_ECs6YU0dyphpgt_23test_lib_bench_all_args
FN:2199,_RINvMsn_NtCs6wj2z9XdCGO_15gungraun_runner3apiNtB6_11RawToolArgs18extend_ignore_flagReAB1j_j5_ECs6YU0dyphpgt_23test_lib_bench_all_args
FN:2199,_RINvMsn_NtCs6wj2z9XdCGO_15gungraun_runner3apiNtB6_11RawToolArgs18extend_ignore_flagReAB1j_j6_ECs6YU0dyphpgt_23test_lib_bench_all_args
FN:2523,_RINvMsz_NtCs6wj2z9XdCGO_15gungraun_runner3apiNtB6_4Tool9with_argsReAB11_j1_ECs6YU0dyphpgt_23test_lib_bench_all_args
FN:2523,_RINvMsz_NtCs6wj2z9XdCGO_15gungraun_runner3apiNtB6_4Tool9with_argsReAB11_j2_ECs6YU0dyphpgt_23test_lib_bench_all_args
FN:2523,_RINvMsz_NtCs6wj2z9XdCGO_15gungraun_runner3apiNtB6_4Tool9with_argsReAB11_j4_ECs6YU0dyphpgt_23test_lib_bench_all_args
FN:2523,_RINvMsz_NtCs6wj2z9XdCGO_15gungraun_runner3apiNtB6_4Tool9with_argsReAB11_j5_ECs6YU0dyphpgt_23test_lib_bench_all_args
FN:2523,_RINvMsz_NtCs6wj2z9XdCGO_15gungraun_runner3apiNtB6_4Tool9with_argsReAB11_j6_ECs6YU0dyphpgt_23test_lib_bench_all_args
FN:2242,_RINvXso_NtCs6wj2z9XdCGO_15gungraun_runner3apiNtB6_11RawToolArgsINtNtNtNtCsgEmfK2I1SDS_4core4iter6traits7collect12FromIteratorReE9from_iterAB1Z_j1_ECs6YU0dyphpgt_23test_lib_bench_all_args
FN:2242,_RINvXso_NtCs6wj2z9XdCGO_15gungraun_runner3apiNtB6_11RawToolArgsINtNtNtNtCsgEmfK2I1SDS_4core4iter6traits7collect12FromIteratorReE9from_iterAB1Z_j2_ECs6YU0dyphpgt_23test_lib_bench_all_args
FN:2242,_RINvXso_NtCs6wj2z9XdCGO_15gungraun_runner3apiNtB6_11RawToolArgsINtNtNtNtCsgEmfK2I1SDS_4core4iter6traits7collect12FromIteratorReE9from_iterAB1Z_j4_ECs6YU0dyphpgt_23test_lib_bench_all_args
FN:2242,_RINvXso_NtCs6wj2z9XdCGO_15gungraun_runner3apiNtB6_11RawToolArgsINtNtNtNtCsgEmfK2I1SDS_4core4iter6traits7collect12FromIteratorReE9from_iterAB1Z_j5_ECs6YU0dyphpgt_23test_lib_bench_all_args
FN:2242,_RINvXso_NtCs6wj2z9XdCGO_15gungraun_runner3apiNtB6_11RawToolArgsINtNtNtNtCsgEmfK2I1SDS_4core4iter6traits7collect12FromIteratorReE9from_iterAB1Z_j6_ECs6YU0dyphpgt_23test_lib_bench_all_args
FN:2206,_RNCINvMsn_NtCs6wj2z9XdCGO_15gungraun_runner3apiNtB8_11RawToolArgs18extend_ignore_flagReAB1l_j1_E0Cs6YU0dyphpgt_23test_lib_bench_all_args
FN:2206,_RNCINvMsn_NtCs6wj2z9XdCGO_15gungraun_runner3apiNtB8_11RawToolArgs18extend_ignore_flagReAB1l_j2_E0Cs6YU0dyphpgt_23test_lib_bench_all_args
FN:2206,_RNCINvMsn_NtCs6wj2z9XdCGO_15gungraun_runner3apiNtB8_11RawToolArgs18extend_ignore_flagReAB1l_j4_E0Cs6YU0dyphpgt_23test_lib_bench_all_args
FN:2206,_RNCINvMsn_NtCs6wj2z9XdCGO_15gungraun_runner3apiNtB8_11RawToolArgs18extend_ignore_flagReAB1l_j5_E0Cs6YU0dyphpgt_23test_lib_bench_all_args
FN:2206,_RNCINvMsn_NtCs6wj2z9XdCGO_15gungraun_runner3apiNtB8_11RawToolArgs18extend_ignore_flagReAB1l_j6_E0Cs6YU0dyphpgt_23test_lib_bench_all_args
FN:2199,_RINvMsn_NtCs6wj2z9XdCGO_15gungraun_runner3apiNtB6_11RawToolArgs18extend_ignore_flagReAB1j_j1_ECs7z5v2rxpQZL_24test_lib_bench_cache_sim
FN:2523,_RINvMsz_NtCs6wj2z9XdCGO_15gungraun_runner3apiNtB6_4Tool9with_argsReAB11_j1_ECs7z5v2rxpQZL_24test_lib_bench_cache_sim
FN:2242,_RINvXso_NtCs6wj2z9XdCGO_15gungraun_runner3apiNtB6_11RawToolArgsINtNtNtNtCsgEmfK2I1SDS_4core4iter6traits7collect12FromIteratorReE9from_iterAB1Z_j1_ECs7z5v2rxpQZL_24test_lib_bench_cache_sim
FN:2206,_RNCINvMsn_NtCs6wj2z9XdCGO_15gungraun_runner3apiNtB8_11RawToolArgs18extend_ignore_flagReAB1l_j1_E0Cs7z5v2rxpQZL_24test_lib_bench_cache_sim
FN:2207,_RNCINvMsn_NtCs6wj2z9XdCGO_15gungraun_runner3apiNtB8_11RawToolArgs18extend_ignore_flagReAB1l_j1_Es_0Cs7z5v2rxpQZL_24test_lib_bench_cache_sim
FN:2199,_RINvMsn_NtCs6wj2z9XdCGO_15gungraun_runner3apiNtB6_11RawToolArgs18extend_ignore_flagReAB1j_j1_ECs8yiUObqj2IT_25test_lib_bench_cachegrind
FN:2523,_RINvMsz_NtCs6wj2z9XdCGO_15gungraun_runner3apiNtB6_4Tool9with_argsReAB11_j1_ECs8yiUObqj2IT_25test_lib_bench_cachegrind
FN:2242,_RINvXso_NtCs6wj2z9XdCGO_15gungraun_runner3apiNtB6_11RawToolArgsINtNtNtNtCsgEmfK2I1SDS_4core4iter6traits7collect12FromIteratorReE9from_iterAB1Z_j1_ECs8yiUObqj2IT_25test_lib_bench_cachegrind
FN:2206,_RNCINvMsn_NtCs6wj2z9XdCGO_15gungraun_runner3apiNtB8_11RawToolArgs18extend_ignore_flagReAB1l_j1_E0Cs8yiUObqj2IT_25test_lib_bench_cachegrind
FN:2207,_RNCINvMsn_NtCs6wj2z9XdCGO_15gungraun_runner3apiNtB8_11RawToolArgs18extend_ignore_flagReAB1l_j1_Es_0Cs8yiUObqj2IT_25test_lib_bench_cachegrind
FN:2199,_RINvMsn_NtCs6wj2z9XdCGO_15gungraun_runner3apiNtB6_11RawToolArgs18extend_ignore_flagReAB1j_j1_ECsdKf70vbdxnR_25test_lib_bench_cachegrind
FN:2523,_RINvMsz_NtCs6wj2z9XdCGO_15gungraun_runner3apiNtB6_4Tool9with_argsReAB11_j1_ECsdKf70vbdxnR_25test_lib_bench_cachegrind
FN:2242,_RINvXso_NtCs6wj2z9XdCGO_15gungraun_runner3apiNtB6_11RawToolArgsINtNtNtNtCsgEmfK2I1SDS_4core4iter6traits7collect12FromIteratorReE9from_iterAB1Z_j1_ECsdKf70vbdxnR_25test_lib_bench_cachegrind
FN:2206,_RNCINvMsn_NtCs6wj2z9XdCGO_15gungraun_runner3apiNtB8_11RawToolArgs18extend_ignore_flagReAB1l_j1_E0CsdKf70vbdxnR_25test_lib_bench_cachegrind
FN:2207,_RNCINvMsn_NtCs6wj2z9XdCGO_15gungraun_runner3apiNtB8_11RawToolArgs18extend_ignore_flagReAB1l_j1_Es_0CsdKf70vbdxnR_25test_lib_bench_cachegrind
FN:2199,_RINvMsn_NtCs6wj2z9XdCGO_15gungraun_runner3apiNtB6_11RawToolArgs18extend_ignore_flagReAB1j_j1_ECsjxIwVVyS6zo_27test_lib_bench_default_tool
FN:2199,_RINvMsn_NtCs6wj2z9XdCGO_15gungraun_runner3apiNtB6_11RawToolArgs18extend_ignore_flagReAB1j_j2_ECsjxIwVVyS6zo_27test_lib_bench_default_tool
FN:2523,_RINvMsz_NtCs6wj2z9XdCGO_15gungraun_runner3apiNtB6_4Tool9with_argsReAB11_j1_ECsjxIwVVyS6zo_27test_lib_bench_default_tool
FN:2523,_RINvMsz_NtCs6wj2z9XdCGO_15gungraun_runner3apiNtB6_4Tool9with_argsReAB11_j2_ECsjxIwVVyS6zo_27test_lib_bench_default_tool
FN:2242,_RINvXso_NtCs6wj2z9XdCGO_15gungraun_runner3apiNtB6_11RawToolArgsINtNtNtNtCsgEmfK2I1SDS_4core4iter6traits7collect12FromIteratorReE9from_iterAB1Z_j1_ECsjxIwVVyS6zo_27test_lib_bench_default_tool
FN:2242,_RINvXso_NtCs6wj2z9XdCGO_15gungraun_runner3apiNtB6_11RawToolArgsINtNtNtNtCsgEmfK2I1SDS_4core4iter6traits7collect12FromIteratorReE9from_iterAB1Z_j2_ECsjxIwVVyS6zo_27test_lib_bench_default_tool
FN:2206,_RNCINvMsn_NtCs6wj2z9XdCGO_15gungraun_runner3apiNtB8_11RawToolArgs18extend_ignore_flagReAB1l_j1_E0CsjxIwVVyS6zo_27test_lib_bench_default_tool
FN:2206,_RNCINvMsn_NtCs6wj2z9XdCGO_15gungraun_runner3apiNtB8_11RawToolArgs18extend_ignore_flagReAB1l_j2_E0CsjxIwVVyS6zo_27test_lib_bench_default_tool
FN:2207,_RNCINvMsn_NtCs6wj2z9XdCGO_15gungraun_runner3apiNtB8_11RawToolArgs18extend_ignore_flagReAB1l_j1_Es_0CsjxIwVVyS6zo_27test_lib_bench_default_tool
FN:2207,_RNCINvMsn_NtCs6wj2z9XdCGO_15gungraun_runner3apiNtB8_11RawToolArgs18extend_ignore_flagReAB1l_j2_Es_0CsjxIwVVyS6zo_27test_lib_bench_default_tool
FN:2199,_RINvMsn_NtCs6wj2z9XdCGO_15gungraun_runner3apiNtB6_11RawToolArgs18extend_ignore_flagReAB1j_j1_ECs5CucsM3aLVz_19test_lib_bench_dhat
FN:2523,_RINvMsz_NtCs6wj2z9XdCGO_15gungraun_runner3apiNtB6_4Tool9with_argsReAB11_j1_ECs5CucsM3aLVz_19test_lib_bench_dhat
FN:2242,_RINvXso_NtCs6wj2z9XdCGO_15gungraun_runner3apiNtB6_11RawToolArgsINtNtNtNtCsgEmfK2I1SDS_4core4iter6traits7collect12FromIteratorReE9from_iterAB1Z_j1_ECs5CucsM3aLVz_19test_lib_bench_dhat
FN:2206,_RNCINvMsn_NtCs6wj2z9XdCGO_15gungraun_runner3apiNtB8_11RawToolArgs18extend_ignore_flagReAB1l_j1_E0Cs5CucsM3aLVz_19test_lib_bench_dhat
FN:2207,_RNCINvMsn_NtCs6wj2z9XdCGO_15gungraun_runner3apiNtB8_11RawToolArgs18extend_ignore_flagReAB1l_j1_Es_0Cs5CucsM3aLVz_19test_lib_bench_dhat
FN:1699,_RNvXs8_NtCs6wj2z9XdCGO_15gungraun_runner3apiNtB5_11DhatMetricsINtNtCsgEmfK2I1SDS_4core7convert4FromNtB5_10DhatMetricE4from
FN:2178,_RNvXsm_NtCs6wj2z9XdCGO_15gungraun_runner3apiNtB5_5LimitINtNtCsgEmfK2I1SDS_4core7convert4FromyE4from
FN:1720,_RNvXs9_NtCs6wj2z9XdCGO_15gungraun_runner3apiNtB5_10EntryPointINtNtCsgEmfK2I1SDS_4core7convert4FromReE4fromCs1lw07lG5UE3_26test_lib_bench_entry_point
FN:2207,_RNCINvMsn_NtCs6wj2z9XdCGO_15gungraun_runner3apiNtB8_11RawToolArgs18extend_ignore_flagReAB1l_j1_Es_0Cs7pdO8TbtBJf_28test_lib_bench_output_format
FN:2207,_RNCINvMsn_NtCs6wj2z9XdCGO_15gungraun_runner3apiNtB8_11RawToolArgs18extend_ignore_flagReAB1l_j5_Es_0Cs7pdO8TbtBJf_28test_lib_bench_output_format
FN:2199,_RINvMsn_NtCs6wj2z9XdCGO_15gungraun_runner3apiNtB6_11RawToolArgs18extend_ignore_flagReAB1j_j1_ECs7pdO8TbtBJf_28test_lib_bench_output_format
FN:2199,_RINvMsn_NtCs6wj2z9XdCGO_15gungraun_runner3apiNtB6_11RawToolArgs18extend_ignore_flagReAB1j_j5_ECs7pdO8TbtBJf_28test_lib_bench_output_format
FN:2523,_RINvMsz_NtCs6wj2z9XdCGO_15gungraun_runner3apiNtB6_4Tool9with_argsReAB11_j1_ECs7pdO8TbtBJf_28test_lib_bench_output_format
FN:2523,_RINvMsz_NtCs6wj2z9XdCGO_15gungraun_runner3apiNtB6_4Tool9with_argsReAB11_j5_ECs7pdO8TbtBJf_28test_lib_bench_output_format
FN:2242,_RINvXso_NtCs6wj2z9XdCGO_15gungraun_runner3apiNtB6_11RawToolArgsINtNtNtNtCsgEmfK2I1SDS_4core4iter6traits7collect12FromIteratorReE9from_iterAB1Z_j1_ECs7pdO8TbtBJf_28test_lib_bench_output_format
FN:2242,_RINvXso_NtCs6wj2z9XdCGO_15gungraun_runner3apiNtB6_11RawToolArgsINtNtNtNtCsgEmfK2I1SDS_4core4iter6traits7collect12FromIteratorReE9from_iterAB1Z_j5_ECs7pdO8TbtBJf_28test_lib_bench_output_format
FN:2206,_RNCINvMsn_NtCs6wj2z9XdCGO_15gungraun_runner3apiNtB8_11RawToolArgs18extend_ignore_flagReAB1l_j1_E0Cs7pdO8TbtBJf_28test_lib_bench_output_format
FN:2206,_RNCINvMsn_NtCs6wj2z9XdCGO_15gungraun_runner3apiNtB8_11RawToolArgs18extend_ignore_flagReAB1l_j5_E0Cs7pdO8TbtBJf_28test_lib_bench_output_format
FN:1587,_RNvXs2_NtCs6wj2z9XdCGO_15gungraun_runner3apiNtB5_17CachegrindMetricsINtNtCsgEmfK2I1SDS_4core7convert4FromNtB5_16CachegrindMetricE4from
FN:2199,_RINvMsn_NtCs6wj2z9XdCGO_15gungraun_runner3apiNtB6_11RawToolArgs18extend_ignore_flagReAB1j_j2_ECs4TwBZiENj7q_36test_lib_bench_output_format_threads
FN:2523,_RINvMsz_NtCs6wj2z9XdCGO_15gungraun_runner3apiNtB6_4Tool9with_argsReAB11_j2_ECs4TwBZiENj7q_36test_lib_bench_output_format_threads
FN:2242,_RINvXso_NtCs6wj2z9XdCGO_15gungraun_runner3apiNtB6_11RawToolArgsINtNtNtNtCsgEmfK2I1SDS_4core4iter6traits7collect12FromIteratorReE9from_iterAB1Z_j2_ECs4TwBZiENj7q_36test_lib_bench_output_format_threads
FN:2206,_RNCINvMsn_NtCs6wj2z9XdCGO_15gungraun_runner3apiNtB8_11RawToolArgs18extend_ignore_flagReAB1l_j2_E0Cs4TwBZiENj7q_36test_lib_bench_output_format_threads
FN:2207,_RNCINvMsn_NtCs6wj2z9XdCGO_15gungraun_runner3apiNtB8_11RawToolArgs18extend_ignore_flagReAB1l_j2_Es_0Cs4TwBZiENj7q_36test_lib_bench_output_format_threads
FN:2199,_RINvMsn_NtCs6wj2z9XdCGO_15gungraun_runner3apiNtB6_11RawToolArgs18extend_ignore_flagReAB1j_j1_ECs3GkULFhPTl3_20test_lib_bench_parts
FN:2523,_RINvMsz_NtCs6wj2z9XdCGO_15gungraun_runner3apiNtB6_4Tool9with_argsReAB11_j1_ECs3GkULFhPTl3_20test_lib_bench_parts
FN:2242,_RINvXso_NtCs6wj2z9XdCGO_15gungraun_runner3apiNtB6_11RawToolArgsINtNtNtNtCsgEmfK2I1SDS_4core4iter6traits7collect12FromIteratorReE9from_iterAB1Z_j1_ECs3GkULFhPTl3_20test_lib_bench_parts
FN:2206,_RNCINvMsn_NtCs6wj2z9XdCGO_15gungraun_runner3apiNtB8_11RawToolArgs18extend_ignore_flagReAB1l_j1_E0Cs3GkULFhPTl3_20test_lib_bench_parts
FN:2207,_RNCINvMsn_NtCs6wj2z9XdCGO_15gungraun_runner3apiNtB8_11RawToolArgs18extend_ignore_flagReAB1l_j1_Es_0Cs3GkULFhPTl3_20test_lib_bench_parts
FN:2199,_RINvMsn_NtCs6wj2z9XdCGO_15gungraun_runner3apiNtB6_11RawToolArgs18extend_ignore_flagReAB1j_j1_ECsdx5ekqyKOyr_39test_lib_bench_readme_example_fibonacci
FN:2523,_RINvMsz_NtCs6wj2z9XdCGO_15gungraun_runner3apiNtB6_4Tool9with_argsReAB11_j1_ECsdx5ekqyKOyr_39test_lib_bench_readme_example_fibonacci
FN:2242,_RINvXso_NtCs6wj2z9XdCGO_15gungraun_runner3apiNtB6_11RawToolArgsINtNtNtNtCsgEmfK2I1SDS_4core4iter6traits7collect12FromIteratorReE9from_iterAB1Z_j1_ECsdx5ekqyKOyr_39test_lib_bench_readme_example_fibonacci
FN:2206,_RNCINvMsn_NtCs6wj2z9XdCGO_15gungraun_runner3apiNtB8_11RawToolArgs18extend_ignore_flagReAB1l_j1_E0Csdx5ekqyKOyr_39test_lib_bench_readme_example_fibonacci
FN:2207,_RNCINvMsn_NtCs6wj2z9XdCGO_15gungraun_runner3apiNtB8_11RawToolArgs18extend_ignore_flagReAB1l_j1_Es_0Csdx5ekqyKOyr_39test_lib_bench_readme_example_fibonacci
FN:2199,_RINvMsn_NtCs6wj2z9XdCGO_15gungraun_runner3apiNtB6_11RawToolArgs18extend_ignore_flagReAB1j_j1_ECsDX4vT8K5ZE_22test_lib_bench_threads
FN:2199,_RINvMsn_NtCs6wj2z9XdCGO_15gungraun_runner3apiNtB6_11RawToolArgs18extend_ignore_flagReAB1j_j2_ECsDX4vT8K5ZE_22test_lib_bench_threads
FN:2523,_RINvMsz_NtCs6wj2z9XdCGO_15gungraun_runner3apiNtB6_4Tool9with_argsReAB11_j1_ECsDX4vT8K5ZE_22test_lib_bench_threads
FN:2523,_RINvMsz_NtCs6wj2z9XdCGO_15gungraun_runner3apiNtB6_4Tool9with_argsReAB11_j2_ECsDX4vT8K5ZE_22test_lib_bench_threads
FN:2242,_RINvXso_NtCs6wj2z9XdCGO_15gungraun_runner3apiNtB6_11RawToolArgsINtNtNtNtCsgEmfK2I1SDS_4core4iter6traits7collect12FromIteratorReE9from_iterAB1Z_j1_ECsDX4vT8K5ZE_22test_lib_bench_threads
FN:2242,_RINvXso_NtCs6wj2z9XdCGO_15gungraun_runner3apiNtB6_11RawToolArgsINtNtNtNtCsgEmfK2I1SDS_4core4iter6traits7collect12FromIteratorReE9from_iterAB1Z_j2_ECsDX4vT8K5ZE_22test_lib_bench_threads
FN:2206,_RNCINvMsn_NtCs6wj2z9XdCGO_15gungraun_runner3apiNtB8_11RawToolArgs18extend_ignore_flagReAB1l_j1_E0CsDX4vT8K5ZE_22test_lib_bench_threads
FN:2206,_RNCINvMsn_NtCs6wj2z9XdCGO_15gungraun_runner3apiNtB8_11RawToolArgs18extend_ignore_flagReAB1l_j2_E0CsDX4vT8K5ZE_22test_lib_bench_threads
FN:2207,_RNCINvMsn_NtCs6wj2z9XdCGO_15gungraun_runner3apiNtB8_11RawToolArgs18extend_ignore_flagReAB1l_j1_Es_0CsDX4vT8K5ZE_22test_lib_bench_threads
FN:2207,_RNCINvMsn_NtCs6wj2z9XdCGO_15gungraun_runner3apiNtB8_11RawToolArgs18extend_ignore_flagReAB1l_j2_Es_0CsDX4vT8K5ZE_22test_lib_bench_threads
FN:2207,_RNCINvMsn_NtCs6wj2z9XdCGO_15gungraun_runner3apiNtB8_11RawToolArgs18extend_ignore_flagReAB1l_j1_Es_0Cs9gS9LZhWzrN_29test_lib_bench_threads_nested
FN:2199,_RINvMsn_NtCs6wj2z9XdCGO_15gungraun_runner3apiNtB6_11RawToolArgs18extend_ignore_flagReAB1j_j1_ECs9gS9LZhWzrN_29test_lib_bench_threads_nested
FN:2523,_RINvMsz_NtCs6wj2z9XdCGO_15gungraun_runner3apiNtB6_4Tool9with_argsReAB11_j1_ECs9gS9LZhWzrN_29test_lib_bench_threads_nested
FN:2242,_RINvXso_NtCs6wj2z9XdCGO_15gungraun_runner3apiNtB6_11RawToolArgsINtNtNtNtCsgEmfK2I1SDS_4core4iter6traits7collect12FromIteratorReE9from_iterAB1Z_j1_ECs9gS9LZhWzrN_29test_lib_bench_threads_nested
FN:2206,_RNCINvMsn_NtCs6wj2z9XdCGO_15gungraun_runner3apiNtB8_11RawToolArgs18extend_ignore_flagReAB1l_j1_E0Cs9gS9LZhWzrN_29test_lib_bench_threads_nested
FN:2199,_RINvMsn_NtCs6wj2z9XdCGO_15gungraun_runner3apiNtB6_11RawToolArgs18extend_ignore_flagReAB1j_j1_ECs9UO289xOOpF_20test_lib_bench_tools
FN:2199,_RINvMsn_NtCs6wj2z9XdCGO_15gungraun_runner3apiNtB6_11RawToolArgs18extend_ignore_flagReAB1j_j4_ECs9UO289xOOpF_20test_lib_bench_tools
FN:2523,_RINvMsz_NtCs6wj2z9XdCGO_15gungraun_runner3apiNtB6_4Tool9with_argsReAB11_j1_ECs9UO289xOOpF_20test_lib_bench_tools
FN:2523,_RINvMsz_NtCs6wj2z9XdCGO_15gungraun_runner3apiNtB6_4Tool9with_argsReAB11_j4_ECs9UO289xOOpF_20test_lib_bench_tools
FN:2242,_RINvXso_NtCs6wj2z9XdCGO_15gungraun_runner3apiNtB6_11RawToolArgsINtNtNtNtCsgEmfK2I1SDS_4core4iter6traits7collect12FromIteratorReE9from_iterAB1Z_j1_ECs9UO289xOOpF_20test_lib_bench_tools
FN:2242,_RINvXso_NtCs6wj2z9XdCGO_15gungraun_runner3apiNtB6_11RawToolArgsINtNtNtNtCsgEmfK2I1SDS_4core4iter6traits7collect12FromIteratorReE9from_iterAB1Z_j4_ECs9UO289xOOpF_20test_lib_bench_tools
FN:2206,_RNCINvMsn_NtCs6wj2z9XdCGO_15gungraun_runner3apiNtB8_11RawToolArgs18extend_ignore_flagReAB1l_j1_E0Cs9UO289xOOpF_20test_lib_bench_tools
FN:2206,_RNCINvMsn_NtCs6wj2z9XdCGO_15gungraun_runner3apiNtB8_11RawToolArgs18extend_ignore_flagReAB1l_j4_E0Cs9UO289xOOpF_20test_lib_bench_tools
FN:2207,_RNCINvMsn_NtCs6wj2z9XdCGO_15gungraun_runner3apiNtB8_11RawToolArgs18extend_ignore_flagReAB1l_j1_Es_0Cs9UO289xOOpF_20test_lib_bench_tools
FN:2207,_RNCINvMsn_NtCs6wj2z9XdCGO_15gungraun_runner3apiNtB8_11RawToolArgs18extend_ignore_flagReAB1l_j4_Es_0Cs9UO289xOOpF_20test_lib_bench_tools
FN:2199,_RINvMsn_NtCs6wj2z9XdCGO_15gungraun_runner3apiNtB6_11RawToolArgs18extend_ignore_flagReAB1j_j1_ECs5GZ1064gFxY_20test_lib_bench_xtree
FN:2199,_RINvMsn_NtCs6wj2z9XdCGO_15gungraun_runner3apiNtB6_11RawToolArgs18extend_ignore_flagReAB1j_j2_ECs5GZ1064gFxY_20test_lib_bench_xtree
FN:2199,_RINvMsn_NtCs6wj2z9XdCGO_15gungraun_runner3apiNtB6_11RawToolArgs18extend_ignore_flagReAB1j_j3_ECs5GZ1064gFxY_20test_lib_bench_xtree
FN:2523,_RINvMsz_NtCs6wj2z9XdCGO_15gungraun_runner3apiNtB6_4Tool9with_argsReAB11_j1_ECs5GZ1064gFxY_20test_lib_bench_xtree
FN:2523,_RINvMsz_NtCs6wj2z9XdCGO_15gungraun_runner3apiNtB6_4Tool9with_argsReAB11_j2_ECs5GZ1064gFxY_20test_lib_bench_xtree
FN:2523,_RINvMsz_NtCs6wj2z9XdCGO_15gungraun_runner3apiNtB6_4Tool9with_argsReAB11_j3_ECs5GZ1064gFxY_20test_lib_bench_xtree
FN:2242,_RINvXso_NtCs6wj2z9XdCGO_15gungraun_runner3apiNtB6_11RawToolArgsINtNtNtNtCsgEmfK2I1SDS_4core4iter6traits7collect12FromIteratorReE9from_iterAB1Z_j1_ECs5GZ1064gFxY_20test_lib_bench_xtree
FN:2242,_RINvXso_NtCs6wj2z9XdCGO_15gungraun_runner3apiNtB6_11RawToolArgsINtNtNtNtCsgEmfK2I1SDS_4core4iter6traits7collect12FromIteratorReE9from_iterAB1Z_j2_ECs5GZ1064gFxY_20test_lib_bench_xtree
FN:2242,_RINvXso_NtCs6wj2z9XdCGO_15gungraun_runner3apiNtB6_11RawToolArgsINtNtNtNtCsgEmfK2I1SDS_4core4iter6traits7collect12FromIteratorReE9from_iterAB1Z_j3_ECs5GZ1064gFxY_20test_lib_bench_xtree
FN:2206,_RNCINvMsn_NtCs6wj2z9XdCGO_15gungraun_runner3apiNtB8_11RawToolArgs18extend_ignore_flagReAB1l_j1_E0Cs5GZ1064gFxY_20test_lib_bench_xtree
FN:2206,_RNCINvMsn_NtCs6wj2z9XdCGO_15gungraun_runner3apiNtB8_11RawToolArgs18extend_ignore_flagReAB1l_j2_E0Cs5GZ1064gFxY_20test_lib_bench_xtree
FN:2206,_RNCINvMsn_NtCs6wj2z9XdCGO_15gungraun_runner3apiNtB8_11RawToolArgs18extend_ignore_flagReAB1l_j3_E0Cs5GZ1064gFxY_20test_lib_bench_xtree
FN:2207,_RNCINvMsn_NtCs6wj2z9XdCGO_15gungraun_runner3apiNtB8_11RawToolArgs18extend_ignore_flagReAB1l_j1_Es_0Cs5GZ1064gFxY_20test_lib_bench_xtree
FN:2207,_RNCINvMsn_NtCs6wj2z9XdCGO_15gungraun_runner3apiNtB8_11RawToolArgs18extend_ignore_flagReAB1l_j2_Es_0Cs5GZ1064gFxY_20test_lib_bench_xtree
FN:2207,_RNCINvMsn_NtCs6wj2z9XdCGO_15gungraun_runner3apiNtB8_11RawToolArgs18extend_ignore_flagReAB1l_j3_Es_0Cs5GZ1064gFxY_20test_lib_bench_xtree
FNDA:0,_RNvMsn_NtCs6wj2z9XdCGO_15gungraun_runner3apiNtB5_11RawToolArgs8as_slice
FNDA:0,_RNvMsB_NtCs6wj2z9XdCGO_15gungraun_runner3apiNtB5_12ValgrindTool15has_output_file
FNDA:0,_RNvXsg_NtCs6wj2z9XdCGO_15gungraun_runner3apiINtNtCslfzsRR9BCUr_8indexmap3set8IndexSetNtB5_16CachegrindMetricEINtNtCsgEmfK2I1SDS_4core7convert4FromNtB5_17CachegrindMetricsE4from
FNDA:0,_RNvXsh_NtCs6wj2z9XdCGO_15gungraun_runner3apiINtNtCslfzsRR9BCUr_8indexmap3set8IndexSetNtB5_10DhatMetricEINtNtCsgEmfK2I1SDS_4core7convert4FromNtB5_11DhatMetricsE4from
FNDA:0,_RNvXsi_NtCs6wj2z9XdCGO_15gungraun_runner3apiINtNtCslfzsRR9BCUr_8indexmap3set8IndexSetNtB5_9EventKindEINtNtCsgEmfK2I1SDS_4core7convert4FromNtB5_16CallgrindMetricsE4from
FNDA:0,_RNCINvMsn_NtCs6wj2z9XdCGO_15gungraun_runner3apiNtB8_11RawToolArgs18extend_ignore_flagNtNtCslNYArtu3iFV_5alloc6string6StringINtNtNtNtCsgEmfK2I1SDS_4core4iter8adapters3map3MapINtNtNtB1p_3vec9into_iter8IntoIterB1l_ENvYB1l_INtNtB26_7convert4IntoB1l_E4intoEEs_0Ba_
FNDA:0,_RNCINvMsn_NtCs6wj2z9XdCGO_15gungraun_runner3apiNtB8_11RawToolArgs18extend_ignore_flagNtNtCslNYArtu3iFV_5alloc6string6StringINtNtNtNtCsgEmfK2I1SDS_4core4iter8adapters3map3MapINtNtNtB26_5array4iter8IntoIterReKj1_ENvYB3g_INtNtB26_7convert4IntoB1l_E4intoEEs_0Ba_
FNDA:144,_RNCINvMsn_NtCs6wj2z9XdCGO_15gungraun_runner3apiNtB8_11RawToolArgs18extend_ignore_flagRNtNtCslNYArtu3iFV_5alloc6string6StringINtNtNtCsgEmfK2I1SDS_4core5slice4iter4IterB1m_EEs_0Ba_
FNDA:0,_RNCINvMsn_NtCs6wj2z9XdCGO_15gungraun_runner3apiNtB8_11RawToolArgs18extend_ignore_flagRNtNtCslNYArtu3iFV_5alloc6string6StringRAB1m_j1_Es_0Ba_
FNDA:0,_RNvMsB_NtCs6wj2z9XdCGO_15gungraun_runner3apiNtB5_12ValgrindTool14has_xleak_file
FNDA:0,_RNvMsB_NtCs6wj2z9XdCGO_15gungraun_runner3apiNtB5_12ValgrindTool14has_xtree_file
FNDA:0,_RINvMNtCs6wj2z9XdCGO_15gungraun_runner3apiNtB3_21BinaryBenchmarkConfig15update_from_allAINtNtCsgEmfK2I1SDS_4core6option6OptionRBE_Ej1_EB5_
FNDA:0,_RINvMNtCs6wj2z9XdCGO_15gungraun_runner3apiNtB3_21BinaryBenchmarkConfig15update_from_allAINtNtCsgEmfK2I1SDS_4core6option6OptionRBE_Ej3_EB5_
FNDA:0,_RINvMsA_NtCs6wj2z9XdCGO_15gungraun_runner3apiNtB6_5Tools10update_allINtNtNtNtCsgEmfK2I1SDS_4core4iter8adapters6cloned6ClonedINtNtNtB1d_5slice4iter4IterNtB6_4ToolEEEB8_
FNDA:0,_RINvMsj_NtCs6wj2z9XdCGO_15gungraun_runner3apiNtB6_22LibraryBenchmarkConfig15update_from_allAINtNtCsgEmfK2I1SDS_4core6option6OptionRBH_Ej1_EB8_
FNDA:0,_RINvMsj_NtCs6wj2z9XdCGO_15gungraun_runner3apiNtB6_22LibraryBenchmarkConfig15update_from_allAINtNtCsgEmfK2I1SDS_4core6option6OptionRBH_Ej2_EB8_
FNDA:0,_RINvMsn_NtCs6wj2z9XdCGO_15gungraun_runner3apiNtB6_11RawToolArgs18extend_ignore_flagNtNtCslNYArtu3iFV_5alloc6string6StringINtNtNtNtCsgEmfK2I1SDS_4core4iter8adapters3map3MapINtNtNtB1n_3vec9into_iter8IntoIterB1j_ENvYB1j_INtNtB24_7convert4IntoB1j_E4intoEEB8_
FNDA:0,_RINvMsn_NtCs6wj2z9XdCGO_15gungraun_runner3apiNtB6_11RawToolArgs18extend_ignore_flagNtNtCslNYArtu3iFV_5alloc6string6StringINtNtNtNtCsgEmfK2I1SDS_4core4iter8adapters3map3MapINtNtNtB24_5array4iter8IntoIterReKj1_ENvYB3e_INtNtB24_7convert4IntoB1j_E4intoEEB8_
FNDA:342,_RINvMsn_NtCs6wj2z9XdCGO_15gungraun_runner3apiNtB6_11RawToolArgs18extend_ignore_flagRNtNtCslNYArtu3iFV_5alloc6string6StringINtNtNtCsgEmfK2I1SDS_4core5slice4iter4IterB1k_EEB8_
FNDA:0,_RINvMsn_NtCs6wj2z9XdCGO_15gungraun_runner3apiNtB6_11RawToolArgs18extend_ignore_flagRNtNtCslNYArtu3iFV_5alloc6string6StringRAB1k_j1_EB8_
FNDA:0,_RINvMsn_NtCs6wj2z9XdCGO_15gungraun_runner3apiNtB6_11RawToolArgs3newNtNtCslNYArtu3iFV_5alloc6string6StringINtNtB17_3vec3VecB13_EEB8_
FNDA:0,_RINvMsn_NtCs6wj2z9XdCGO_15gungraun_runner3apiNtB6_11RawToolArgs3newReAB13_j1_EB8_
FNDA:342,_RINvNtCs6wj2z9XdCGO_15gungraun_runner3api13update_optionINtNtCslNYArtu3iFV_5alloc3vec3VecNtNtBX_6string6StringEEB4_
FNDA:342,_RINvNtCs6wj2z9XdCGO_15gungraun_runner3api13update_optionNtB2_10EntryPointEB4_
FNDA:0,_RINvNtCs6wj2z9XdCGO_15gungraun_runner3api13update_optionNtB2_12OutputFormatEB4_
FNDA:0,_RINvNtCs6wj2z9XdCGO_15gungraun_runner3api13update_optionNtB2_12ValgrindToolEB4_
FNDA:342,_RINvNtCs6wj2z9XdCGO_15gungraun_runner3api13update_optionNtB2_16ToolOutputFormatEB4_
FNDA:342,_RINvNtCs6wj2z9XdCGO_15gungraun_runner3api13update_optionNtB2_20ToolFlamegraphConfigEB4_
FNDA:342,_RINvNtCs6wj2z9XdCGO_15gungraun_runner3api13update_optionNtB2_20ToolRegressionConfigEB4_
FNDA:0,_RINvNtCs6wj2z9XdCGO_15gungraun_runner3api13update_optionNtB2_7SandboxEB4_
FNDA:0,_RINvNtCs6wj2z9XdCGO_15gungraun_runner3api13update_optionNtB2_8ExitWithEB4_
FNDA:0,_RINvNtCs6wj2z9XdCGO_15gungraun_runner3api13update_optionNtNtCsjrHSEGnQ3l9_3std4path7PathBufEB4_
FNDA:684,_RINvNtCs6wj2z9XdCGO_15gungraun_runner3api13update_optionbEB4_
FNDA:0,_RINvXso_NtCs6wj2z9XdCGO_15gungraun_runner3apiNtB6_11RawToolArgsINtNtNtNtCsgEmfK2I1SDS_4core4iter6traits7collect12FromIteratorNtNtCslNYArtu3iFV_5alloc6string6StringE9from_iterINtNtNtB16_8adapters3map3MapINtNtNtB18_5array4iter8IntoIterReKj1_ENvYB3J_INtNtB18_7convert4IntoB1Z_E4intoEEB8_
FNDA:0,_RINvXso_NtCs6wj2z9XdCGO_15gungraun_runner3apiNtB6_11RawToolArgsINtNtNtNtCsgEmfK2I1SDS_4core4iter6traits7collect12FromIteratorNtNtCslNYArtu3iFV_5alloc6string6StringE9from_iterINtNtNtB16_8adapters3map3MapINtNtNtB23_3vec9into_iter8IntoIterB1Z_ENvYB1Z_INtNtB18_7convert4IntoB1Z_E4intoEEB8_
FNDA:0,_RNCINvMsn_NtCs6wj2z9XdCGO_15gungraun_runner3apiNtB8_11RawToolArgs18extend_ignore_flagNtNtCslNYArtu3iFV_5alloc6string6StringINtNtNtNtCsgEmfK2I1SDS_4core4iter8adapters3map3MapINtNtNtB1p_3vec9into_iter8IntoIterB1l_ENvYB1l_INtNtB26_7convert4IntoB1l_E4intoEE0Ba_
FNDA:0,_RNCINvMsn_NtCs6wj2z9XdCGO_15gungraun_runner3apiNtB8_11RawToolArgs18extend_ignore_flagNtNtCslNYArtu3iFV_5alloc6string6StringINtNtNtNtCsgEmfK2I1SDS_4core4iter8adapters3map3MapINtNtNtB26_5array4iter8IntoIterReKj1_ENvYB3g_INtNtB26_7convert4IntoB1l_E4intoEE0Ba_
FNDA:144,_RNCINvMsn_NtCs6wj2z9XdCGO_15gungraun_runner3apiNtB8_11RawToolArgs18extend_ignore_flagRNtNtCslNYArtu3iFV_5alloc6string6StringINtNtNtCsgEmfK2I1SDS_4core5slice4iter4IterB1m_EE0Ba_
FNDA:0,_RNCINvMsn_NtCs6wj2z9XdCGO_15gungraun_runner3apiNtB8_11RawToolArgs18extend_ignore_flagRNtNtCslNYArtu3iFV_5alloc6string6StringRAB1m_j1_E0Ba_
FNDA:342,_RNCINvNtCs6wj2z9XdCGO_15gungraun_runner3api13update_optionINtNtCslNYArtu3iFV_5alloc3vec3VecNtNtBZ_6string6StringEE0B6_
FNDA:342,_RNCINvNtCs6wj2z9XdCGO_15gungraun_runner3api13update_optionNtB4_10EntryPointE0B6_
FNDA:0,_RNCINvNtCs6wj2z9XdCGO_15gungraun_runner3api13update_optionNtB4_12OutputFormatE0B6_
FNDA:0,_RNCINvNtCs6wj2z9XdCGO_15gungraun_runner3api13update_optionNtB4_12ValgrindToolE0B6_
FNDA:36,_RNCINvNtCs6wj2z9XdCGO_15gungraun_runner3api13update_optionNtB4_16ToolOutputFormatE0B6_
FNDA:342,_RNCINvNtCs6wj2z9XdCGO_15gungraun_runner3api13update_optionNtB4_20ToolFlamegraphConfigE0B6_
FNDA:342,_RNCINvNtCs6wj2z9XdCGO_15gungraun_runner3api13update_optionNtB4_20ToolRegressionConfigE0B6_
FNDA:0,_RNCINvNtCs6wj2z9XdCGO_15gungraun_runner3api13update_optionNtB4_7SandboxE0B6_
FNDA:0,_RNCINvNtCs6wj2z9XdCGO_15gungraun_runner3api13update_optionNtB4_8ExitWithE0B6_
FNDA:0,_RNCINvNtCs6wj2z9XdCGO_15gungraun_runner3api13update_optionNtNtCsjrHSEGnQ3l9_3std4path7PathBufE0B6_
FNDA:684,_RNCINvNtCs6wj2z9XdCGO_15gungraun_runner3api13update_optionbE0B6_
FNDA:0,_RNCNCNvMNtCs6wj2z9XdCGO_15gungraun_runner3apiNtB6_21BinaryBenchmarkConfig12collect_envs00B8_
FNDA:0,_RNCNCNvMsj_NtCs6wj2z9XdCGO_15gungraun_runner3apiNtB9_22LibraryBenchmarkConfig12collect_envs00Bb_
FNDA:0,_RNCNvMNtCs6wj2z9XdCGO_15gungraun_runner3apiNtB4_21BinaryBenchmarkConfig12collect_envs0B6_
FNDA:1231,_RNCNvMsA_NtCs6wj2z9XdCGO_15gungraun_runner3apiNtB7_5Tools6update0B9_
FNDA:0,_RNCNvMsA_NtCs6wj2z9XdCGO_15gungraun_runner3apiNtB7_5Tools7consume0B9_
FNDA:0,_RNCNvMsA_NtCs6wj2z9XdCGO_15gungraun_runner3apiNtB7_5Tools7consumes_0B9_
FNDA:0,_RNCNvMsj_NtCs6wj2z9XdCGO_15gungraun_runner3apiNtB7_22LibraryBenchmarkConfig12collect_envs0B9_
FNDA:0,_RNCNvMsp_NtCs6wj2z9XdCGO_15gungraun_runner3apiNtB7_5Stdin5apply0B9_
FNDA:0,_RNCNvMsp_NtCs6wj2z9XdCGO_15gungraun_runner3apiNtB7_5Stdin5applys_0B9_
FNDA:0,_RNCNvMsu_NtCs6wj2z9XdCGO_15gungraun_runner3apiNtB7_5Stdio5apply0B9_
FNDA:0,_RNCNvMsu_NtCs6wj2z9XdCGO_15gungraun_runner3apiNtB7_5Stdio5applys_0B9_
FNDA:0,_RNvMNtCs6wj2z9XdCGO_15gungraun_runner3apiNtB2_21BinaryBenchmarkConfig12collect_envs
FNDA:0,_RNvMNtCs6wj2z9XdCGO_15gungraun_runner3apiNtB2_21BinaryBenchmarkConfig12resolve_envs
FNDA:0,_RNvMsA_NtCs6wj2z9XdCGO_15gungraun_runner3apiNtB5_5Tools17update_from_other
FNDA:2277,_RNvMsA_NtCs6wj2z9XdCGO_15gungraun_runner3apiNtB5_5Tools6update
FNDA:0,_RNvMsA_NtCs6wj2z9XdCGO_15gungraun_runner3apiNtB5_5Tools7consume
FNDA:0,_RNvMsA_NtCs6wj2z9XdCGO_15gungraun_runner3apiNtB5_5Tools8is_empty
FNDA:16,_RNvMsB_NtCs6wj2z9XdCGO_15gungraun_runner3apiNtB5_12ValgrindTool2id
FNDA:0,_RNvMs_NtCs6wj2z9XdCGO_15gungraun_runner3apiNtB4_16CachegrindMetric7to_name
FNDA:0,_RNvMsc_NtCs6wj2z9XdCGO_15gungraun_runner3apiNtB5_9EventKind7to_name
FNDA:0,_RNvMsj_NtCs6wj2z9XdCGO_15gungraun_runner3apiNtB5_22LibraryBenchmarkConfig12collect_envs
FNDA:0,_RNvMsj_NtCs6wj2z9XdCGO_15gungraun_runner3apiNtB5_22LibraryBenchmarkConfig12resolve_envs
FNDA:0,_RNvMsn_NtCs6wj2z9XdCGO_15gungraun_runner3apiNtB5_11RawToolArgs6update
FNDA:0,_RNvMsn_NtCs6wj2z9XdCGO_15gungraun_runner3apiNtB5_11RawToolArgs7prepend
FNDA:0,_RNvMsn_NtCs6wj2z9XdCGO_15gungraun_runner3apiNtB5_11RawToolArgs8is_empty
FNDA:0,_RNvMsp_NtCs6wj2z9XdCGO_15gungraun_runner3apiNtB5_5Stdin5apply
FNDA:0,_RNvMsu_NtCs6wj2z9XdCGO_15gungraun_runner3apiNtB5_5Stdio5apply
FNDA:342,_RNvMsz_NtCs6wj2z9XdCGO_15gungraun_runner3apiNtB5_4Tool6update
FNDA:0,_RNvXs0_NtCs6wj2z9XdCGO_15gungraun_runner3apiNtB5_16CachegrindMetricNtNtCsgEmfK2I1SDS_4core3fmt7Display3fmt
FNDA:0,_RNvXs1_NtCs6wj2z9XdCGO_15gungraun_runner3apiNtB5_16CachegrindMetricNtNtNtB7_6runner7metrics11TypeChecker6is_int
FNDA:0,_RNvXs1_NtCs6wj2z9XdCGO_15gungraun_runner3apiNtB5_16CachegrindMetricNtNtNtB7_6runner7metrics11TypeChecker8is_float
FNDA:0,_RNvXs5_NtCs6wj2z9XdCGO_15gungraun_runner3apiNtB5_10DhatMetricNtNtCsgEmfK2I1SDS_4core3fmt7Display3fmt
FNDA:0,_RNvXs5a_NtCs6wj2z9XdCGO_15gungraun_runner3apiNtB6_16CachegrindMetricNtNtNtCsgEmfK2I1SDS_4core3str6traits7FromStr8from_str
FNDA:0,_RNvXs5b_NtCs6wj2z9XdCGO_15gungraun_runner3apiNtB6_17CachegrindMetricsNtNtNtCsgEmfK2I1SDS_4core3str6traits7FromStr8from_str
FNDA:0,_RNvXs5c_NtCs6wj2z9XdCGO_15gungraun_runner3apiNtB6_16CallgrindMetricsNtNtNtCsgEmfK2I1SDS_4core3str6traits7FromStr8from_str
FNDA:0,_RNvXs5d_NtCs6wj2z9XdCGO_15gungraun_runner3apiNtB6_10DhatMetricNtNtNtCsgEmfK2I1SDS_4core3str6traits7FromStr8from_str
FNDA:0,_RNvXs5e_NtCs6wj2z9XdCGO_15gungraun_runner3apiNtB6_11DhatMetricsNtNtNtCsgEmfK2I1SDS_4core3str6traits7FromStr8from_str
FNDA:0,_RNvXs5f_NtCs6wj2z9XdCGO_15gungraun_runner3apiNtB6_11ErrorMetricNtNtNtCsgEmfK2I1SDS_4core3str6traits7FromStr8from_str
FNDA:36,_RNvXs5g_NtCs6wj2z9XdCGO_15gungraun_runner3apiNtB6_9EventKindNtNtNtCsgEmfK2I1SDS_4core3str6traits7FromStr8from_str
FNDA:0,_RNvXs7_NtCs6wj2z9XdCGO_15gungraun_runner3apiNtB5_10DhatMetricNtNtNtB7_6runner7metrics11TypeChecker6is_int
FNDA:0,_RNvXs7_NtCs6wj2z9XdCGO_15gungraun_runner3apiNtB5_10DhatMetricNtNtNtB7_6runner7metrics11TypeChecker8is_float
FNDA:0,_RNvXsC_NtCs6wj2z9XdCGO_15gungraun_runner3apiNtB5_12ValgrindToolNtNtCsgEmfK2I1SDS_4core3fmt7Display3fmt
FNDA:0,_RNvXsD_NtCs6wj2z9XdCGO_15gungraun_runner3apiNtB5_12ValgrindToolNtNtNtCsgEmfK2I1SDS_4core3str6traits7FromStr8from_str
FNDA:0,_RNvXsE_NtCs6wj2z9XdCGO_15gungraun_runner3apiNtB5_12ValgrindToolINtNtCsgEmfK2I1SDS_4core7convert7TryFromReE8try_from
FNDA:0,_RNvXsa_NtCs6wj2z9XdCGO_15gungraun_runner3apiNtB5_11ErrorMetricNtNtCsgEmfK2I1SDS_4core3fmt7Display3fmt
FNDA:0,_RNvXsd_NtCs6wj2z9XdCGO_15gungraun_runner3apiNtB5_9EventKindNtNtCsgEmfK2I1SDS_4core3fmt7Display3fmt
FNDA:0,_RNvXse_NtCs6wj2z9XdCGO_15gungraun_runner3apiNtB5_9EventKindINtNtCsgEmfK2I1SDS_4core7convert4FromNtB5_16CachegrindMetricE4from
FNDA:0,_RNvXsf_NtCs6wj2z9XdCGO_15gungraun_runner3apiNtB5_9EventKindNtNtNtB7_6runner7metrics11TypeChecker6is_int
FNDA:0,_RNvXsf_NtCs6wj2z9XdCGO_15gungraun_runner3apiNtB5_9EventKindNtNtNtB7_6runner7metrics11TypeChecker8is_float
FNDA:0,_RNvXss_NtCs6wj2z9XdCGO_15gungraun_runner3apiNtB5_5StdinINtNtCsgEmfK2I1SDS_4core7convert4FromRNtNtCsjrHSEGnQ3l9_3std4path7PathBufE4from
FNDA:0,_RNvXst_NtCs6wj2z9XdCGO_15gungraun_runner3apiNtB5_5StdinINtNtCsgEmfK2I1SDS_4core7convert4FromRNtNtCsjrHSEGnQ3l9_3std4path4PathE4from
FNDA:0,_RNvXsw_NtCs6wj2z9XdCGO_15gungraun_runner3apiNtB5_5StdioINtNtCsgEmfK2I1SDS_4core7convert4FromRNtNtCsjrHSEGnQ3l9_3std4path7PathBufE4from
FNDA:0,_RNvXsx_NtCs6wj2z9XdCGO_15gungraun_runner3apiNtB5_5StdioINtNtCsgEmfK2I1SDS_4core7convert4FromRNtNtCsjrHSEGnQ3l9_3std4path4PathE4from
FNDA:0,_RNvXsy_NtCs6wj2z9XdCGO_15gungraun_runner3apiNtB5_6StreamNtNtCsgEmfK2I1SDS_4core3fmt7Display3fmt
FNDA:2277,_RNvMsz_NtCs6wj2z9XdCGO_15gungraun_runner3apiNtB5_4Tool3new
FNDA:0,_RINvMsz_NtCs6wj2z9XdCGO_15gungraun_runner3apiNtB6_4Tool9with_argsppEB8_
FNDA:0,_RNvMs_NtCs6wj2z9XdCGO_15gungraun_runner3apiNtB4_16CachegrindMetric10is_derived
FNDA:0,_RNvXININtCs6wj2z9XdCGO_15gungraun_runner3apis9_0pENtB5_10EntryPointINtNtCsgEmfK2I1SDS_4core7convert4FrompE4fromB7_
FNDA:0,_RNvXs3_NtCs6wj2z9XdCGO_15gungraun_runner3apiNtB5_16CallgrindMetricsINtNtCsgEmfK2I1SDS_4core7convert4FromNtB5_9EventKindE4from
FNDA:0,_RNvXs4_NtCs6wj2z9XdCGO_15gungraun_runner3apiNtB5_9DelayKindNtNtCsgEmfK2I1SDS_4core7default7Default7default
FNDA:0,_RNvXsk_NtCs6wj2z9XdCGO_15gungraun_runner3apiNtB5_5LimitINtNtCsgEmfK2I1SDS_4core7convert4FromNtNtNtB7_6runner7metrics6MetricE4from
FNDA:0,_RNvXsl_NtCs6wj2z9XdCGO_15gungraun_runner3apiNtB5_5LimitINtNtCsgEmfK2I1SDS_4core7convert4FromdE4from
FNDA:0,_RNvXsq_NtCs6wj2z9XdCGO_15gungraun_runner3apiNtB5_5StdinINtNtCsgEmfK2I1SDS_4core7convert4FromNtB5_5StdioE4from
FNDA:0,_RNvXsr_NtCs6wj2z9XdCGO_15gungraun_runner3apiNtB5_5StdinINtNtCsgEmfK2I1SDS_4core7convert4FromNtNtCsjrHSEGnQ3l9_3std4path7PathBufE4from
FNDA:0,_RNvXsv_NtCs6wj2z9XdCGO_15gungraun_runner3apiNtB5_5StdioINtNtCsgEmfK2I1SDS_4core7convert4FromNtNtCsjrHSEGnQ3l9_3std4path7PathBufE4from
FNDA:0,_RNvMsc_NtCs6wj2z9XdCGO_15gungraun_runner3apiNtB5_9EventKind10is_derived
FNDA:0,_RNvXsg_NtCslU5GooN79Bb_15gungraun_runner3apiINtNtCsjqwwtHpusuX_8indexmap3set8IndexSetNtB5_16CachegrindMetricEINtNtCsgEmfK2I1SDS_4core7convert4FromNtB5_17CachegrindMetricsE4from
FNDA:0,_RNvXsh_NtCslU5GooN79Bb_15gungraun_runner3apiINtNtCsjqwwtHpusuX_8indexmap3set8IndexSetNtB5_10DhatMetricEINtNtCsgEmfK2I1SDS_4core7convert4FromNtB5_11DhatMetricsE4from
FNDA:0,_RNvXsi_NtCslU5GooN79Bb_15gungraun_runner3apiINtNtCsjqwwtHpusuX_8indexmap3set8IndexSetNtB5_9EventKindEINtNtCsgEmfK2I1SDS_4core7convert4FromNtB5_16CallgrindMetricsE4from
FNDA:0,_RNvMsn_NtCslU5GooN79Bb_15gungraun_runner3apiNtB5_11RawToolArgs8as_slice
FNDA:0,_RNCINvMsn_NtCslU5GooN79Bb_15gungraun_runner3apiNtB8_11RawToolArgs18extend_ignore_flagNtNtCslNYArtu3iFV_5alloc6string6StringINtNtNtNtCsgEmfK2I1SDS_4core4iter8adapters3map3MapINtNtNtB1p_3vec9into_iter8IntoIterB1l_ENvYB1l_INtNtB26_7convert4IntoB1l_E4intoEEs_0Ba_
FNDA:0,_RNCINvMsn_NtCslU5GooN79Bb_15gungraun_runner3apiNtB8_11RawToolArgs18extend_ignore_flagNtNtCslNYArtu3iFV_5alloc6string6StringINtNtNtNtCsgEmfK2I1SDS_4core4iter8adapters3map3MapINtNtNtB26_5array4iter8IntoIterReKj1_ENvYB3g_INtNtB26_7convert4IntoB1l_E4intoEEs_0Ba_
FNDA:0,_RNCINvMsn_NtCslU5GooN79Bb_15gungraun_runner3apiNtB8_11RawToolArgs18extend_ignore_flagRNtNtCslNYArtu3iFV_5alloc6string6StringINtNtNtCsgEmfK2I1SDS_4core5slice4iter4IterB1m_EEs_0Ba_
FNDA:0,_RNCINvMsn_NtCslU5GooN79Bb_15gungraun_runner3apiNtB8_11RawToolArgs18extend_ignore_flagRNtNtCslNYArtu3iFV_5alloc6string6StringRAB1m_j1_Es_0Ba_
FNDA:0,_RNvMsz_NtCslU5GooN79Bb_15gungraun_runner3apiNtB5_4Tool3new
FNDA:0,_RINvMNtCslU5GooN79Bb_15gungraun_runner3apiNtB3_21BinaryBenchmarkConfig15update_from_allAINtNtCsgEmfK2I1SDS_4core6option6OptionRBE_Ej1_EB5_
FNDA:0,_RINvMNtCslU5GooN79Bb_15gungraun_runner3apiNtB3_21BinaryBenchmarkConfig15update_from_allAINtNtCsgEmfK2I1SDS_4core6option6OptionRBE_Ej3_EB5_
FNDA:0,_RINvMsA_NtCslU5GooN79Bb_15gungraun_runner3apiNtB6_5Tools10update_allINtNtNtNtCsgEmfK2I1SDS_4core4iter8adapters6cloned6ClonedINtNtNtB1d_5slice4iter4IterNtB6_4ToolEEEB8_
FNDA:0,_RINvMsj_NtCslU5GooN79Bb_15gungraun_runner3apiNtB6_22LibraryBenchmarkConfig15update_from_allAINtNtCsgEmfK2I1SDS_4core6option6OptionRBH_Ej1_EB8_
FNDA:0,_RINvMsj_NtCslU5GooN79Bb_15gungraun_runner3apiNtB6_22LibraryBenchmarkConfig15update_from_allAINtNtCsgEmfK2I1SDS_4core6option6OptionRBH_Ej2_EB8_
FNDA:0,_RINvMsn_NtCslU5GooN79Bb_15gungraun_runner3apiNtB6_11RawToolArgs18extend_ignore_flagNtNtCslNYArtu3iFV_5alloc6string6StringINtNtNtNtCsgEmfK2I1SDS_4core4iter8adapters3map3MapINtNtNtB1n_3vec9into_iter8IntoIterB1j_ENvYB1j_INtNtB24_7convert4IntoB1j_E4intoEEB8_
FNDA:0,_RINvMsn_NtCslU5GooN79Bb_15gungraun_runner3apiNtB6_11RawToolArgs18extend_ignore_flagNtNtCslNYArtu3iFV_5alloc6string6StringINtNtNtNtCsgEmfK2I1SDS_4core4iter8adapters3map3MapINtNtNtB24_5array4iter8IntoIterReKj1_ENvYB3e_INtNtB24_7convert4IntoB1j_E4intoEEB8_
FNDA:0,_RINvMsn_NtCslU5GooN79Bb_15gungraun_runner3apiNtB6_11RawToolArgs18extend_ignore_flagRNtNtCslNYArtu3iFV_5alloc6string6StringINtNtNtCsgEmfK2I1SDS_4core5slice4iter4IterB1k_EEB8_
FNDA:0,_RINvMsn_NtCslU5GooN79Bb_15gungraun_runner3apiNtB6_11RawToolArgs18extend_ignore_flagRNtNtCslNYArtu3iFV_5alloc6string6StringRAB1k_j1_EB8_
FNDA:0,_RINvMsn_NtCslU5GooN79Bb_15gungraun_runner3apiNtB6_11RawToolArgs3newNtNtCslNYArtu3iFV_5alloc6string6StringINtNtB17_3vec3VecB13_EEB8_
FNDA:0,_RINvMsn_NtCslU5GooN79Bb_15gungraun_runner3apiNtB6_11RawToolArgs3newReAB13_j1_EB8_
FNDA:0,_RINvNtCslU5GooN79Bb_15gungraun_runner3api13update_optionINtNtCslNYArtu3iFV_5alloc3vec3VecNtNtBX_6string6StringEEB4_
FNDA:0,_RINvNtCslU5GooN79Bb_15gungraun_runner3api13update_optionNtB2_10EntryPointEB4_
FNDA:0,_RINvNtCslU5GooN79Bb_15gungraun_runner3api13update_optionNtB2_12OutputFormatEB4_
FNDA:0,_RINvNtCslU5GooN79Bb_15gungraun_runner3api13update_optionNtB2_12ValgrindToolEB4_
FNDA:0,_RINvNtCslU5GooN79Bb_15gungraun_runner3api13update_optionNtB2_16ToolOutputFormatEB4_
FNDA:0,_RINvNtCslU5GooN79Bb_15gungraun_runner3api13update_optionNtB2_20ToolFlamegraphConfigEB4_
FNDA:0,_RINvNtCslU5GooN79Bb_15gungraun_runner3api13update_optionNtB2_20ToolRegressionConfigEB4_
FNDA:0,_RINvNtCslU5GooN79Bb_15gungraun_runner3api13update_optionNtB2_7SandboxEB4_
FNDA:0,_RINvNtCslU5GooN79Bb_15gungraun_runner3api13update_optionNtB2_8ExitWithEB4_
FNDA:0,_RINvNtCslU5GooN79Bb_15gungraun_runner3api13update_optionNtNtCsjrHSEGnQ3l9_3std4path7PathBufEB4_
FNDA:0,_RINvNtCslU5GooN79Bb_15gungraun_runner3api13update_optionbEB4_
FNDA:0,_RINvXso_NtCslU5GooN79Bb_15gungraun_runner3apiNtB6_11RawToolArgsINtNtNtNtCsgEmfK2I1SDS_4core4iter6traits7collect12FromIteratorNtNtCslNYArtu3iFV_5alloc6string6StringE9from_iterINtNtNtB16_8adapters3map3MapINtNtNtB18_5array4iter8IntoIterReKj1_ENvYB3J_INtNtB18_7convert4IntoB1Z_E4intoEEB8_
FNDA:0,_RINvXso_NtCslU5GooN79Bb_15gungraun_runner3apiNtB6_11RawToolArgsINtNtNtNtCsgEmfK2I1SDS_4core4iter6traits7collect12FromIteratorNtNtCslNYArtu3iFV_5alloc6string6StringE9from_iterINtNtNtB16_8adapters3map3MapINtNtNtB23_3vec9into_iter8IntoIterB1Z_ENvYB1Z_INtNtB18_7convert4IntoB1Z_E4intoEEB8_
FNDA:0,_RNCINvMsn_NtCslU5GooN79Bb_15gungraun_runner3apiNtB8_11RawToolArgs18extend_ignore_flagNtNtCslNYArtu3iFV_5alloc6string6StringINtNtNtNtCsgEmfK2I1SDS_4core4iter8adapters3map3MapINtNtNtB1p_3vec9into_iter8IntoIterB1l_ENvYB1l_INtNtB26_7convert4IntoB1l_E4intoEE0Ba_
FNDA:0,_RNCINvMsn_NtCslU5GooN79Bb_15gungraun_runner3apiNtB8_11RawToolArgs18extend_ignore_flagNtNtCslNYArtu3iFV_5alloc6string6StringINtNtNtNtCsgEmfK2I1SDS_4core4iter8adapters3map3MapINtNtNtB26_5array4iter8IntoIterReKj1_ENvYB3g_INtNtB26_7convert4IntoB1l_E4intoEE0Ba_
FNDA:0,_RNCINvMsn_NtCslU5GooN79Bb_15gungraun_runner3apiNtB8_11RawToolArgs18extend_ignore_flagRNtNtCslNYArtu3iFV_5alloc6string6StringINtNtNtCsgEmfK2I1SDS_4core5slice4iter4IterB1m_EE0Ba_
FNDA:0,_RNCINvMsn_NtCslU5GooN79Bb_15gungraun_runner3apiNtB8_11RawToolArgs18extend_ignore_flagRNtNtCslNYArtu3iFV_5alloc6string6StringRAB1m_j1_E0Ba_
FNDA:0,_RNCINvNtCslU5GooN79Bb_15gungraun_runner3api13update_optionINtNtCslNYArtu3iFV_5alloc3vec3VecNtNtBZ_6string6StringEE0B6_
FNDA:0,_RNCINvNtCslU5GooN79Bb_15gungraun_runner3api13update_optionNtB4_10EntryPointE0B6_
FNDA:0,_RNCINvNtCslU5GooN79Bb_15gungraun_runner3api13update_optionNtB4_12OutputFormatE0B6_
FNDA:0,_RNCINvNtCslU5GooN79Bb_15gungraun_runner3api13update_optionNtB4_12ValgrindToolE0B6_
FNDA:0,_RNCINvNtCslU5GooN79Bb_15gungraun_runner3api13update_optionNtB4_16ToolOutputFormatE0B6_
FNDA:0,_RNCINvNtCslU5GooN79Bb_15gungraun_runner3api13update_optionNtB4_20ToolFlamegraphConfigE0B6_
FNDA:0,_RNCINvNtCslU5GooN79Bb_15gungraun_runner3api13update_optionNtB4_20ToolRegressionConfigE0B6_
FNDA:0,_RNCINvNtCslU5GooN79Bb_15gungraun_runner3api13update_optionNtB4_7SandboxE0B6_
FNDA:0,_RNCINvNtCslU5GooN79Bb_15gungraun_runner3api13update_optionNtB4_8ExitWithE0B6_
FNDA:0,_RNCINvNtCslU5GooN79Bb_15gungraun_runner3api13update_optionNtNtCsjrHSEGnQ3l9_3std4path7PathBufE0B6_
FNDA:0,_RNCINvNtCslU5GooN79Bb_15gungraun_runner3api13update_optionbE0B6_
FNDA:0,_RNCNCNvMNtCslU5GooN79Bb_15gungraun_runner3apiNtB6_21BinaryBenchmarkConfig12collect_envs00B8_
FNDA:0,_RNCNCNvMsj_NtCslU5GooN79Bb_15gungraun_runner3apiNtB9_22LibraryBenchmarkConfig12collect_envs00Bb_
FNDA:0,_RNCNvMNtCslU5GooN79Bb_15gungraun_runner3apiNtB4_21BinaryBenchmarkConfig12collect_envs0B6_
FNDA:0,_RNCNvMsA_NtCslU5GooN79Bb_15gungraun_runner3apiNtB7_5Tools6update0B9_
FNDA:0,_RNCNvMsA_NtCslU5GooN79Bb_15gungraun_runner3apiNtB7_5Tools7consume0B9_
FNDA:0,_RNCNvMsA_NtCslU5GooN79Bb_15gungraun_runner3apiNtB7_5Tools7consumes_0B9_
FNDA:0,_RNCNvMsj_NtCslU5GooN79Bb_15gungraun_runner3apiNtB7_22LibraryBenchmarkConfig12collect_envs0B9_
FNDA:0,_RNCNvMsp_NtCslU5GooN79Bb_15gungraun_runner3apiNtB7_5Stdin5apply0B9_
FNDA:0,_RNCNvMsp_NtCslU5GooN79Bb_15gungraun_runner3apiNtB7_5Stdin5applys_0B9_
FNDA:0,_RNCNvMsu_NtCslU5GooN79Bb_15gungraun_runner3apiNtB7_5Stdio5apply0B9_
FNDA:0,_RNCNvMsu_NtCslU5GooN79Bb_15gungraun_runner3apiNtB7_5Stdio5applys_0B9_
FNDA:0,_RNvMNtCslU5GooN79Bb_15gungraun_runner3apiNtB2_21BinaryBenchmarkConfig12collect_envs
FNDA:0,_RNvMNtCslU5GooN79Bb_15gungraun_runner3apiNtB2_21BinaryBenchmarkConfig12resolve_envs
FNDA:0,_RNvMsA_NtCslU5GooN79Bb_15gungraun_runner3apiNtB5_5Tools17update_from_other
FNDA:0,_RNvMsA_NtCslU5GooN79Bb_15gungraun_runner3apiNtB5_5Tools6update
FNDA:0,_RNvMsA_NtCslU5GooN79Bb_15gungraun_runner3apiNtB5_5Tools7consume
FNDA:0,_RNvMsA_NtCslU5GooN79Bb_15gungraun_runner3apiNtB5_5Tools8is_empty
FNDA:0,_RNvMsB_NtCslU5GooN79Bb_15gungraun_runner3apiNtB5_12ValgrindTool2id
FNDA:0,_RNvMs_NtCslU5GooN79Bb_15gungraun_runner3apiNtB4_16CachegrindMetric7to_name
FNDA:0,_RNvMsc_NtCslU5GooN79Bb_15gungraun_runner3apiNtB5_9EventKind7to_name
FNDA:0,_RNvMsj_NtCslU5GooN79Bb_15gungraun_runner3apiNtB5_22LibraryBenchmarkConfig12collect_envs
FNDA:0,_RNvMsj_NtCslU5GooN79Bb_15gungraun_runner3apiNtB5_22LibraryBenchmarkConfig12resolve_envs
FNDA:0,_RNvMsn_NtCslU5GooN79Bb_15gungraun_runner3apiNtB5_11RawToolArgs6update
FNDA:0,_RNvMsn_NtCslU5GooN79Bb_15gungraun_runner3apiNtB5_11RawToolArgs7prepend
FNDA:0,_RNvMsn_NtCslU5GooN79Bb_15gungraun_runner3apiNtB5_11RawToolArgs8is_empty
FNDA:0,_RNvMsp_NtCslU5GooN79Bb_15gungraun_runner3apiNtB5_5Stdin5apply
FNDA:0,_RNvMsu_NtCslU5GooN79Bb_15gungraun_runner3apiNtB5_5Stdio5apply
FNDA:0,_RNvMsz_NtCslU5GooN79Bb_15gungraun_runner3apiNtB5_4Tool6update
FNDA:0,_RNvXs0_NtCslU5GooN79Bb_15gungraun_runner3apiNtB5_16CachegrindMetricNtNtCsgEmfK2I1SDS_4core3fmt7Display3fmt
FNDA:0,_RNvXs1_NtCslU5GooN79Bb_15gungraun_runner3apiNtB5_16CachegrindMetricNtNtNtB7_6runner7metrics11TypeChecker6is_int
FNDA:0,_RNvXs1_NtCslU5GooN79Bb_15gungraun_runner3apiNtB5_16CachegrindMetricNtNtNtB7_6runner7metrics11TypeChecker8is_float
FNDA:0,_RNvXs5_NtCslU5GooN79Bb_15gungraun_runner3apiNtB5_10DhatMetricNtNtCsgEmfK2I1SDS_4core3fmt7Display3fmt
FNDA:0,_RNvXs5a_NtCslU5GooN79Bb_15gungraun_runner3apiNtB6_16CachegrindMetricNtNtNtCsgEmfK2I1SDS_4core3str6traits7FromStr8from_str
FNDA:0,_RNvXs5b_NtCslU5GooN79Bb_15gungraun_runner3apiNtB6_17CachegrindMetricsNtNtNtCsgEmfK2I1SDS_4core3str6traits7FromStr8from_str
FNDA:0,_RNvXs5c_NtCslU5GooN79Bb_15gungraun_runner3apiNtB6_16CallgrindMetricsNtNtNtCsgEmfK2I1SDS_4core3str6traits7FromStr8from_str
FNDA:0,_RNvXs5d_NtCslU5GooN79Bb_15gungraun_runner3apiNtB6_10DhatMetricNtNtNtCsgEmfK2I1SDS_4core3str6traits7FromStr8from_str
FNDA:0,_RNvXs5e_NtCslU5GooN79Bb_15gungraun_runner3apiNtB6_11DhatMetricsNtNtNtCsgEmfK2I1SDS_4core3str6traits7FromStr8from_str
FNDA:0,_RNvXs5f_NtCslU5GooN79Bb_15gungraun_runner3apiNtB6_11ErrorMetricNtNtNtCsgEmfK2I1SDS_4core3str6traits7FromStr8from_str
FNDA:0,_RNvXs5g_NtCslU5GooN79Bb_15gungraun_runner3apiNtB6_9EventKindNtNtNtCsgEmfK2I1SDS_4core3str6traits7FromStr8from_str
FNDA:0,_RNvXs7_NtCslU5GooN79Bb_15gungraun_runner3apiNtB5_10DhatMetricNtNtNtB7_6runner7metrics11TypeChecker6is_int
FNDA:0,_RNvXs7_NtCslU5GooN79Bb_15gungraun_runner3apiNtB5_10DhatMetricNtNtNtB7_6runner7metrics11TypeChecker8is_float
FNDA:0,_RNvXsC_NtCslU5GooN79Bb_15gungraun_runner3apiNtB5_12ValgrindToolNtNtCsgEmfK2I1SDS_4core3fmt7Display3fmt
FNDA:0,_RNvXsD_NtCslU5GooN79Bb_15gungraun_runner3apiNtB5_12ValgrindToolNtNtNtCsgEmfK2I1SDS_4core3str6traits7FromStr8from_str
FNDA:0,_RNvXsE_NtCslU5GooN79Bb_15gungraun_runner3apiNtB5_12ValgrindToolINtNtCsgEmfK2I1SDS_4core7convert7TryFromReE8try_from
FNDA:0,_RNvXsa_NtCslU5GooN79Bb_15gungraun_runner3apiNtB5_11ErrorMetricNtNtCsgEmfK2I1SDS_4core3fmt7Display3fmt
FNDA:0,_RNvXsd_NtCslU5GooN79Bb_15gungraun_runner3apiNtB5_9EventKindNtNtCsgEmfK2I1SDS_4core3fmt7Display3fmt
FNDA:0,_RNvXse_NtCslU5GooN79Bb_15gungraun_runner3apiNtB5_9EventKindINtNtCsgEmfK2I1SDS_4core7convert4FromNtB5_16CachegrindMetricE4from
FNDA:0,_RNvXsf_NtCslU5GooN79Bb_15gungraun_runner3apiNtB5_9EventKindNtNtNtB7_6runner7metrics11TypeChecker6is_int
FNDA:0,_RNvXsf_NtCslU5GooN79Bb_15gungraun_runner3apiNtB5_9EventKindNtNtNtB7_6runner7metrics11TypeChecker8is_float
FNDA:0,_RNvXss_NtCslU5GooN79Bb_15gungraun_runner3apiNtB5_5StdinINtNtCsgEmfK2I1SDS_4core7convert4FromRNtNtCsjrHSEGnQ3l9_3std4path7PathBufE4from
FNDA:0,_RNvXst_NtCslU5GooN79Bb_15gungraun_runner3apiNtB5_5StdinINtNtCsgEmfK2I1SDS_4core7convert4FromRNtNtCsjrHSEGnQ3l9_3std4path4PathE4from
FNDA:0,_RNvXsw_NtCslU5GooN79Bb_15gungraun_runner3apiNtB5_5StdioINtNtCsgEmfK2I1SDS_4core7convert4FromRNtNtCsjrHSEGnQ3l9_3std4path7PathBufE4from
FNDA:0,_RNvXsx_NtCslU5GooN79Bb_15gungraun_runner3apiNtB5_5StdioINtNtCsgEmfK2I1SDS_4core7convert4FromRNtNtCsjrHSEGnQ3l9_3std4path4PathE4from
FNDA:0,_RNvXsy_NtCslU5GooN79Bb_15gungraun_runner3apiNtB5_6StreamNtNtCsgEmfK2I1SDS_4core3fmt7Display3fmt
FNDA:0,_RNvMsc_NtCslU5GooN79Bb_15gungraun_runner3apiNtB5_9EventKind10is_derived
FNDA:0,_RNvMsB_NtCslU5GooN79Bb_15gungraun_runner3apiNtB5_12ValgrindTool14has_xleak_file
FNDA:0,_RNvMsB_NtCslU5GooN79Bb_15gungraun_runner3apiNtB5_12ValgrindTool14has_xtree_file
FNDA:0,_RINvMsz_NtCslU5GooN79Bb_15gungraun_runner3apiNtB6_4Tool9with_argsppEB8_
FNDA:0,_RNvMs_NtCslU5GooN79Bb_15gungraun_runner3apiNtB4_16CachegrindMetric10is_derived
FNDA:0,_RNvXININtCslU5GooN79Bb_15gungraun_runner3apis9_0pENtB5_10EntryPointINtNtCsgEmfK2I1SDS_4core7convert4FrompE4fromB7_
FNDA:0,_RNvXs2_NtCslU5GooN79Bb_15gungraun_runner3apiNtB5_17CachegrindMetricsINtNtCsgEmfK2I1SDS_4core7convert4FromNtB5_16CachegrindMetricE4from
FNDA:0,_RNvXs3_NtCslU5GooN79Bb_15gungraun_runner3apiNtB5_16CallgrindMetricsINtNtCsgEmfK2I1SDS_4core7convert4FromNtB5_9EventKindE4from
FNDA:0,_RNvXs4_NtCslU5GooN79Bb_15gungraun_runner3apiNtB5_9DelayKindNtNtCsgEmfK2I1SDS_4core7default7Default7default
FNDA:0,_RNvXs8_NtCslU5GooN79Bb_15gungraun_runner3apiNtB5_11DhatMetricsINtNtCsgEmfK2I1SDS_4core7convert4FromNtB5_10DhatMetricE4from
FNDA:0,_RNvXsk_NtCslU5GooN79Bb_15gungraun_runner3apiNtB5_5LimitINtNtCsgEmfK2I1SDS_4core7convert4FromNtNtNtB7_6runner7metrics6MetricE4from
FNDA:0,_RNvXsl_NtCslU5GooN79Bb_15gungraun_runner3apiNtB5_5LimitINtNtCsgEmfK2I1SDS_4core7convert4FromdE4from
FNDA:0,_RNvXsm_NtCslU5GooN79Bb_15gungraun_runner3apiNtB5_5LimitINtNtCsgEmfK2I1SDS_4core7convert4FromyE4from
FNDA:0,_RNvXsq_NtCslU5GooN79Bb_15gungraun_runner3apiNtB5_5StdinINtNtCsgEmfK2I1SDS_4core7convert4FromNtB5_5StdioE4from
FNDA:0,_RNvXsr_NtCslU5GooN79Bb_15gungraun_runner3apiNtB5_5StdinINtNtCsgEmfK2I1SDS_4core7convert4FromNtNtCsjrHSEGnQ3l9_3std4path7PathBufE4from
FNDA:0,_RNvXsv_NtCslU5GooN79Bb_15gungraun_runner3apiNtB5_5StdioINtNtCsgEmfK2I1SDS_4core7convert4FromNtNtCsjrHSEGnQ3l9_3std4path7PathBufE4from
FNDA:0,_RNvMsB_NtCslU5GooN79Bb_15gungraun_runner3apiNtB5_12ValgrindTool15has_output_file
FNDA:88,_RNvMsz_NtCs8iksUjoTkmC_15gungraun_runner3apiNtB5_4Tool3new
FNDA:9091,_RNvXsg_NtCs8iksUjoTkmC_15gungraun_runner3apiINtNtCsjqwwtHpusuX_8indexmap3set8IndexSetNtB5_16CachegrindMetricEINtNtCsgEmfK2I1SDS_4core7convert4FromNtB5_17CachegrindMetricsE4from
FNDA:2995,_RNvXsh_NtCs8iksUjoTkmC_15gungraun_runner3apiINtNtCsjqwwtHpusuX_8indexmap3set8IndexSetNtB5_10DhatMetricEINtNtCsgEmfK2I1SDS_4core7convert4FromNtB5_11DhatMetricsE4from
FNDA:17966,_RNvXsi_NtCs8iksUjoTkmC_15gungraun_runner3apiINtNtCsjqwwtHpusuX_8indexmap3set8IndexSetNtB5_9EventKindEINtNtCsgEmfK2I1SDS_4core7convert4FromNtB5_16CallgrindMetricsE4from
FNDA:4304,_RNvMsn_NtCs8iksUjoTkmC_15gungraun_runner3apiNtB5_11RawToolArgs8as_slice
FNDA:0,_RNCINvMsn_NtCs8iksUjoTkmC_15gungraun_runner3apiNtB8_11RawToolArgs18extend_ignore_flagNtNtCslNYArtu3iFV_5alloc6string6StringINtNtNtNtCsgEmfK2I1SDS_4core4iter8adapters3map3MapINtNtNtB1p_3vec9into_iter8IntoIterB1l_ENvYB1l_INtNtB26_7convert4IntoB1l_E4intoEEs_0Ba_
FNDA:32,_RNCINvMsn_NtCs8iksUjoTkmC_15gungraun_runner3apiNtB8_11RawToolArgs18extend_ignore_flagNtNtCslNYArtu3iFV_5alloc6string6StringINtNtNtNtCsgEmfK2I1SDS_4core4iter8adapters3map3MapINtNtNtB26_5array4iter8IntoIterReKj1_ENvYB3g_INtNtB26_7convert4IntoB1l_E4intoEEs_0Ba_
FNDA:3313,_RNCINvMsn_NtCs8iksUjoTkmC_15gungraun_runner3apiNtB8_11RawToolArgs18extend_ignore_flagRNtNtCslNYArtu3iFV_5alloc6string6StringINtNtNtCsgEmfK2I1SDS_4core5slice4iter4IterB1m_EEs_0Ba_
FNDA:1733,_RNCINvMsn_NtCs8iksUjoTkmC_15gungraun_runner3apiNtB8_11RawToolArgs18extend_ignore_flagRNtNtCslNYArtu3iFV_5alloc6string6StringRAB1m_j1_Es_0Ba_
FNDA:113,_RINvMNtCs8iksUjoTkmC_15gungraun_runner3apiNtB3_21BinaryBenchmarkConfig15update_from_allAINtNtCsgEmfK2I1SDS_4core6option6OptionRBE_Ej1_EB5_
FNDA:419,_RINvMNtCs8iksUjoTkmC_15gungraun_runner3apiNtB3_21BinaryBenchmarkConfig15update_from_allAINtNtCsgEmfK2I1SDS_4core6option6OptionRBE_Ej3_EB5_
FNDA:1500,_RINvMsA_NtCs8iksUjoTkmC_15gungraun_runner3apiNtB6_5Tools10update_allINtNtNtNtCsgEmfK2I1SDS_4core4iter8adapters6cloned6ClonedINtNtNtB1d_5slice4iter4IterNtB6_4ToolEEEB8_
FNDA:390,_RINvMsj_NtCs8iksUjoTkmC_15gungraun_runner3apiNtB6_22LibraryBenchmarkConfig15update_from_allAINtNtCsgEmfK2I1SDS_4core6option6OptionRBH_Ej1_EB8_
FNDA:2438,_RINvMsj_NtCs8iksUjoTkmC_15gungraun_runner3apiNtB6_22LibraryBenchmarkConfig15update_from_allAINtNtCsgEmfK2I1SDS_4core6option6OptionRBH_Ej2_EB8_
FNDA:0,_RINvMsn_NtCs8iksUjoTkmC_15gungraun_runner3apiNtB6_11RawToolArgs18extend_ignore_flagNtNtCslNYArtu3iFV_5alloc6string6StringINtNtNtNtCsgEmfK2I1SDS_4core4iter8adapters3map3MapINtNtNtB1n_3vec9into_iter8IntoIterB1j_ENvYB1j_INtNtB24_7convert4IntoB1j_E4intoEEB8_
FNDA:32,_RINvMsn_NtCs8iksUjoTkmC_15gungraun_runner3apiNtB6_11RawToolArgs18extend_ignore_flagNtNtCslNYArtu3iFV_5alloc6string6StringINtNtNtNtCsgEmfK2I1SDS_4core4iter8adapters3map3MapINtNtNtB24_5array4iter8IntoIterReKj1_ENvYB3e_INtNtB24_7convert4IntoB1j_E4intoEEB8_
FNDA:9899,_RINvMsn_NtCs8iksUjoTkmC_15gungraun_runner3apiNtB6_11RawToolArgs18extend_ignore_flagRNtNtCslNYArtu3iFV_5alloc6string6StringINtNtNtCsgEmfK2I1SDS_4core5slice4iter4IterB1k_EEB8_
FNDA:1733,_RINvMsn_NtCs8iksUjoTkmC_15gungraun_runner3apiNtB6_11RawToolArgs18extend_ignore_flagRNtNtCslNYArtu3iFV_5alloc6string6StringRAB1k_j1_EB8_
FNDA:0,_RINvMsn_NtCs8iksUjoTkmC_15gungraun_runner3apiNtB6_11RawToolArgs3newNtNtCslNYArtu3iFV_5alloc6string6StringINtNtB17_3vec3VecB13_EEB8_
FNDA:32,_RINvMsn_NtCs8iksUjoTkmC_15gungraun_runner3apiNtB6_11RawToolArgs3newReAB13_j1_EB8_
FNDA:366,_RINvNtCs8iksUjoTkmC_15gungraun_runner3api13update_optionINtNtCslNYArtu3iFV_5alloc3vec3VecNtNtBX_6string6StringEEB4_
FNDA:366,_RINvNtCs8iksUjoTkmC_15gungraun_runner3api13update_optionNtB2_10EntryPointEB4_
FNDA:2296,_RINvNtCs8iksUjoTkmC_15gungraun_runner3api13update_optionNtB2_12OutputFormatEB4_
FNDA:2296,_RINvNtCs8iksUjoTkmC_15gungraun_runner3api13update_optionNtB2_12ValgrindToolEB4_
FNDA:366,_RINvNtCs8iksUjoTkmC_15gungraun_runner3api13update_optionNtB2_16ToolOutputFormatEB4_
FNDA:366,_RINvNtCs8iksUjoTkmC_15gungraun_runner3api13update_optionNtB2_20ToolFlamegraphConfigEB4_
FNDA:366,_RINvNtCs8iksUjoTkmC_15gungraun_runner3api13update_optionNtB2_20ToolRegressionConfigEB4_
FNDA:547,_RINvNtCs8iksUjoTkmC_15gungraun_runner3api13update_optionNtB2_7SandboxEB4_
FNDA:547,_RINvNtCs8iksUjoTkmC_15gungraun_runner3api13update_optionNtB2_8ExitWithEB4_
FNDA:547,_RINvNtCs8iksUjoTkmC_15gungraun_runner3api13update_optionNtNtCsjrHSEGnQ3l9_3std4path7PathBufEB4_
FNDA:3575,_RINvNtCs8iksUjoTkmC_15gungraun_runner3api13update_optionbEB4_
FNDA:32,_RINvXso_NtCs8iksUjoTkmC_15gungraun_runner3apiNtB6_11RawToolArgsINtNtNtNtCsgEmfK2I1SDS_4core4iter6traits7collect12FromIteratorNtNtCslNYArtu3iFV_5alloc6string6StringE9from_iterINtNtNtB16_8adapters3map3MapINtNtNtB18_5array4iter8IntoIterReKj1_ENvYB3J_INtNtB18_7convert4IntoB1Z_E4intoEEB8_
FNDA:0,_RINvXso_NtCs8iksUjoTkmC_15gungraun_runner3apiNtB6_11RawToolArgsINtNtNtNtCsgEmfK2I1SDS_4core4iter6traits7collect12FromIteratorNtNtCslNYArtu3iFV_5alloc6string6StringE9from_iterINtNtNtB16_8adapters3map3MapINtNtNtB23_3vec9into_iter8IntoIterB1Z_ENvYB1Z_INtNtB18_7convert4IntoB1Z_E4intoEEB8_
FNDA:0,_RNCINvMsn_NtCs8iksUjoTkmC_15gungraun_runner3apiNtB8_11RawToolArgs18extend_ignore_flagNtNtCslNYArtu3iFV_5alloc6string6StringINtNtNtNtCsgEmfK2I1SDS_4core4iter8adapters3map3MapINtNtNtB1p_3vec9into_iter8IntoIterB1l_ENvYB1l_INtNtB26_7convert4IntoB1l_E4intoEE0Ba_
FNDA:32,_RNCINvMsn_NtCs8iksUjoTkmC_15gungraun_runner3apiNtB8_11RawToolArgs18extend_ignore_flagNtNtCslNYArtu3iFV_5alloc6string6StringINtNtNtNtCsgEmfK2I1SDS_4core4iter8adapters3map3MapINtNtNtB26_5array4iter8IntoIterReKj1_ENvYB3g_INtNtB26_7convert4IntoB1l_E4intoEE0Ba_
FNDA:3313,_RNCINvMsn_NtCs8iksUjoTkmC_15gungraun_runner3apiNtB8_11RawToolArgs18extend_ignore_flagRNtNtCslNYArtu3iFV_5alloc6string6StringINtNtNtCsgEmfK2I1SDS_4core5slice4iter4IterB1m_EE0Ba_
FNDA:1733,_RNCINvMsn_NtCs8iksUjoTkmC_15gungraun_runner3apiNtB8_11RawToolArgs18extend_ignore_flagRNtNtCslNYArtu3iFV_5alloc6string6StringRAB1m_j1_E0Ba_
FNDA:262,_RNCINvNtCs8iksUjoTkmC_15gungraun_runner3api13update_optionINtNtCslNYArtu3iFV_5alloc3vec3VecNtNtBZ_6string6StringEE0B6_
FNDA:322,_RNCINvNtCs8iksUjoTkmC_15gungraun_runner3api13update_optionNtB4_10EntryPointE0B6_
FNDA:2147,_RNCINvNtCs8iksUjoTkmC_15gungraun_runner3api13update_optionNtB4_12OutputFormatE0B6_
FNDA:1680,_RNCINvNtCs8iksUjoTkmC_15gungraun_runner3api13update_optionNtB4_12ValgrindToolE0B6_
FNDA:366,_RNCINvNtCs8iksUjoTkmC_15gungraun_runner3api13update_optionNtB4_16ToolOutputFormatE0B6_
FNDA:222,_RNCINvNtCs8iksUjoTkmC_15gungraun_runner3api13update_optionNtB4_20ToolFlamegraphConfigE0B6_
FNDA:364,_RNCINvNtCs8iksUjoTkmC_15gungraun_runner3api13update_optionNtB4_20ToolRegressionConfigE0B6_
FNDA:472,_RNCINvNtCs8iksUjoTkmC_15gungraun_runner3api13update_optionNtB4_7SandboxE0B6_
FNDA:539,_RNCINvNtCs8iksUjoTkmC_15gungraun_runner3api13update_optionNtB4_8ExitWithE0B6_
FNDA:546,_RNCINvNtCs8iksUjoTkmC_15gungraun_runner3api13update_optionNtNtCsjrHSEGnQ3l9_3std4path7PathBufE0B6_
FNDA:3523,_RNCINvNtCs8iksUjoTkmC_15gungraun_runner3api13update_optionbE0B6_
FNDA:136,_RNCNCNvMNtCs8iksUjoTkmC_15gungraun_runner3apiNtB6_21BinaryBenchmarkConfig12collect_envs00B8_
FNDA:168,_RNCNCNvMsj_NtCs8iksUjoTkmC_15gungraun_runner3apiNtB9_22LibraryBenchmarkConfig12collect_envs00Bb_
FNDA:136,_RNCNvMNtCs8iksUjoTkmC_15gungraun_runner3apiNtB4_21BinaryBenchmarkConfig12collect_envs0B6_
FNDA:897,_RNCNvMsA_NtCs8iksUjoTkmC_15gungraun_runner3apiNtB7_5Tools6update0B9_
FNDA:2226,_RNCNvMsA_NtCs8iksUjoTkmC_15gungraun_runner3apiNtB7_5Tools7consume0B9_
FNDA:1470,_RNCNvMsA_NtCs8iksUjoTkmC_15gungraun_runner3apiNtB7_5Tools7consumes_0B9_
FNDA:208,_RNCNvMsj_NtCs8iksUjoTkmC_15gungraun_runner3apiNtB7_22LibraryBenchmarkConfig12collect_envs0B9_
FNDA:0,_RNCNvMsp_NtCs8iksUjoTkmC_15gungraun_runner3apiNtB7_5Stdin5apply0B9_
FNDA:0,_RNCNvMsp_NtCs8iksUjoTkmC_15gungraun_runner3apiNtB7_5Stdin5applys_0B9_
FNDA:0,_RNCNvMsu_NtCs8iksUjoTkmC_15gungraun_runner3apiNtB7_5Stdio5apply0B9_
FNDA:0,_RNCNvMsu_NtCs8iksUjoTkmC_15gungraun_runner3apiNtB7_5Stdio5applys_0B9_
FNDA:761,_RNvMNtCs8iksUjoTkmC_15gungraun_runner3apiNtB2_21BinaryBenchmarkConfig12collect_envs
FNDA:403,_RNvMNtCs8iksUjoTkmC_15gungraun_runner3apiNtB2_21BinaryBenchmarkConfig12resolve_envs
FNDA:1500,_RNvMsA_NtCs8iksUjoTkmC_15gungraun_runner3apiNtB5_5Tools17update_from_other
FNDA:1646,_RNvMsA_NtCs8iksUjoTkmC_15gungraun_runner3apiNtB5_5Tools6update
FNDA:2941,_RNvMsA_NtCs8iksUjoTkmC_15gungraun_runner3apiNtB5_5Tools7consume
FNDA:2267,_RNvMsA_NtCs8iksUjoTkmC_15gungraun_runner3apiNtB5_5Tools8is_empty
FNDA:329005,_RNvMsB_NtCs8iksUjoTkmC_15gungraun_runner3apiNtB5_12ValgrindTool2id
FNDA:0,_RNvMs_NtCs8iksUjoTkmC_15gungraun_runner3apiNtB4_16CachegrindMetric7to_name
FNDA:1236,_RNvMsc_NtCs8iksUjoTkmC_15gungraun_runner3apiNtB5_9EventKind7to_name
FNDA:1340,_RNvMsj_NtCs8iksUjoTkmC_15gungraun_runner3apiNtB5_22LibraryBenchmarkConfig12collect_envs
FNDA:2442,_RNvMsj_NtCs8iksUjoTkmC_15gungraun_runner3apiNtB5_22LibraryBenchmarkConfig12resolve_envs
FNDA:7237,_RNvMsn_NtCs8iksUjoTkmC_15gungraun_runner3apiNtB5_11RawToolArgs6update
FNDA:0,_RNvMsn_NtCs8iksUjoTkmC_15gungraun_runner3apiNtB5_11RawToolArgs7prepend
FNDA:0,_RNvMsn_NtCs8iksUjoTkmC_15gungraun_runner3apiNtB5_11RawToolArgs8is_empty
FNDA:397,_RNvMsp_NtCs8iksUjoTkmC_15gungraun_runner3apiNtB5_5Stdin5apply
FNDA:435,_RNvMsu_NtCs8iksUjoTkmC_15gungraun_runner3apiNtB5_5Stdio5apply
FNDA:366,_RNvMsz_NtCs8iksUjoTkmC_15gungraun_runner3apiNtB5_4Tool6update
FNDA:1408,_RNvXs0_NtCs8iksUjoTkmC_15gungraun_runner3apiNtB5_16CachegrindMetricNtNtCsgEmfK2I1SDS_4core3fmt7Display3fmt
FNDA:22,_RNvXs1_NtCs8iksUjoTkmC_15gungraun_runner3apiNtB5_16CachegrindMetricNtNtNtB7_6runner7metrics11TypeChecker6is_int
FNDA:2,_RNvXs1_NtCs8iksUjoTkmC_15gungraun_runner3apiNtB5_16CachegrindMetricNtNtNtB7_6runner7metrics11TypeChecker8is_float
FNDA:5278,_RNvXs5_NtCs8iksUjoTkmC_15gungraun_runner3apiNtB5_10DhatMetricNtNtCsgEmfK2I1SDS_4core3fmt7Display3fmt
FNDA:1751,_RNvXs5a_NtCs8iksUjoTkmC_15gungraun_runner3apiNtB6_16CachegrindMetricNtNtNtCsgEmfK2I1SDS_4core3str6traits7FromStr8from_str
FNDA:6,_RNvXs5b_NtCs8iksUjoTkmC_15gungraun_runner3apiNtB6_17CachegrindMetricsNtNtNtCsgEmfK2I1SDS_4core3str6traits7FromStr8from_str
FNDA:6,_RNvXs5c_NtCs8iksUjoTkmC_15gungraun_runner3apiNtB6_16CallgrindMetricsNtNtNtCsgEmfK2I1SDS_4core3str6traits7FromStr8from_str
FNDA:12,_RNvXs5d_NtCs8iksUjoTkmC_15gungraun_runner3apiNtB6_10DhatMetricNtNtNtCsgEmfK2I1SDS_4core3str6traits7FromStr8from_str
FNDA:12,_RNvXs5e_NtCs8iksUjoTkmC_15gungraun_runner3apiNtB6_11DhatMetricsNtNtNtCsgEmfK2I1SDS_4core3str6traits7FromStr8from_str
FNDA:6,_RNvXs5f_NtCs8iksUjoTkmC_15gungraun_runner3apiNtB6_11ErrorMetricNtNtNtCsgEmfK2I1SDS_4core3str6traits7FromStr8from_str
FNDA:60067,_RNvXs5g_NtCs8iksUjoTkmC_15gungraun_runner3apiNtB6_9EventKindNtNtNtCsgEmfK2I1SDS_4core3str6traits7FromStr8from_str
FNDA:118,_RNvXs7_NtCs8iksUjoTkmC_15gungraun_runner3apiNtB5_10DhatMetricNtNtNtB7_6runner7metrics11TypeChecker6is_int
FNDA:2,_RNvXs7_NtCs8iksUjoTkmC_15gungraun_runner3apiNtB5_10DhatMetricNtNtNtB7_6runner7metrics11TypeChecker8is_float
FNDA:8457,_RNvXsC_NtCs8iksUjoTkmC_15gungraun_runner3apiNtB5_12ValgrindToolNtNtCsgEmfK2I1SDS_4core3fmt7Display3fmt
FNDA:8,_RNvXsD_NtCs8iksUjoTkmC_15gungraun_runner3apiNtB5_12ValgrindToolNtNtNtCsgEmfK2I1SDS_4core3str6traits7FromStr8from_str
FNDA:8,_RNvXsE_NtCs8iksUjoTkmC_15gungraun_runner3apiNtB5_12ValgrindToolINtNtCsgEmfK2I1SDS_4core7convert7TryFromReE8try_from
FNDA:5570,_RNvXsa_NtCs8iksUjoTkmC_15gungraun_runner3apiNtB5_11ErrorMetricNtNtCsgEmfK2I1SDS_4core3fmt7Display3fmt
FNDA:17906,_RNvXsd_NtCs8iksUjoTkmC_15gungraun_runner3apiNtB5_9EventKindNtNtCsgEmfK2I1SDS_4core3fmt7Display3fmt
FNDA:976,_RNvXse_NtCs8iksUjoTkmC_15gungraun_runner3apiNtB5_9EventKindINtNtCsgEmfK2I1SDS_4core7convert4FromNtB5_16CachegrindMetricE4from
FNDA:24,_RNvXsf_NtCs8iksUjoTkmC_15gungraun_runner3apiNtB5_9EventKindNtNtNtB7_6runner7metrics11TypeChecker6is_int
FNDA:2,_RNvXsf_NtCs8iksUjoTkmC_15gungraun_runner3apiNtB5_9EventKindNtNtNtB7_6runner7metrics11TypeChecker8is_float
FNDA:0,_RNvXss_NtCs8iksUjoTkmC_15gungraun_runner3apiNtB5_5StdinINtNtCsgEmfK2I1SDS_4core7convert4FromRNtNtCsjrHSEGnQ3l9_3std4path7PathBufE4from
FNDA:0,_RNvXst_NtCs8iksUjoTkmC_15gungraun_runner3apiNtB5_5StdinINtNtCsgEmfK2I1SDS_4core7convert4FromRNtNtCsjrHSEGnQ3l9_3std4path4PathE4from
FNDA:0,_RNvXsw_NtCs8iksUjoTkmC_15gungraun_runner3apiNtB5_5StdioINtNtCsgEmfK2I1SDS_4core7convert4FromRNtNtCsjrHSEGnQ3l9_3std4path7PathBufE4from
FNDA:0,_RNvXsx_NtCs8iksUjoTkmC_15gungraun_runner3apiNtB5_5StdioINtNtCsgEmfK2I1SDS_4core7convert4FromRNtNtCsjrHSEGnQ3l9_3std4path4PathE4from
FNDA:0,_RNvXsy_NtCs8iksUjoTkmC_15gungraun_runner3apiNtB5_6StreamNtNtCsgEmfK2I1SDS_4core3fmt7Display3fmt
FNDA:164,_RNvMsc_NtCs8iksUjoTkmC_15gungraun_runner3apiNtB5_9EventKind10is_derived
FNDA:7858,_RNvMsB_NtCs8iksUjoTkmC_15gungraun_runner3apiNtB5_12ValgrindTool14has_xleak_file
FNDA:7858,_RNvMsB_NtCs8iksUjoTkmC_15gungraun_runner3apiNtB5_12ValgrindTool14has_xtree_file
FNDA:0,_RINvMsz_NtCs8iksUjoTkmC_15gungraun_runner3apiNtB6_4Tool9with_argsppEB8_
FNDA:0,_RNvMs_NtCs8iksUjoTkmC_15gungraun_runner3apiNtB4_16CachegrindMetric10is_derived
FNDA:0,_RNvXININtCs8iksUjoTkmC_15gungraun_runner3apis9_0pENtB5_10EntryPointINtNtCsgEmfK2I1SDS_4core7convert4FrompE4fromB7_
FNDA:0,_RNvXs2_NtCs8iksUjoTkmC_15gungraun_runner3apiNtB5_17CachegrindMetricsINtNtCsgEmfK2I1SDS_4core7convert4FromNtB5_16CachegrindMetricE4from
FNDA:0,_RNvXs3_NtCs8iksUjoTkmC_15gungraun_runner3apiNtB5_16CallgrindMetricsINtNtCsgEmfK2I1SDS_4core7convert4FromNtB5_9EventKindE4from
FNDA:0,_RNvXs4_NtCs8iksUjoTkmC_15gungraun_runner3apiNtB5_9DelayKindNtNtCsgEmfK2I1SDS_4core7default7Default7default
FNDA:0,_RNvXs8_NtCs8iksUjoTkmC_15gungraun_runner3apiNtB5_11DhatMetricsINtNtCsgEmfK2I1SDS_4core7convert4FromNtB5_10DhatMetricE4from
FNDA:0,_RNvXsk_NtCs8iksUjoTkmC_15gungraun_runner3apiNtB5_5LimitINtNtCsgEmfK2I1SDS_4core7convert4FromNtNtNtB7_6runner7metrics6MetricE4from
FNDA:0,_RNvXsl_NtCs8iksUjoTkmC_15gungraun_runner3apiNtB5_5LimitINtNtCsgEmfK2I1SDS_4core7convert4FromdE4from
FNDA:0,_RNvXsm_NtCs8iksUjoTkmC_15gungraun_runner3apiNtB5_5LimitINtNtCsgEmfK2I1SDS_4core7convert4FromyE4from
FNDA:0,_RNvXsq_NtCs8iksUjoTkmC_15gungraun_runner3apiNtB5_5StdinINtNtCsgEmfK2I1SDS_4core7convert4FromNtB5_5StdioE4from
FNDA:0,_RNvXsr_NtCs8iksUjoTkmC_15gungraun_runner3apiNtB5_5StdinINtNtCsgEmfK2I1SDS_4core7convert4FromNtNtCsjrHSEGnQ3l9_3std4path7PathBufE4from
FNDA:0,_RNvXsv_NtCs8iksUjoTkmC_15gungraun_runner3apiNtB5_5StdioINtNtCsgEmfK2I1SDS_4core7convert4FromNtNtCsjrHSEGnQ3l9_3std4path7PathBufE4from
FNDA:14824,_RNvMsB_NtCs8iksUjoTkmC_15gungraun_runner3apiNtB5_12ValgrindTool15has_output_file
FNDA:1,_RINvMsn_NtCs6wj2z9XdCGO_15gungraun_runner3apiNtB6_11RawToolArgs18extend_ignore_flagReAB1j_j1_ECshmjPteO6TPM_30test_bin_bench_client_requests
FNDA:1,_RINvMsz_NtCs6wj2z9XdCGO_15gungraun_runner3apiNtB6_4Tool9with_argsReAB11_j1_ECshmjPteO6TPM_30test_bin_bench_client_requests
FNDA:1,_RINvXso_NtCs6wj2z9XdCGO_15gungraun_runner3apiNtB6_11RawToolArgsINtNtNtNtCsgEmfK2I1SDS_4core4iter6traits7collect12FromIteratorReE9from_iterAB1Z_j1_ECshmjPteO6TPM_30test_bin_bench_client_requests
FNDA:1,_RNCINvMsn_NtCs6wj2z9XdCGO_15gungraun_runner3apiNtB8_11RawToolArgs18extend_ignore_flagReAB1l_j1_E0CshmjPteO6TPM_30test_bin_bench_client_requests
FNDA:1,_RNCINvMsn_NtCs6wj2z9XdCGO_15gungraun_runner3apiNtB8_11RawToolArgs18extend_ignore_flagReAB1l_j1_Es_0CshmjPteO6TPM_30test_bin_bench_client_requests
FNDA:4,_RINvMsn_NtCs6wj2z9XdCGO_15gungraun_runner3apiNtB6_11RawToolArgs18extend_ignore_flagReAB1j_j1_ECs2kIrzMO5j5D_20test_bin_bench_paths
FNDA:4,_RINvMsz_NtCs6wj2z9XdCGO_15gungraun_runner3apiNtB6_4Tool9with_argsReAB11_j1_ECs2kIrzMO5j5D_20test_bin_bench_paths
FNDA:4,_RINvXso_NtCs6wj2z9XdCGO_15gungraun_runner3apiNtB6_11RawToolArgsINtNtNtNtCsgEmfK2I1SDS_4core4iter6traits7collect12FromIteratorReE9from_iterAB1Z_j1_ECs2kIrzMO5j5D_20test_bin_bench_paths
FNDA:4,_RNCINvMsn_NtCs6wj2z9XdCGO_15gungraun_runner3apiNtB8_11RawToolArgs18extend_ignore_flagReAB1l_j1_E0Cs2kIrzMO5j5D_20test_bin_bench_paths
FNDA:4,_RNCINvMsn_NtCs6wj2z9XdCGO_15gungraun_runner3apiNtB8_11RawToolArgs18extend_ignore_flagReAB1l_j1_Es_0Cs2kIrzMO5j5D_20test_bin_bench_paths
FNDA:6,_RINvMsn_NtCs6wj2z9XdCGO_15gungraun_runner3apiNtB6_11RawToolArgs18extend_ignore_flagReAB1j_j1_ECsESj1Ic3GMS_20test_bin_bench_tools
FNDA:4,_RINvMsz_NtCs6wj2z9XdCGO_15gungraun_runner3apiNtB6_4Tool9with_argsReAB11_j1_ECsESj1Ic3GMS_20test_bin_bench_tools
FNDA:4,_RINvXso_NtCs6wj2z9XdCGO_15gungraun_runner3apiNtB6_11RawToolArgsINtNtNtNtCsgEmfK2I1SDS_4core4iter6traits7collect12FromIteratorReE9from_iterAB1Z_j1_ECsESj1Ic3GMS_20test_bin_bench_tools
FNDA:6,_RNCINvMsn_NtCs6wj2z9XdCGO_15gungraun_runner3apiNtB8_11RawToolArgs18extend_ignore_flagReAB1l_j1_E0CsESj1Ic3GMS_20test_bin_bench_tools
FNDA:6,_RNCINvMsn_NtCs6wj2z9XdCGO_15gungraun_runner3apiNtB8_11RawToolArgs18extend_ignore_flagReAB1l_j1_Es_0CsESj1Ic3GMS_20test_bin_bench_tools
FNDA:18,_RNCINvMsn_NtCs6wj2z9XdCGO_15gungraun_runner3apiNtB8_11RawToolArgs18extend_ignore_flagReAB1l_j1_Es_0Cs6YU0dyphpgt_23test_lib_bench_all_args
FNDA:8,_RNCINvMsn_NtCs6wj2z9XdCGO_15gungraun_runner3apiNtB8_11RawToolArgs18extend_ignore_flagReAB1l_j2_Es_0Cs6YU0dyphpgt_23test_lib_bench_all_args
FNDA:32,_RNCINvMsn_NtCs6wj2z9XdCGO_15gungraun_runner3apiNtB8_11RawToolArgs18extend_ignore_flagReAB1l_j4_Es_0Cs6YU0dyphpgt_23test_lib_bench_all_args
FNDA:30,_RNCINvMsn_NtCs6wj2z9XdCGO_15gungraun_runner3apiNtB8_11RawToolArgs18extend_ignore_flagReAB1l_j5_Es_0Cs6YU0dyphpgt_23test_lib_bench_all_args
FNDA:12,_RNCINvMsn_NtCs6wj2z9XdCGO_15gungraun_runner3apiNtB8_11RawToolArgs18extend_ignore_flagReAB1l_j6_Es_0Cs6YU0dyphpgt_23test_lib_bench_all_args
FNDA:18,_RINvMsn_NtCs6wj2z9XdCGO_15gungraun_runner3apiNtB6_11RawToolArgs18extend_ignore_flagReAB1j_j1_ECs6YU0dyphpgt_23test_lib_bench_all_args
FNDA:4,_RINvMsn_NtCs6wj2z9XdCGO_15gungraun_runner3apiNtB6_11RawToolArgs18extend_ignore_flagReAB1j_j2_ECs6YU0dyphpgt_23test_lib_bench_all_args
FNDA:8,_RINvMsn_NtCs6wj2z9XdCGO_15gungraun_runner3apiNtB6_11RawToolArgs18extend_ignore_flagReAB1j_j4_ECs6YU0dyphpgt_23test_lib_bench_all_args
FNDA:6,_RINvMsn_NtCs6wj2z9XdCGO_15gungraun_runner3apiNtB6_11RawToolArgs18extend_ignore_flagReAB1j_j5_ECs6YU0dyphpgt_23test_lib_bench_all_args
FNDA:2,_RINvMsn_NtCs6wj2z9XdCGO_15gungraun_runner3apiNtB6_11RawToolArgs18extend_ignore_flagReAB1j_j6_ECs6YU0dyphpgt_23test_lib_bench_all_args
FNDA:18,_RINvMsz_NtCs6wj2z9XdCGO_15gungraun_runner3apiNtB6_4Tool9with_argsReAB11_j1_ECs6YU0dyphpgt_23test_lib_bench_all_args
FNDA:4,_RINvMsz_NtCs6wj2z9XdCGO_15gungraun_runner3apiNtB6_4Tool9with_argsReAB11_j2_ECs6YU0dyphpgt_23test_lib_bench_all_args
FNDA:8,_RINvMsz_NtCs6wj2z9XdCGO_15gungraun_runner3apiNtB6_4Tool9with_argsReAB11_j4_ECs6YU0dyphpgt_23test_lib_bench_all_args
FNDA:6,_RINvMsz_NtCs6wj2z9XdCGO_15gungraun_runner3apiNtB6_4Tool9with_argsReAB11_j5_ECs6YU0dyphpgt_23test_lib_bench_all_args
FNDA:2,_RINvMsz_NtCs6wj2z9XdCGO_15gungraun_runner3apiNtB6_4Tool9with_argsReAB11_j6_ECs6YU0dyphpgt_23test_lib_bench_all_args
FNDA:18,_RINvXso_NtCs6wj2z9XdCGO_15gungraun_runner3apiNtB6_11RawToolArgsINtNtNtNtCsgEmfK2I1SDS_4core4iter6traits7collect12FromIteratorReE9from_iterAB1Z_j1_ECs6YU0dyphpgt_23test_lib_bench_all_args
FNDA:4,_RINvXso_NtCs6wj2z9XdCGO_15gungraun_runner3apiNtB6_11RawToolArgsINtNtNtNtCsgEmfK2I1SDS_4core4iter6traits7collect12FromIteratorReE9from_iterAB1Z_j2_ECs6YU0dyphpgt_23test_lib_bench_all_args
FNDA:8,_RINvXso_NtCs6wj2z9XdCGO_15gungraun_runner3apiNtB6_11RawToolArgsINtNtNtNtCsgEmfK2I1SDS_4core4iter6traits7collect12FromIteratorReE9from_iterAB1Z_j4_ECs6YU0dyphpgt_23test_lib_bench_all_args
FNDA:6,_RINvXso_NtCs6wj2z9XdCGO_15gungraun_runner3apiNtB6_11RawToolArgsINtNtNtNtCsgEmfK2I1SDS_4core4iter6traits7collect12FromIteratorReE9from_iterAB1Z_j5_ECs6YU0dyphpgt_23test_lib_bench_all_args
FNDA:2,_RINvXso_NtCs6wj2z9XdCGO_15gungraun_runner3apiNtB6_11RawToolArgsINtNtNtNtCsgEmfK2I1SDS_4core4iter6traits7collect12FromIteratorReE9from_iterAB1Z_j6_ECs6YU0dyphpgt_23test_lib_bench_all_args
FNDA:18,_RNCINvMsn_NtCs6wj2z9XdCGO_15gungraun_runner3apiNtB8_11RawToolArgs18extend_ignore_flagReAB1l_j1_E0Cs6YU0dyphpgt_23test_lib_bench_all_args
FNDA:8,_RNCINvMsn_NtCs6wj2z9XdCGO_15gungraun_runner3apiNtB8_11RawToolArgs18extend_ignore_flagReAB1l_j2_E0Cs6YU0dyphpgt_23test_lib_bench_all_args
FNDA:32,_RNCINvMsn_NtCs6wj2z9XdCGO_15gungraun_runner3apiNtB8_11RawToolArgs18extend_ignore_flagReAB1l_j4_E0Cs6YU0dyphpgt_23test_lib_bench_all_args
FNDA:30,_RNCINvMsn_NtCs6wj2z9XdCGO_15gungraun_runner3apiNtB8_11RawToolArgs18extend_ignore_flagReAB1l_j5_E0Cs6YU0dyphpgt_23test_lib_bench_all_args
FNDA:12,_RNCINvMsn_NtCs6wj2z9XdCGO_15gungraun_runner3apiNtB8_11RawToolArgs18extend_ignore_flagReAB1l_j6_E0Cs6YU0dyphpgt_23test_lib_bench_all_args
FNDA:4,_RINvMsn_NtCs6wj2z9XdCGO_15gungraun_runner3apiNtB6_11RawToolArgs18extend_ignore_flagReAB1j_j1_ECs7z5v2rxpQZL_24test_lib_bench_cache_sim
FNDA:4,_RINvMsz_NtCs6wj2z9XdCGO_15gungraun_runner3apiNtB6_4Tool9with_argsReAB11_j1_ECs7z5v2rxpQZL_24test_lib_bench_cache_sim
FNDA:4,_RINvXso_NtCs6wj2z9XdCGO_15gungraun_runner3apiNtB6_11RawToolArgsINtNtNtNtCsgEmfK2I1SDS_4core4iter6traits7collect12FromIteratorReE9from_iterAB1Z_j1_ECs7z5v2rxpQZL_24test_lib_bench_cache_sim
FNDA:4,_RNCINvMsn_NtCs6wj2z9XdCGO_15gungraun_runner3apiNtB8_11RawToolArgs18extend_ignore_flagReAB1l_j1_E0Cs7z5v2rxpQZL_24test_lib_bench_cache_sim
FNDA:4,_RNCINvMsn_NtCs6wj2z9XdCGO_15gungraun_runner3apiNtB8_11RawToolArgs18extend_ignore_flagReAB1l_j1_Es_0Cs7z5v2rxpQZL_24test_lib_bench_cache_sim
FNDA:21,_RINvMsn_NtCs6wj2z9XdCGO_15gungraun_runner3apiNtB6_11RawToolArgs18extend_ignore_flagReAB1j_j1_ECs8yiUObqj2IT_25test_lib_bench_cachegrind
FNDA:21,_RINvMsz_NtCs6wj2z9XdCGO_15gungraun_runner3apiNtB6_4Tool9with_argsReAB11_j1_ECs8yiUObqj2IT_25test_lib_bench_cachegrind
FNDA:21,_RINvXso_NtCs6wj2z9XdCGO_15gungraun_runner3apiNtB6_11RawToolArgsINtNtNtNtCsgEmfK2I1SDS_4core4iter6traits7collect12FromIteratorReE9from_iterAB1Z_j1_ECs8yiUObqj2IT_25test_lib_bench_cachegrind
FNDA:21,_RNCINvMsn_NtCs6wj2z9XdCGO_15gungraun_runner3apiNtB8_11RawToolArgs18extend_ignore_flagReAB1l_j1_E0Cs8yiUObqj2IT_25test_lib_bench_cachegrind
FNDA:21,_RNCINvMsn_NtCs6wj2z9XdCGO_15gungraun_runner3apiNtB8_11RawToolArgs18extend_ignore_flagReAB1l_j1_Es_0Cs8yiUObqj2IT_25test_lib_bench_cachegrind
FNDA:28,_RINvMsn_NtCs6wj2z9XdCGO_15gungraun_runner3apiNtB6_11RawToolArgs18extend_ignore_flagReAB1j_j1_ECsdKf70vbdxnR_25test_lib_bench_cachegrind
FNDA:28,_RINvMsz_NtCs6wj2z9XdCGO_15gungraun_runner3apiNtB6_4Tool9with_argsReAB11_j1_ECsdKf70vbdxnR_25test_lib_bench_cachegrind
FNDA:28,_RINvXso_NtCs6wj2z9XdCGO_15gungraun_runner3apiNtB6_11RawToolArgsINtNtNtNtCsgEmfK2I1SDS_4core4iter6traits7collect12FromIteratorReE9from_iterAB1Z_j1_ECsdKf70vbdxnR_25test_lib_bench_cachegrind
FNDA:28,_RNCINvMsn_NtCs6wj2z9XdCGO_15gungraun_runner3apiNtB8_11RawToolArgs18extend_ignore_flagReAB1l_j1_E0CsdKf70vbdxnR_25test_lib_bench_cachegrind
FNDA:28,_RNCINvMsn_NtCs6wj2z9XdCGO_15gungraun_runner3apiNtB8_11RawToolArgs18extend_ignore_flagReAB1l_j1_Es_0CsdKf70vbdxnR_25test_lib_bench_cachegrind
FNDA:63,_RINvMsn_NtCs6wj2z9XdCGO_15gungraun_runner3apiNtB6_11RawToolArgs18extend_ignore_flagReAB1j_j1_ECsjxIwVVyS6zo_27test_lib_bench_default_tool
FNDA:9,_RINvMsn_NtCs6wj2z9XdCGO_15gungraun_runner3apiNtB6_11RawToolArgs18extend_ignore_flagReAB1j_j2_ECsjxIwVVyS6zo_27test_lib_bench_default_tool
FNDA:63,_RINvMsz_NtCs6wj2z9XdCGO_15gungraun_runner3apiNtB6_4Tool9with_argsReAB11_j1_ECsjxIwVVyS6zo_27test_lib_bench_default_tool
FNDA:9,_RINvMsz_NtCs6wj2z9XdCGO_15gungraun_runner3apiNtB6_4Tool9with_argsReAB11_j2_ECsjxIwVVyS6zo_27test_lib_bench_default_tool
FNDA:63,_RINvXso_NtCs6wj2z9XdCGO_15gungraun_runner3apiNtB6_11RawToolArgsINtNtNtNtCsgEmfK2I1SDS_4core4iter6traits7collect12FromIteratorReE9from_iterAB1Z_j1_ECsjxIwVVyS6zo_27test_lib_bench_default_tool
FNDA:9,_RINvXso_NtCs6wj2z9XdCGO_15gungraun_runner3apiNtB6_11RawToolArgsINtNtNtNtCsgEmfK2I1SDS_4core4iter6traits7collect12FromIteratorReE9from_iterAB1Z_j2_ECsjxIwVVyS6zo_27test_lib_bench_default_tool
FNDA:63,_RNCINvMsn_NtCs6wj2z9XdCGO_15gungraun_runner3apiNtB8_11RawToolArgs18extend_ignore_flagReAB1l_j1_E0CsjxIwVVyS6zo_27test_lib_bench_default_tool
FNDA:18,_RNCINvMsn_NtCs6wj2z9XdCGO_15gungraun_runner3apiNtB8_11RawToolArgs18extend_ignore_flagReAB1l_j2_E0CsjxIwVVyS6zo_27test_lib_bench_default_tool
FNDA:63,_RNCINvMsn_NtCs6wj2z9XdCGO_15gungraun_runner3apiNtB8_11RawToolArgs18extend_ignore_flagReAB1l_j1_Es_0CsjxIwVVyS6zo_27test_lib_bench_default_tool
FNDA:18,_RNCINvMsn_NtCs6wj2z9XdCGO_15gungraun_runner3apiNtB8_11RawToolArgs18extend_ignore_flagReAB1l_j2_Es_0CsjxIwVVyS6zo_27test_lib_bench_default_tool
FNDA:15,_RINvMsn_NtCs6wj2z9XdCGO_15gungraun_runner3apiNtB6_11RawToolArgs18extend_ignore_flagReAB1j_j1_ECs5CucsM3aLVz_19test_lib_bench_dhat
FNDA:15,_RINvMsz_NtCs6wj2z9XdCGO_15gungraun_runner3apiNtB6_4Tool9with_argsReAB11_j1_ECs5CucsM3aLVz_19test_lib_bench_dhat
FNDA:15,_RINvXso_NtCs6wj2z9XdCGO_15gungraun_runner3apiNtB6_11RawToolArgsINtNtNtNtCsgEmfK2I1SDS_4core4iter6traits7collect12FromIteratorReE9from_iterAB1Z_j1_ECs5CucsM3aLVz_19test_lib_bench_dhat
FNDA:15,_RNCINvMsn_NtCs6wj2z9XdCGO_15gungraun_runner3apiNtB8_11RawToolArgs18extend_ignore_flagReAB1l_j1_E0Cs5CucsM3aLVz_19test_lib_bench_dhat
FNDA:15,_RNCINvMsn_NtCs6wj2z9XdCGO_15gungraun_runner3apiNtB8_11RawToolArgs18extend_ignore_flagReAB1l_j1_Es_0Cs5CucsM3aLVz_19test_lib_bench_dhat
FNDA:112,_RNvXs8_NtCs6wj2z9XdCGO_15gungraun_runner3apiNtB5_11DhatMetricsINtNtCsgEmfK2I1SDS_4core7convert4FromNtB5_10DhatMetricE4from
FNDA:108,_RNvXsm_NtCs6wj2z9XdCGO_15gungraun_runner3apiNtB5_5LimitINtNtCsgEmfK2I1SDS_4core7convert4FromyE4from
FNDA:2,_RNvXs9_NtCs6wj2z9XdCGO_15gungraun_runner3apiNtB5_10EntryPointINtNtCsgEmfK2I1SDS_4core7convert4FromReE4fromCs1lw07lG5UE3_26test_lib_bench_entry_point
FNDA:180,_RNCINvMsn_NtCs6wj2z9XdCGO_15gungraun_runner3apiNtB8_11RawToolArgs18extend_ignore_flagReAB1l_j1_Es_0Cs7pdO8TbtBJf_28test_lib_bench_output_format
FNDA:1710,_RNCINvMsn_NtCs6wj2z9XdCGO_15gungraun_runner3apiNtB8_11RawToolArgs18extend_ignore_flagReAB1l_j5_Es_0Cs7pdO8TbtBJf_28test_lib_bench_output_format
FNDA:180,_RINvMsn_NtCs6wj2z9XdCGO_15gungraun_runner3apiNtB6_11RawToolArgs18extend_ignore_flagReAB1j_j1_ECs7pdO8TbtBJf_28test_lib_bench_output_format
FNDA:342,_RINvMsn_NtCs6wj2z9XdCGO_15gungraun_runner3apiNtB6_11RawToolArgs18extend_ignore_flagReAB1j_j5_ECs7pdO8TbtBJf_28test_lib_bench_output_format
FNDA:180,_RINvMsz_NtCs6wj2z9XdCGO_15gungraun_runner3apiNtB6_4Tool9with_argsReAB11_j1_ECs7pdO8TbtBJf_28test_lib_bench_output_format
FNDA:342,_RINvMsz_NtCs6wj2z9XdCGO_15gungraun_runner3apiNtB6_4Tool9with_argsReAB11_j5_ECs7pdO8TbtBJf_28test_lib_bench_output_format
FNDA:180,_RINvXso_NtCs6wj2z9XdCGO_15gungraun_runner3apiNtB6_11RawToolArgsINtNtNtNtCsgEmfK2I1SDS_4core4iter6traits7collect12FromIteratorReE9from_iterAB1Z_j1_ECs7pdO8TbtBJf_28test_lib_bench_output_format
FNDA:342,_RINvXso_NtCs6wj2z9XdCGO_15gungraun_runner3apiNtB6_11RawToolArgsINtNtNtNtCsgEmfK2I1SDS_4core4iter6traits7collect12FromIteratorReE9from_iterAB1Z_j5_ECs7pdO8TbtBJf_28test_lib_bench_output_format
FNDA:180,_RNCINvMsn_NtCs6wj2z9XdCGO_15gungraun_runner3apiNtB8_11RawToolArgs18extend_ignore_flagReAB1l_j1_E0Cs7pdO8TbtBJf_28test_lib_bench_output_format
FNDA:1710,_RNCINvMsn_NtCs6wj2z9XdCGO_15gungraun_runner3apiNtB8_11RawToolArgs18extend_ignore_flagReAB1l_j5_E0Cs7pdO8TbtBJf_28test_lib_bench_output_format
FNDA:538,_RNvXs2_NtCs6wj2z9XdCGO_15gungraun_runner3apiNtB5_17CachegrindMetricsINtNtCsgEmfK2I1SDS_4core7convert4FromNtB5_16CachegrindMetricE4from
FNDA:14,_RINvMsn_NtCs6wj2z9XdCGO_15gungraun_runner3apiNtB6_11RawToolArgs18extend_ignore_flagReAB1j_j2_ECs4TwBZiENj7q_36test_lib_bench_output_format_threads
FNDA:14,_RINvMsz_NtCs6wj2z9XdCGO_15gungraun_runner3apiNtB6_4Tool9with_argsReAB11_j2_ECs4TwBZiENj7q_36test_lib_bench_output_format_threads
FNDA:14,_RINvXso_NtCs6wj2z9XdCGO_15gungraun_runner3apiNtB6_11RawToolArgsINtNtNtNtCsgEmfK2I1SDS_4core4iter6traits7collect12FromIteratorReE9from_iterAB1Z_j2_ECs4TwBZiENj7q_36test_lib_bench_output_format_threads
FNDA:28,_RNCINvMsn_NtCs6wj2z9XdCGO_15gungraun_runner3apiNtB8_11RawToolArgs18extend_ignore_flagReAB1l_j2_E0Cs4TwBZiENj7q_36test_lib_bench_output_format_threads
FNDA:28,_RNCINvMsn_NtCs6wj2z9XdCGO_15gungraun_runner3apiNtB8_11RawToolArgs18extend_ignore_flagReAB1l_j2_Es_0Cs4TwBZiENj7q_36test_lib_bench_output_format_threads
FNDA:20,_RINvMsn_NtCs6wj2z9XdCGO_15gungraun_runner3apiNtB6_11RawToolArgs18extend_ignore_flagReAB1j_j1_ECs3GkULFhPTl3_20test_lib_bench_parts
FNDA:20,_RINvMsz_NtCs6wj2z9XdCGO_15gungraun_runner3apiNtB6_4Tool9with_argsReAB11_j1_ECs3GkULFhPTl3_20test_lib_bench_parts
FNDA:20,_RINvXso_NtCs6wj2z9XdCGO_15gungraun_runner3apiNtB6_11RawToolArgsINtNtNtNtCsgEmfK2I1SDS_4core4iter6traits7collect12FromIteratorReE9from_iterAB1Z_j1_ECs3GkULFhPTl3_20test_lib_bench_parts
FNDA:20,_RNCINvMsn_NtCs6wj2z9XdCGO_15gungraun_runner3apiNtB8_11RawToolArgs18extend_ignore_flagReAB1l_j1_E0Cs3GkULFhPTl3_20test_lib_bench_parts
FNDA:20,_RNCINvMsn_NtCs6wj2z9XdCGO_15gungraun_runner3apiNtB8_11RawToolArgs18extend_ignore_flagReAB1l_j1_Es_0Cs3GkULFhPTl3_20test_lib_bench_parts
FNDA:12,_RINvMsn_NtCs6wj2z9XdCGO_15gungraun_runner3apiNtB6_11RawToolArgs18extend_ignore_flagReAB1j_j1_ECsdx5ekqyKOyr_39test_lib_bench_readme_example_fibonacci
FNDA:12,_RINvMsz_NtCs6wj2z9XdCGO_15gungraun_runner3apiNtB6_4Tool9with_argsReAB11_j1_ECsdx5ekqyKOyr_39test_lib_bench_readme_example_fibonacci
FNDA:12,_RINvXso_NtCs6wj2z9XdCGO_15gungraun_runner3apiNtB6_11RawToolArgsINtNtNtNtCsgEmfK2I1SDS_4core4iter6traits7collect12FromIteratorReE9from_iterAB1Z_j1_ECsdx5ekqyKOyr_39test_lib_bench_readme_example_fibonacci
FNDA:12,_RNCINvMsn_NtCs6wj2z9XdCGO_15gungraun_runner3apiNtB8_11RawToolArgs18extend_ignore_flagReAB1l_j1_E0Csdx5ekqyKOyr_39test_lib_bench_readme_example_fibonacci
FNDA:12,_RNCINvMsn_NtCs6wj2z9XdCGO_15gungraun_runner3apiNtB8_11RawToolArgs18extend_ignore_flagReAB1l_j1_Es_0Csdx5ekqyKOyr_39test_lib_bench_readme_example_fibonacci
FNDA:28,_RINvMsn_NtCs6wj2z9XdCGO_15gungraun_runner3apiNtB6_11RawToolArgs18extend_ignore_flagReAB1j_j1_ECsDX4vT8K5ZE_22test_lib_bench_threads
FNDA:14,_RINvMsn_NtCs6wj2z9XdCGO_15gungraun_runner3apiNtB6_11RawToolArgs18extend_ignore_flagReAB1j_j2_ECsDX4vT8K5ZE_22test_lib_bench_threads
FNDA:28,_RINvMsz_NtCs6wj2z9XdCGO_15gungraun_runner3apiNtB6_4Tool9with_argsReAB11_j1_ECsDX4vT8K5ZE_22test_lib_bench_threads
FNDA:14,_RINvMsz_NtCs6wj2z9XdCGO_15gungraun_runner3apiNtB6_4Tool9with_argsReAB11_j2_ECsDX4vT8K5ZE_22test_lib_bench_threads
FNDA:28,_RINvXso_NtCs6wj2z9XdCGO_15gungraun_runner3apiNtB6_11RawToolArgsINtNtNtNtCsgEmfK2I1SDS_4core4iter6traits7collect12FromIteratorReE9from_iterAB1Z_j1_ECsDX4vT8K5ZE_22test_lib_bench_threads
FNDA:14,_RINvXso_NtCs6wj2z9XdCGO_15gungraun_runner3apiNtB6_11RawToolArgsINtNtNtNtCsgEmfK2I1SDS_4core4iter6traits7collect12FromIteratorReE9from_iterAB1Z_j2_ECsDX4vT8K5ZE_22test_lib_bench_threads
FNDA:28,_RNCINvMsn_NtCs6wj2z9XdCGO_15gungraun_runner3apiNtB8_11RawToolArgs18extend_ignore_flagReAB1l_j1_E0CsDX4vT8K5ZE_22test_lib_bench_threads
FNDA:28,_RNCINvMsn_NtCs6wj2z9XdCGO_15gungraun_runner3apiNtB8_11RawToolArgs18extend_ignore_flagReAB1l_j2_E0CsDX4vT8K5ZE_22test_lib_bench_threads
FNDA:28,_RNCINvMsn_NtCs6wj2z9XdCGO_15gungraun_runner3apiNtB8_11RawToolArgs18extend_ignore_flagReAB1l_j1_Es_0CsDX4vT8K5ZE_22test_lib_bench_threads
FNDA:28,_RNCINvMsn_NtCs6wj2z9XdCGO_15gungraun_runner3apiNtB8_11RawToolArgs18extend_ignore_flagReAB1l_j2_Es_0CsDX4vT8K5ZE_22test_lib_bench_threads
FNDA:42,_RNCINvMsn_NtCs6wj2z9XdCGO_15gungraun_runner3apiNtB8_11RawToolArgs18extend_ignore_flagReAB1l_j1_Es_0Cs9gS9LZhWzrN_29test_lib_bench_threads_nested
FNDA:42,_RINvMsn_NtCs6wj2z9XdCGO_15gungraun_runner3apiNtB6_11RawToolArgs18extend_ignore_flagReAB1j_j1_ECs9gS9LZhWzrN_29test_lib_bench_threads_nested
FNDA:42,_RINvMsz_NtCs6wj2z9XdCGO_15gungraun_runner3apiNtB6_4Tool9with_argsReAB11_j1_ECs9gS9LZhWzrN_29test_lib_bench_threads_nested
FNDA:42,_RINvXso_NtCs6wj2z9XdCGO_15gungraun_runner3apiNtB6_11RawToolArgsINtNtNtNtCsgEmfK2I1SDS_4core4iter6traits7collect12FromIteratorReE9from_iterAB1Z_j1_ECs9gS9LZhWzrN_29test_lib_bench_threads_nested
FNDA:42,_RNCINvMsn_NtCs6wj2z9XdCGO_15gungraun_runner3apiNtB8_11RawToolArgs18extend_ignore_flagReAB1l_j1_E0Cs9gS9LZhWzrN_29test_lib_bench_threads_nested
FNDA:80,_RINvMsn_NtCs6wj2z9XdCGO_15gungraun_runner3apiNtB6_11RawToolArgs18extend_ignore_flagReAB1j_j1_ECs9UO289xOOpF_20test_lib_bench_tools
FNDA:20,_RINvMsn_NtCs6wj2z9XdCGO_15gungraun_runner3apiNtB6_11RawToolArgs18extend_ignore_flagReAB1j_j4_ECs9UO289xOOpF_20test_lib_bench_tools
FNDA:60,_RINvMsz_NtCs6wj2z9XdCGO_15gungraun_runner3apiNtB6_4Tool9with_argsReAB11_j1_ECs9UO289xOOpF_20test_lib_bench_tools
FNDA:20,_RINvMsz_NtCs6wj2z9XdCGO_15gungraun_runner3apiNtB6_4Tool9with_argsReAB11_j4_ECs9UO289xOOpF_20test_lib_bench_tools
FNDA:60,_RINvXso_NtCs6wj2z9XdCGO_15gungraun_runner3apiNtB6_11RawToolArgsINtNtNtNtCsgEmfK2I1SDS_4core4iter6traits7collect12FromIteratorReE9from_iterAB1Z_j1_ECs9UO289xOOpF_20test_lib_bench_tools
FNDA:20,_RINvXso_NtCs6wj2z9XdCGO_15gungraun_runner3apiNtB6_11RawToolArgsINtNtNtNtCsgEmfK2I1SDS_4core4iter6traits7collect12FromIteratorReE9from_iterAB1Z_j4_ECs9UO289xOOpF_20test_lib_bench_tools
FNDA:80,_RNCINvMsn_NtCs6wj2z9XdCGO_15gungraun_runner3apiNtB8_11RawToolArgs18extend_ignore_flagReAB1l_j1_E0Cs9UO289xOOpF_20test_lib_bench_tools
FNDA:80,_RNCINvMsn_NtCs6wj2z9XdCGO_15gungraun_runner3apiNtB8_11RawToolArgs18extend_ignore_flagReAB1l_j4_E0Cs9UO289xOOpF_20test_lib_bench_tools
FNDA:80,_RNCINvMsn_NtCs6wj2z9XdCGO_15gungraun_runner3apiNtB8_11RawToolArgs18extend_ignore_flagReAB1l_j1_Es_0Cs9UO289xOOpF_20test_lib_bench_tools
FNDA:80,_RNCINvMsn_NtCs6wj2z9XdCGO_15gungraun_runner3apiNtB8_11RawToolArgs18extend_ignore_flagReAB1l_j4_Es_0Cs9UO289xOOpF_20test_lib_bench_tools
FNDA:80,_RINvMsn_NtCs6wj2z9XdCGO_15gungraun_runner3apiNtB6_11RawToolArgs18extend_ignore_flagReAB1j_j1_ECs5GZ1064gFxY_20test_lib_bench_xtree
FNDA:60,_RINvMsn_NtCs6wj2z9XdCGO_15gungraun_runner3apiNtB6_11RawToolArgs18extend_ignore_flagReAB1j_j2_ECs5GZ1064gFxY_20test_lib_bench_xtree
FNDA:40,_RINvMsn_NtCs6wj2z9XdCGO_15gungraun_runner3apiNtB6_11RawToolArgs18extend_ignore_flagReAB1j_j3_ECs5GZ1064gFxY_20test_lib_bench_xtree
FNDA:80,_RINvMsz_NtCs6wj2z9XdCGO_15gungraun_runner3apiNtB6_4Tool9with_argsReAB11_j1_ECs5GZ1064gFxY_20test_lib_bench_xtree
FNDA:60,_RINvMsz_NtCs6wj2z9XdCGO_15gungraun_runner3apiNtB6_4Tool9with_argsReAB11_j2_ECs5GZ1064gFxY_20test_lib_bench_xtree
FNDA:40,_RINvMsz_NtCs6wj2z9XdCGO_15gungraun_runner3apiNtB6_4Tool9with_argsReAB11_j3_ECs5GZ1064gFxY_20test_lib_bench_xtree
FNDA:80,_RINvXso_NtCs6wj2z9XdCGO_15gungraun_runner3apiNtB6_11RawToolArgsINtNtNtNtCsgEmfK2I1SDS_4core4iter6traits7collect12FromIteratorReE9from_iterAB1Z_j1_ECs5GZ1064gFxY_20test_lib_bench_xtree
FNDA:60,_RINvXso_NtCs6wj2z9XdCGO_15gungraun_runner3apiNtB6_11RawToolArgsINtNtNtNtCsgEmfK2I1SDS_4core4iter6traits7collect12FromIteratorReE9from_iterAB1Z_j2_ECs5GZ1064gFxY_20test_lib_bench_xtree
FNDA:40,_RINvXso_NtCs6wj2z9XdCGO_15gungraun_runner3apiNtB6_11RawToolArgsINtNtNtNtCsgEmfK2I1SDS_4core4iter6traits7collect12FromIteratorReE9from_iterAB1Z_j3_ECs5GZ1064gFxY_20test_lib_bench_xtree
FNDA:80,_RNCINvMsn_NtCs6wj2z9XdCGO_15gungraun_runner3apiNtB8_11RawToolArgs18extend_ignore_flagReAB1l_j1_E0Cs5GZ1064gFxY_20test_lib_bench_xtree
FNDA:120,_RNCINvMsn_NtCs6wj2z9XdCGO_15gungraun_runner3apiNtB8_11RawToolArgs18extend_ignore_flagReAB1l_j2_E0Cs5GZ1064gFxY_20test_lib_bench_xtree
FNDA:120,_RNCINvMsn_NtCs6wj2z9XdCGO_15gungraun_runner3apiNtB8_11RawToolArgs18extend_ignore_flagReAB1l_j3_E0Cs5GZ1064gFxY_20test_lib_bench_xtree
FNDA:80,_RNCINvMsn_NtCs6wj2z9XdCGO_15gungraun_runner3apiNtB8_11RawToolArgs18extend_ignore_flagReAB1l_j1_Es_0Cs5GZ1064gFxY_20test_lib_bench_xtree
FNDA:120,_RNCINvMsn_NtCs6wj2z9XdCGO_15gungraun_runner3apiNtB8_11RawToolArgs18extend_ignore_flagReAB1l_j2_Es_0Cs5GZ1064gFxY_20test_lib_bench_xtree
FNDA:120,_RNCINvMsn_NtCs6wj2z9XdCGO_15gungraun_runner3apiNtB8_11RawToolArgs18extend_ignore_flagReAB1l_j3_Es_0Cs5GZ1064gFxY_20test_lib_bench_xtree
FNF:81
FNH:61
DA:54,61872
DA:55,61872
DA:56,61872
DA:57,0
DA:58,0
DA:60,61872
DA:61,61872
DA:78,24
DA:79,24
DA:80,24
DA:81,0
DA:82,0
DA:83,0
DA:85,24
DA:87,24
DA:1399,532
DA:1400,532
DA:1401,532
DA:1403,547
DA:1404,547
DA:1405,547
DA:1406,547
DA:1407,547
DA:1409,547
DA:1410,547
DA:1412,547
DA:1414,547
DA:1415,0
DA:1416,547
DA:1417,20
DA:1418,527
DA:1419,527
DA:1420,527
DA:1422,547
DA:1423,547
DA:1424,547
DA:1426,532
DA:1427,532
DA:1433,403
DA:1434,403
DA:1435,403
DA:1440,761
DA:1441,761
DA:1442,761
DA:1443,761
DA:1444,761
DA:1445,761
DA:1467,0
DA:1468,0
DA:1469,0
DA:1484,0
DA:1487,0
DA:1488,0
DA:1489,0
DA:1493,1408
DA:1494,1408
DA:1495,976
DA:1508,976
DA:1509,432
DA:1511,1408
DA:1550,22
DA:1551,22
DA:1569,22
DA:1577,0
DA:1579,22
DA:1581,2
DA:1582,2
DA:1583,2
DA:1587,538
DA:1588,538
DA:1589,538
DA:1611,0
DA:1612,0
DA:1613,0
DA:1638,0
DA:1639,0
DA:1640,0
DA:1644,5278
DA:1645,5278
DA:1646,10
DA:1647,10
DA:1648,698
DA:1649,672
DA:1650,646
DA:1651,646
DA:1652,646
DA:1653,646
DA:1654,658
DA:1655,646
DA:1656,0
DA:1657,0
DA:1658,0
DA:1660,5278
DA:1689,118
DA:1690,118
DA:1691,118
DA:1693,2
DA:1694,2
DA:1695,2
DA:1699,112
DA:1700,112
DA:1701,112
DA:1720,2
DA:1721,2
DA:1722,2
DA:1726,5570
DA:1727,5570
DA:1728,1401
DA:1729,1401
DA:1730,1385
DA:1731,1383
DA:1733,5570
DA:1771,164
DA:1772,164
DA:1773,164
DA:1788,164
DA:1791,1236
DA:1792,1236
DA:1793,1236
DA:1797,17906
DA:1798,17906
DA:1799,2843
DA:1800,2473
DA:1801,2473
DA:1802,2473
DA:1803,2487
DA:1804,2497
DA:1805,96
DA:1806,96
DA:1807,96
DA:1808,96
DA:1809,96
DA:1810,96
DA:1811,96
DA:1812,96
DA:1813,1892
DA:1815,17906
DA:1819,976
DA:1820,976
DA:1821,165
DA:1822,0
DA:1823,0
DA:1824,0
DA:1825,0
DA:1826,0
DA:1827,0
DA:1828,0
DA:1829,0
DA:1830,105
DA:1831,105
DA:1832,105
DA:1833,111
DA:1834,129
DA:1835,0
DA:1836,0
DA:1837,0
DA:1838,0
DA:1839,32
DA:1840,32
DA:1841,32
DA:1842,32
DA:1843,32
DA:1844,32
DA:1845,32
DA:1846,32
DA:1848,976
DA:1898,24
DA:1899,24
DA:1928,24
DA:1936,0
DA:1938,24
DA:1940,2
DA:1941,2
DA:1942,2
DA:1947,9091
DA:1948,9091
DA:1949,9091
DA:1950,0
DA:1951,18
DA:1952,2845
DA:1953,2845
DA:1954,2845
DA:1955,2845
DA:1956,2845
DA:1957,2845
DA:1958,0
DA:1959,0
DA:1960,0
DA:1961,0
DA:1962,0
DA:1963,0
DA:1964,0
DA:1965,0
DA:1966,0
DA:1967,0
DA:1968,0
DA:1969,0
DA:1970,0
DA:1971,0
DA:1972,0
DA:1973,2845
DA:1974,2845
DA:1975,2845
DA:1976,2845
DA:1977,2845
DA:1978,2845
DA:1979,2845
DA:1980,0
DA:1981,0
DA:1982,0
DA:1983,0
DA:1984,0
DA:1985,0
DA:1986,0
DA:1987,0
DA:1988,0
DA:1989,0
DA:1990,0
DA:1991,0
DA:1992,0
DA:1993,0
DA:1994,0
DA:1995,0
DA:1996,2845
DA:1997,2845
DA:1998,2845
DA:1999,2845
DA:2000,2845
DA:2001,2845
DA:2002,2845
DA:2003,2845
DA:2004,538
DA:2005,538
DA:2006,538
DA:2009,9091
DA:2010,9091
DA:2015,2995
DA:2017,2995
DA:2018,0
DA:2019,2845
DA:2020,2845
DA:2021,2845
DA:2022,2845
DA:2023,2845
DA:2024,2845
DA:2025,2845
DA:2026,2845
DA:2027,2845
DA:2028,2845
DA:2029,2845
DA:2030,150
DA:2032,2995
DA:2037,17966
DA:2038,17966
DA:2039,17966
DA:2040,0
DA:2041,36
DA:2042,2881
DA:2043,2881
DA:2044,2881
DA:2045,2881
DA:2046,2881
DA:2047,2881
DA:2048,2881
DA:2049,2881
DA:2050,2881
DA:2051,2881
DA:2052,36
DA:2053,36
DA:2054,36
DA:2055,36
DA:2056,36
DA:2057,36
DA:2058,36
DA:2059,36
DA:2060,36
DA:2061,36
DA:2062,36
DA:2063,36
DA:2064,36
DA:2065,36
DA:2066,36
DA:2067,2917
DA:2068,2917
DA:2069,2917
DA:2070,36
DA:2071,36
DA:2072,36
DA:2073,36
DA:2074,36
DA:2075,36
DA:2076,36
DA:2077,18
DA:2078,18
DA:2079,18
DA:2080,18
DA:2081,18
DA:2082,18
DA:2083,18
DA:2084,18
DA:2085,18
DA:2086,2899
DA:2087,2899
DA:2088,2899
DA:2089,2899
DA:2090,2899
DA:2091,2899
DA:2092,2899
DA:2093,2899
DA:2094,2899
DA:2095,2899
DA:2096,2899
DA:2097,2899
DA:2098,2899
DA:2099,2899
DA:2100,2899
DA:2101,2899
DA:2102,2899
DA:2103,2899
DA:2104,2899
DA:2105,410
DA:2106,410
DA:2107,410
DA:2110,17966
DA:2111,17966
DA:2118,2828
DA:2119,2828
DA:2120,2828
DA:2122,2828
DA:2123,1749
DA:2124,1749
DA:2126,1749
DA:2127,1749
DA:2129,1749
DA:2130,1749
DA:2131,29
DA:2132,1720
DA:2133,1480
DA:2134,1480
DA:2135,240
DA:2136,240
DA:2138,1749
DA:2140,2828
DA:2141,2828
DA:2146,2442
DA:2147,2442
DA:2148,2442
DA:2153,1340
DA:2154,1340
DA:2155,1340
DA:2156,1340
DA:2157,1340
DA:2158,1340
DA:2163,0
DA:2164,0
DA:2165,0
DA:2166,0
DA:2168,0
DA:2172,0
DA:2173,0
DA:2174,0
DA:2178,108
DA:2179,108
DA:2180,108
DA:2185,4304
DA:2186,4304
DA:2187,4304
DA:2190,32
DA:2191,32
DA:2192,32
DA:2193,32
DA:2195,32
DA:2196,32
DA:2199,13127
DA:2200,13127
DA:2201,13127
DA:2202,13127
DA:2204,13127
DA:2205,13127
DA:2206,13127
DA:2207,13127
DA:2208,8010
DA:2209,8010
DA:2210,3743
DA:2212,4267
DA:2214,8010
DA:2216,13127
DA:2219,0
DA:2220,0
DA:2221,0
DA:2224,7237
DA:2225,7237
DA:2226,7237
DA:2229,0
DA:2230,0
DA:2231,0
DA:2232,0
DA:2233,0
DA:2234,0
DA:2235,0
DA:2242,1131
DA:2243,1131
DA:2244,1131
DA:2245,1131
DA:2246,1131
DA:2317,397
DA:2318,397
DA:2319,397
DA:2320,397
DA:2321,397
DA:2322,397
DA:2323,397
DA:2324,397
DA:2325,10
DA:2326,10
DA:2327,10
DA:2328,10
DA:2329,10
DA:2330,10
DA:2332,10
DA:2334,0
DA:2335,0
DA:2336,0
DA:2337,0
DA:2338,0
DA:2339,0
DA:2341,0
DA:2343,387
DA:2344,0
DA:2345,0
DA:2346,0
DA:2348,397
DA:2352,0
DA:2353,0
DA:2354,0
DA:2355,0
DA:2356,0
DA:2357,0
DA:2359,0
DA:2363,0
DA:2364,0
DA:2365,0
DA:2369,0
DA:2370,0
DA:2371,0
DA:2375,0
DA:2376,0
DA:2377,0
DA:2434,435
DA:2435,435
DA:2436,435
DA:2437,435
DA:2438,435
DA:2439,435
DA:2440,435
DA:2441,393
DA:2442,8
DA:2443,8
DA:2444,26
DA:2445,26
DA:2446,20
DA:2448,6
DA:2450,26
DA:2452,0
DA:2453,0
DA:2455,0
DA:2457,0
DA:2460,26
DA:2461,0
DA:2463,0
DA:2465,0
DA:2471,435
DA:2472,387
DA:2473,31
DA:2474,17
DA:2477,435
DA:2478,435
DA:2482,0
DA:2483,0
DA:2484,0
DA:2488,0
DA:2489,0
DA:2490,0
DA:2494,0
DA:2495,0
DA:2496,0
DA:2501,0
DA:2502,0
DA:2503,0
DA:2508,2365
DA:2509,2365
DA:2510,2365
DA:2511,2365
DA:2512,2365
DA:2513,2365
DA:2514,2365
DA:2515,2365
DA:2516,2365
DA:2517,2365
DA:2518,2365
DA:2519,2365
DA:2520,2365
DA:2523,1099
DA:2524,1099
DA:2525,1099
DA:2526,1099
DA:2528,1099
DA:2529,1099
DA:2530,1099
DA:2531,1099
DA:2534,708
DA:2535,708
DA:2536,708
DA:2537,708
DA:2538,708
DA:2539,708
DA:2540,708
DA:2541,708
DA:2542,708
DA:2543,708
DA:2544,708
DA:2545,708
DA:2546,708
DA:2547,708
DA:2548,708
DA:2549,708
DA:2554,2267
DA:2555,2267
DA:2556,2267
DA:2559,3923
DA:2560,3923
DA:2561,708
DA:2562,3215
DA:2563,3215
DA:2564,3215
DA:2565,3923
DA:2568,1500
DA:2569,1500
DA:2570,1500
DA:2572,1646
DA:2573,1646
DA:2574,1646
DA:2575,1500
DA:2578,1500
DA:2579,1500
DA:2580,1500
DA:2584,2941
DA:2585,2941
DA:2586,2941
DA:2587,2941
DA:2588,2941
DA:2589,2941
DA:2594,329021
DA:2595,329021
DA:2596,48471
DA:2597,84565
DA:2598,54923
DA:2599,14635
DA:2600,34607
DA:2601,47486
DA:2602,40253
DA:2603,4081
DA:2605,329021
DA:2608,14824
DA:2609,3007
DA:2610,14824
DA:2613,14824
DA:2616,7858
DA:2617,7858
DA:2618,7858
DA:2621,7858
DA:2622,7858
DA:2623,7858
DA:2627,8457
DA:2628,8457
DA:2629,8457
DA:2636,8
DA:2637,8
DA:2638,8
DA:2645,8
DA:2646,8
DA:2647,8
DA:2648,8
DA:2649,8
DA:2650,6
DA:2651,2
DA:2652,0
DA:2653,0
DA:2654,0
DA:2655,0
DA:2657,8
DA:2661,14032
DA:2662,14032
DA:2663,14032
BRF:0
BRH:0
LF:610
LH:467
end_of_record
SF:/fast/lenny/workspace/programming/gungraun/gungraun/gungraun-runner/src/error.rs
FN:88,_RNvMNtCs6wj2z9XdCGO_15gungraun_runner5errorNtB2_5Error17new_process_error
FN:98,_RNvXs_NtCs6wj2z9XdCGO_15gungraun_runner5errorNtB4_5ErrorNtNtCsgEmfK2I1SDS_4core3fmt7Display3fmt
FN:88,_RNvMNtCslU5GooN79Bb_15gungraun_runner5errorNtB2_5Error17new_process_error
FN:98,_RNvXs_NtCslU5GooN79Bb_15gungraun_runner5errorNtB4_5ErrorNtNtCsgEmfK2I1SDS_4core3fmt7Display3fmt
FN:88,_RNvMNtCs8iksUjoTkmC_15gungraun_runner5errorNtB2_5Error17new_process_error
FN:98,_RNvXs_NtCs8iksUjoTkmC_15gungraun_runner5errorNtB4_5ErrorNtNtCsgEmfK2I1SDS_4core3fmt7Display3fmt
FNDA:0,_RNvMNtCs6wj2z9XdCGO_15gungraun_runner5errorNtB2_5Error17new_process_error
FNDA:0,_RNvXs_NtCs6wj2z9XdCGO_15gungraun_runner5errorNtB4_5ErrorNtNtCsgEmfK2I1SDS_4core3fmt7Display3fmt
FNDA:0,_RNvMNtCslU5GooN79Bb_15gungraun_runner5errorNtB2_5Error17new_process_error
FNDA:0,_RNvXs_NtCslU5GooN79Bb_15gungraun_runner5errorNtB4_5ErrorNtNtCsgEmfK2I1SDS_4core3fmt7Display3fmt
FNDA:14,_RNvMNtCs8iksUjoTkmC_15gungraun_runner5errorNtB2_5Error17new_process_error
FNDA:49,_RNvXs_NtCs8iksUjoTkmC_15gungraun_runner5errorNtB4_5ErrorNtNtCsgEmfK2I1SDS_4core3fmt7Display3fmt
FNF:2
FNH:2
DA:88,14
DA:89,14
DA:90,14
DA:91,14
DA:92,14
DA:93,14
DA:94,14
DA:98,49
DA:99,49
DA:100,1
DA:101,1
DA:102,1
DA:103,1
DA:111,5
DA:112,3
DA:113,3
DA:118,1
DA:119,1
DA:124,1
DA:125,1
DA:130,0
DA:132,0
DA:133,0
DA:135,14
DA:136,14
DA:137,13
DA:138,13
DA:139,14
DA:141,14
DA:142,14
DA:143,0
DA:144,0
DA:145,0
DA:149,0
DA:152,0
DA:153,0
DA:154,0
DA:158,0
DA:159,0
DA:161,9
DA:162,9
DA:163,9
DA:164,9
DA:168,0
DA:171,0
DA:172,0
DA:174,0
DA:175,0
DA:177,6
DA:178,6
DA:179,6
DA:181,14
DA:182,14
DA:183,14
DA:184,14
DA:187,0
DA:190,49
BRF:0
BRH:0
LF:57
LH:39
end_of_record
SF:/fast/lenny/workspace/programming/gungraun/gungraun/gungraun-runner/src/main.rs
FN:46,_RNCNCNvCs5AJNgHXoNon_15gungraun_runner4mains1_00B5_
FN:21,_RNCNvCs5AJNgHXoNon_15gungraun_runner4main0B3_
FN:40,_RNCNvCs5AJNgHXoNon_15gungraun_runner4mains1_0B3_
FN:77,_RNvCs5AJNgHXoNon_15gungraun_runner14print_warnings
FN:16,_RNvCs5AJNgHXoNon_15gungraun_runner4main
FNDA:0,_RNCNCNvCs5AJNgHXoNon_15gungraun_runner4mains1_00B5_
FNDA:0,_RNCNvCs5AJNgHXoNon_15gungraun_runner4main0B3_
FNDA:54,_RNCNvCs5AJNgHXoNon_15gungraun_runner4mains1_0B3_
FNDA:355,_RNvCs5AJNgHXoNon_15gungraun_runner14print_warnings
FNDA:355,_RNvCs5AJNgHXoNon_15gungraun_runner4main
FNF:5
FNH:3
DA:16,355
DA:18,355
DA:19,355
DA:20,355
DA:21,355
DA:23,355
DA:24,261
DA:25,261
DA:26,0
DA:27,94
DA:28,94
DA:29,94
DA:30,0
DA:33,355
DA:34,355
DA:35,355
DA:36,355
DA:37,355
DA:40,355
DA:41,54
DA:42,54
DA:44,54
DA:45,54
DA:46,54
DA:47,54
DA:48,38
DA:49,16
DA:50,0
DA:51,0
DA:52,0
DA:54,54
DA:56,54
DA:57,355
DA:59,355
DA:60,355
DA:61,314
DA:62,41
DA:63,41
DA:64,15
DA:65,9
DA:66,6
DA:67,15
DA:69,26
DA:70,26
DA:74,314
DA:77,355
DA:78,355
DA:79,0
DA:80,355
DA:82,355
DA:83,0
DA:84,355
DA:86,355
DA:87,0
DA:91,355
DA:93,14200
DA:94,355
DA:95,355
DA:96,355
DA:97,355
DA:98,355
DA:99,355
DA:100,355
DA:101,355
DA:102,355
DA:103,355
DA:104,355
DA:105,355
DA:106,355
DA:107,355
DA:108,355
DA:109,355
DA:110,355
DA:111,355
DA:112,355
DA:113,355
DA:114,355
DA:115,355
DA:116,355
DA:117,355
DA:118,355
DA:119,355
DA:120,355
DA:121,355
DA:122,355
DA:123,355
DA:124,355
DA:125,355
DA:126,355
DA:127,355
DA:128,355
DA:129,355
DA:130,355
DA:131,355
DA:132,355
DA:133,355
DA:134,355
DA:135,14200
DA:136,14200
DA:137,0
DA:138,0
DA:139,0
DA:143,0
DA:144,14200
DA:146,355
BRF:0
BRH:0
LF:108
LH:94
end_of_record
SF:/fast/lenny/workspace/programming/gungraun/gungraun/gungraun-runner/src/runner/args.rs
FN:1650,_RNCNCNvNtNtCs6wj2z9XdCGO_15gungraun_runner6runner4args17parse_dhat_limits0s_0B9_
FN:1620,_RNCNCNvNtNtCs6wj2z9XdCGO_15gungraun_runner6runner4args22parse_callgrind_limits0s_0B9_
FN:1584,_RNCNCNvNtNtCs6wj2z9XdCGO_15gungraun_runner6runner4args23parse_cachegrind_limits0s_0B9_
FN:1528,_RNvXs1_NtNtCs6wj2z9XdCGO_15gungraun_runner6runner4argsINtNtCsgEmfK2I1SDS_4core6option6OptionjEINtNtBV_7convert4FromNtB5_19TruncateDescriptionE4from
FN:1538,_RNvMs2_NtNtCs6wj2z9XdCGO_15gungraun_runner6runner4argsNtB5_7RawArgs8as_slice
FN:1543,_RNvMs2_NtNtCs6wj2z9XdCGO_15gungraun_runner6runner4argsNtB5_7RawArgs8is_empty
FN:1730,_RINvNtNtCs6wj2z9XdCGO_15gungraun_runner6runner4args12parse_limitsNtNtB6_3api10DhatMetricEB6_
FN:1730,_RINvNtNtCs6wj2z9XdCGO_15gungraun_runner6runner4args12parse_limitsNtNtB6_3api16CachegrindMetricEB6_
FN:1730,_RINvNtNtCs6wj2z9XdCGO_15gungraun_runner6runner4args12parse_limitsNtNtB6_3api9EventKindEB6_
FN:1556,_RINvNtNtCs6wj2z9XdCGO_15gungraun_runner6runner4args14convert_metricNtNtB6_3api10DhatMetricEB6_
FN:1556,_RINvNtNtCs6wj2z9XdCGO_15gungraun_runner6runner4args14convert_metricNtNtB6_3api16CachegrindMetricEB6_
FN:1556,_RINvNtNtCs6wj2z9XdCGO_15gungraun_runner6runner4args14convert_metricNtNtB6_3api9EventKindEB6_
FN:1852,_RINvNtNtCs6wj2z9XdCGO_15gungraun_runner6runner4args18parse_tool_metricsNtNtB6_3api10DhatMetricEB6_
FN:1852,_RINvNtNtCs6wj2z9XdCGO_15gungraun_runner6runner4args18parse_tool_metricsNtNtB6_3api11ErrorMetricEB6_
FN:1852,_RINvNtNtCs6wj2z9XdCGO_15gungraun_runner6runner4args18parse_tool_metricsNtNtB6_3api16CachegrindMetricEB6_
FN:1852,_RINvNtNtCs6wj2z9XdCGO_15gungraun_runner6runner4args18parse_tool_metricsNtNtB6_3api9EventKindEB6_
FN:1751,_RNCINvNtNtCs6wj2z9XdCGO_15gungraun_runner6runner4args12parse_limitsNtNtB8_3api10DhatMetricE0B8_
FN:1759,_RNCINvNtNtCs6wj2z9XdCGO_15gungraun_runner6runner4args12parse_limitsNtNtB8_3api10DhatMetricEs_0B8_
FN:1751,_RNCINvNtNtCs6wj2z9XdCGO_15gungraun_runner6runner4args12parse_limitsNtNtB8_3api16CachegrindMetricE0B8_
FN:1759,_RNCINvNtNtCs6wj2z9XdCGO_15gungraun_runner6runner4args12parse_limitsNtNtB8_3api16CachegrindMetricEs_0B8_
FN:1751,_RNCINvNtNtCs6wj2z9XdCGO_15gungraun_runner6runner4args12parse_limitsNtNtB8_3api9EventKindE0B8_
FN:1759,_RNCINvNtNtCs6wj2z9XdCGO_15gungraun_runner6runner4args12parse_limitsNtNtB8_3api9EventKindEs_0B8_
FN:1563,_RNCINvNtNtCs6wj2z9XdCGO_15gungraun_runner6runner4args14convert_metricNtNtB8_3api10DhatMetricE0B8_
FN:1570,_RNCINvNtNtCs6wj2z9XdCGO_15gungraun_runner6runner4args14convert_metricNtNtB8_3api10DhatMetricEs_0B8_
FN:1563,_RNCINvNtNtCs6wj2z9XdCGO_15gungraun_runner6runner4args14convert_metricNtNtB8_3api16CachegrindMetricE0B8_
FN:1570,_RNCINvNtNtCs6wj2z9XdCGO_15gungraun_runner6runner4args14convert_metricNtNtB8_3api16CachegrindMetricEs_0B8_
FN:1563,_RNCINvNtNtCs6wj2z9XdCGO_15gungraun_runner6runner4args14convert_metricNtNtB8_3api9EventKindE0B8_
FN:1570,_RNCINvNtNtCs6wj2z9XdCGO_15gungraun_runner6runner4args14convert_metricNtNtB8_3api9EventKindEs_0B8_
FN:1683,_RNCNCNvNtNtCs6wj2z9XdCGO_15gungraun_runner6runner4args10parse_envss_00B9_
FN:1647,_RNCNCNvNtNtCs6wj2z9XdCGO_15gungraun_runner6runner4args17parse_dhat_limits00B9_
FN:1668,_RNCNCNvNtNtCs6wj2z9XdCGO_15gungraun_runner6runner4args18parse_dhat_metrics00B9_
FN:1617,_RNCNCNvNtNtCs6wj2z9XdCGO_15gungraun_runner6runner4args22parse_callgrind_limits00B9_
FN:1581,_RNCNCNvNtNtCs6wj2z9XdCGO_15gungraun_runner6runner4args23parse_cachegrind_limits00B9_
FN:1638,_RNCNCNvNtNtCs6wj2z9XdCGO_15gungraun_runner6runner4args23parse_callgrind_metrics00B9_
FN:1602,_RNCNCNvNtNtCs6wj2z9XdCGO_15gungraun_runner6runner4args24parse_cachegrind_metrics00B9_
FN:1682,_RNCNvNtNtCs6wj2z9XdCGO_15gungraun_runner6runner4args10parse_envs0B7_
FN:1687,_RNCNvNtNtCs6wj2z9XdCGO_15gungraun_runner6runner4args10parse_envss0_0B7_
FN:1683,_RNCNvNtNtCs6wj2z9XdCGO_15gungraun_runner6runner4args10parse_envss_0B7_
FN:1841,_RNCNvNtNtCs6wj2z9XdCGO_15gungraun_runner6runner4args14parse_raw_args0B7_
FN:1848,_RNCNvNtNtCs6wj2z9XdCGO_15gungraun_runner6runner4args15parse_tool_args0B7_
FN:1644,_RNCNvNtNtCs6wj2z9XdCGO_15gungraun_runner6runner4args17parse_dhat_limits0B7_
FN:1665,_RNCNvNtNtCs6wj2z9XdCGO_15gungraun_runner6runner4args18parse_dhat_metrics0B7_
FN:1710,_RNCNvNtNtCs6wj2z9XdCGO_15gungraun_runner6runner4args19parse_error_metrics0B7_
FN:1720,_RNCNvNtNtCs6wj2z9XdCGO_15gungraun_runner6runner4args19parse_error_metricss_0B7_
FN:1824,_RNCNvNtNtCs6wj2z9XdCGO_15gungraun_runner6runner4args19parse_path_resolved0B7_
FN:1614,_RNCNvNtNtCs6wj2z9XdCGO_15gungraun_runner6runner4args22parse_callgrind_limits0B7_
FN:1578,_RNCNvNtNtCs6wj2z9XdCGO_15gungraun_runner6runner4args23parse_cachegrind_limits0B7_
FN:1635,_RNCNvNtNtCs6wj2z9XdCGO_15gungraun_runner6runner4args23parse_callgrind_metrics0B7_
FN:1599,_RNCNvNtNtCs6wj2z9XdCGO_15gungraun_runner6runner4args24parse_cachegrind_metrics0B7_
FN:1466,_RNvMNtNtCs6wj2z9XdCGO_15gungraun_runner6runner4argsNtB2_15BenchmarkFilter5apply
FN:1482,_RNvMs0_NtNtCs6wj2z9XdCGO_15gungraun_runner6runner4argsNtB5_9NoCapture5apply
FN:1678,_RNvNtNtCs6wj2z9XdCGO_15gungraun_runner6runner4args10parse_envs
FN:1807,_RNvNtNtCs6wj2z9XdCGO_15gungraun_runner6runner4args14parse_parallel
FN:1828,_RNvNtNtCs6wj2z9XdCGO_15gungraun_runner6runner4args14parse_raw_args
FN:1786,_RNvNtNtCs6wj2z9XdCGO_15gungraun_runner6runner4args15parse_nocapture
FN:1847,_RNvNtNtCs6wj2z9XdCGO_15gungraun_runner6runner4args15parse_tool_args
FN:1643,_RNvNtNtCs6wj2z9XdCGO_15gungraun_runner6runner4args17parse_dhat_limits
FN:1673,_RNvNtNtCs6wj2z9XdCGO_15gungraun_runner6runner4args17parse_drd_metrics
FN:1664,_RNvNtNtCs6wj2z9XdCGO_15gungraun_runner6runner4args18parse_dhat_metrics
FN:1707,_RNvNtNtCs6wj2z9XdCGO_15gungraun_runner6runner4args19parse_error_metrics
FN:1823,_RNvNtNtCs6wj2z9XdCGO_15gungraun_runner6runner4args19parse_path_resolved
FN:1613,_RNvNtNtCs6wj2z9XdCGO_15gungraun_runner6runner4args22parse_callgrind_limits
FN:1726,_RNvNtNtCs6wj2z9XdCGO_15gungraun_runner6runner4args22parse_helgrind_metrics
FN:1781,_RNvNtNtCs6wj2z9XdCGO_15gungraun_runner6runner4args22parse_memcheck_metrics
FN:1577,_RNvNtNtCs6wj2z9XdCGO_15gungraun_runner6runner4args23parse_cachegrind_limits
FN:1634,_RNvNtNtCs6wj2z9XdCGO_15gungraun_runner6runner4args23parse_callgrind_metrics
FN:1598,_RNvNtNtCs6wj2z9XdCGO_15gungraun_runner6runner4args24parse_cachegrind_metrics
FN:1872,_RNvNtNtCs6wj2z9XdCGO_15gungraun_runner6runner4args26parse_truncate_description
FN:1475,_RNvXs_NtNtCs6wj2z9XdCGO_15gungraun_runner6runner4argsNtB4_15BenchmarkFilterNtNtNtCsgEmfK2I1SDS_4core3str6traits7FromStr8from_str
FN:1548,_RNvMs2_NtNtCs6wj2z9XdCGO_15gungraun_runner6runner4argsNtB5_7RawArgs3len
FN:1528,_RNvXs1_NtNtCslU5GooN79Bb_15gungraun_runner6runner4argsINtNtCsgEmfK2I1SDS_4core6option6OptionjEINtNtBV_7convert4FromNtB5_19TruncateDescriptionE4from
FN:1538,_RNvMs2_NtNtCslU5GooN79Bb_15gungraun_runner6runner4argsNtB5_7RawArgs8as_slice
FN:1543,_RNvMs2_NtNtCslU5GooN79Bb_15gungraun_runner6runner4argsNtB5_7RawArgs8is_empty
FN:1730,_RINvNtNtCslU5GooN79Bb_15gungraun_runner6runner4args12parse_limitsNtNtB6_3api10DhatMetricEB6_
FN:1730,_RINvNtNtCslU5GooN79Bb_15gungraun_runner6runner4args12parse_limitsNtNtB6_3api16CachegrindMetricEB6_
FN:1730,_RINvNtNtCslU5GooN79Bb_15gungraun_runner6runner4args12parse_limitsNtNtB6_3api9EventKindEB6_
FN:1556,_RINvNtNtCslU5GooN79Bb_15gungraun_runner6runner4args14convert_metricNtNtB6_3api10DhatMetricEB6_
FN:1556,_RINvNtNtCslU5GooN79Bb_15gungraun_runner6runner4args14convert_metricNtNtB6_3api16CachegrindMetricEB6_
FN:1556,_RINvNtNtCslU5GooN79Bb_15gungraun_runner6runner4args14convert_metricNtNtB6_3api9EventKindEB6_
FN:1852,_RINvNtNtCslU5GooN79Bb_15gungraun_runner6runner4args18parse_tool_metricsNtNtB6_3api10DhatMetricEB6_
FN:1852,_RINvNtNtCslU5GooN79Bb_15gungraun_runner6runner4args18parse_tool_metricsNtNtB6_3api11ErrorMetricEB6_
FN:1852,_RINvNtNtCslU5GooN79Bb_15gungraun_runner6runner4args18parse_tool_metricsNtNtB6_3api16CachegrindMetricEB6_
FN:1852,_RINvNtNtCslU5GooN79Bb_15gungraun_runner6runner4args18parse_tool_metricsNtNtB6_3api9EventKindEB6_
FN:1751,_RNCINvNtNtCslU5GooN79Bb_15gungraun_runner6runner4args12parse_limitsNtNtB8_3api10DhatMetricE0B8_
FN:1759,_RNCINvNtNtCslU5GooN79Bb_15gungraun_runner6runner4args12parse_limitsNtNtB8_3api10DhatMetricEs_0B8_
FN:1751,_RNCINvNtNtCslU5GooN79Bb_15gungraun_runner6runner4args12parse_limitsNtNtB8_3api16CachegrindMetricE0B8_
FN:1759,_RNCINvNtNtCslU5GooN79Bb_15gungraun_runner6runner4args12parse_limitsNtNtB8_3api16CachegrindMetricEs_0B8_
FN:1751,_RNCINvNtNtCslU5GooN79Bb_15gungraun_runner6runner4args12parse_limitsNtNtB8_3api9EventKindE0B8_
FN:1759,_RNCINvNtNtCslU5GooN79Bb_15gungraun_runner6runner4args12parse_limitsNtNtB8_3api9EventKindEs_0B8_
FN:1563,_RNCINvNtNtCslU5GooN79Bb_15gungraun_runner6runner4args14convert_metricNtNtB8_3api10DhatMetricE0B8_
FN:1570,_RNCINvNtNtCslU5GooN79Bb_15gungraun_runner6runner4args14convert_metricNtNtB8_3api10DhatMetricEs_0B8_
FN:1563,_RNCINvNtNtCslU5GooN79Bb_15gungraun_runner6runner4args14convert_metricNtNtB8_3api16CachegrindMetricE0B8_
FN:1570,_RNCINvNtNtCslU5GooN79Bb_15gungraun_runner6runner4args14convert_metricNtNtB8_3api16CachegrindMetricEs_0B8_
FN:1563,_RNCINvNtNtCslU5GooN79Bb_15gungraun_runner6runner4args14convert_metricNtNtB8_3api9EventKindE0B8_
FN:1570,_RNCINvNtNtCslU5GooN79Bb_15gungraun_runner6runner4args14convert_metricNtNtB8_3api9EventKindEs_0B8_
FN:1683,_RNCNCNvNtNtCslU5GooN79Bb_15gungraun_runner6runner4args10parse_envss_00B9_
FN:1647,_RNCNCNvNtNtCslU5GooN79Bb_15gungraun_runner6runner4args17parse_dhat_limits00B9_
FN:1668,_RNCNCNvNtNtCslU5GooN79Bb_15gungraun_runner6runner4args18parse_dhat_metrics00B9_
FN:1617,_RNCNCNvNtNtCslU5GooN79Bb_15gungraun_runner6runner4args22parse_callgrind_limits00B9_
FN:1581,_RNCNCNvNtNtCslU5GooN79Bb_15gungraun_runner6runner4args23parse_cachegrind_limits00B9_
FN:1638,_RNCNCNvNtNtCslU5GooN79Bb_15gungraun_runner6runner4args23parse_callgrind_metrics00B9_
FN:1602,_RNCNCNvNtNtCslU5GooN79Bb_15gungraun_runner6runner4args24parse_cachegrind_metrics00B9_
FN:1682,_RNCNvNtNtCslU5GooN79Bb_15gungraun_runner6runner4args10parse_envs0B7_
FN:1687,_RNCNvNtNtCslU5GooN79Bb_15gungraun_runner6runner4args10parse_envss0_0B7_
FN:1683,_RNCNvNtNtCslU5GooN79Bb_15gungraun_runner6runner4args10parse_envss_0B7_
FN:1841,_RNCNvNtNtCslU5GooN79Bb_15gungraun_runner6runner4args14parse_raw_args0B7_
FN:1848,_RNCNvNtNtCslU5GooN79Bb_15gungraun_runner6runner4args15parse_tool_args0B7_
FN:1644,_RNCNvNtNtCslU5GooN79Bb_15gungraun_runner6runner4args17parse_dhat_limits0B7_
FN:1665,_RNCNvNtNtCslU5GooN79Bb_15gungraun_runner6runner4args18parse_dhat_metrics0B7_
FN:1710,_RNCNvNtNtCslU5GooN79Bb_15gungraun_runner6runner4args19parse_error_metrics0B7_
FN:1720,_RNCNvNtNtCslU5GooN79Bb_15gungraun_runner6runner4args19parse_error_metricss_0B7_
FN:1824,_RNCNvNtNtCslU5GooN79Bb_15gungraun_runner6runner4args19parse_path_resolved0B7_
FN:1614,_RNCNvNtNtCslU5GooN79Bb_15gungraun_runner6runner4args22parse_callgrind_limits0B7_
FN:1578,_RNCNvNtNtCslU5GooN79Bb_15gungraun_runner6runner4args23parse_cachegrind_limits0B7_
FN:1635,_RNCNvNtNtCslU5GooN79Bb_15gungraun_runner6runner4args23parse_callgrind_metrics0B7_
FN:1599,_RNCNvNtNtCslU5GooN79Bb_15gungraun_runner6runner4args24parse_cachegrind_metrics0B7_
FN:1466,_RNvMNtNtCslU5GooN79Bb_15gungraun_runner6runner4argsNtB2_15BenchmarkFilter5apply
FN:1482,_RNvMs0_NtNtCslU5GooN79Bb_15gungraun_runner6runner4argsNtB5_9NoCapture5apply
FN:1678,_RNvNtNtCslU5GooN79Bb_15gungraun_runner6runner4args10parse_envs
FN:1807,_RNvNtNtCslU5GooN79Bb_15gungraun_runner6runner4args14parse_parallel
FN:1828,_RNvNtNtCslU5GooN79Bb_15gungraun_runner6runner4args14parse_raw_args
FN:1786,_RNvNtNtCslU5GooN79Bb_15gungraun_runner6runner4args15parse_nocapture
FN:1847,_RNvNtNtCslU5GooN79Bb_15gungraun_runner6runner4args15parse_tool_args
FN:1643,_RNvNtNtCslU5GooN79Bb_15gungraun_runner6runner4args17parse_dhat_limits
FN:1673,_RNvNtNtCslU5GooN79Bb_15gungraun_runner6runner4args17parse_drd_metrics
FN:1664,_RNvNtNtCslU5GooN79Bb_15gungraun_runner6runner4args18parse_dhat_metrics
FN:1707,_RNvNtNtCslU5GooN79Bb_15gungraun_runner6runner4args19parse_error_metrics
FN:1823,_RNvNtNtCslU5GooN79Bb_15gungraun_runner6runner4args19parse_path_resolved
FN:1613,_RNvNtNtCslU5GooN79Bb_15gungraun_runner6runner4args22parse_callgrind_limits
FN:1726,_RNvNtNtCslU5GooN79Bb_15gungraun_runner6runner4args22parse_helgrind_metrics
FN:1781,_RNvNtNtCslU5GooN79Bb_15gungraun_runner6runner4args22parse_memcheck_metrics
FN:1577,_RNvNtNtCslU5GooN79Bb_15gungraun_runner6runner4args23parse_cachegrind_limits
FN:1634,_RNvNtNtCslU5GooN79Bb_15gungraun_runner6runner4args23parse_callgrind_metrics
FN:1598,_RNvNtNtCslU5GooN79Bb_15gungraun_runner6runner4args24parse_cachegrind_metrics
FN:1872,_RNvNtNtCslU5GooN79Bb_15gungraun_runner6runner4args26parse_truncate_description
FN:1475,_RNvXs_NtNtCslU5GooN79Bb_15gungraun_runner6runner4argsNtB4_15BenchmarkFilterNtNtNtCsgEmfK2I1SDS_4core3str6traits7FromStr8from_str
FN:1650,_RNCNCNvNtNtCslU5GooN79Bb_15gungraun_runner6runner4args17parse_dhat_limits0s_0B9_
FN:1620,_RNCNCNvNtNtCslU5GooN79Bb_15gungraun_runner6runner4args22parse_callgrind_limits0s_0B9_
FN:1584,_RNCNCNvNtNtCslU5GooN79Bb_15gungraun_runner6runner4args23parse_cachegrind_limits0s_0B9_
FN:1548,_RNvMs2_NtNtCslU5GooN79Bb_15gungraun_runner6runner4argsNtB5_7RawArgs3len
FN:1528,_RNvXs1_NtNtCs8iksUjoTkmC_15gungraun_runner6runner4argsINtNtCsgEmfK2I1SDS_4core6option6OptionjEINtNtBV_7convert4FromNtB5_19TruncateDescriptionE4from
FN:1538,_RNvMs2_NtNtCs8iksUjoTkmC_15gungraun_runner6runner4argsNtB5_7RawArgs8as_slice
FN:1543,_RNvMs2_NtNtCs8iksUjoTkmC_15gungraun_runner6runner4argsNtB5_7RawArgs8is_empty
FN:1730,_RINvNtNtCs8iksUjoTkmC_15gungraun_runner6runner4args12parse_limitsNtNtB6_3api10DhatMetricEB6_
FN:1730,_RINvNtNtCs8iksUjoTkmC_15gungraun_runner6runner4args12parse_limitsNtNtB6_3api16CachegrindMetricEB6_
FN:1730,_RINvNtNtCs8iksUjoTkmC_15gungraun_runner6runner4args12parse_limitsNtNtB6_3api9EventKindEB6_
FN:1556,_RINvNtNtCs8iksUjoTkmC_15gungraun_runner6runner4args14convert_metricNtNtB6_3api10DhatMetricEB6_
FN:1556,_RINvNtNtCs8iksUjoTkmC_15gungraun_runner6runner4args14convert_metricNtNtB6_3api16CachegrindMetricEB6_
FN:1556,_RINvNtNtCs8iksUjoTkmC_15gungraun_runner6runner4args14convert_metricNtNtB6_3api9EventKindEB6_
FN:1852,_RINvNtNtCs8iksUjoTkmC_15gungraun_runner6runner4args18parse_tool_metricsNtNtB6_3api10DhatMetricEB6_
FN:1852,_RINvNtNtCs8iksUjoTkmC_15gungraun_runner6runner4args18parse_tool_metricsNtNtB6_3api11ErrorMetricEB6_
FN:1852,_RINvNtNtCs8iksUjoTkmC_15gungraun_runner6runner4args18parse_tool_metricsNtNtB6_3api16CachegrindMetricEB6_
FN:1852,_RINvNtNtCs8iksUjoTkmC_15gungraun_runner6runner4args18parse_tool_metricsNtNtB6_3api9EventKindEB6_
FN:1751,_RNCINvNtNtCs8iksUjoTkmC_15gungraun_runner6runner4args12parse_limitsNtNtB8_3api10DhatMetricE0B8_
FN:1759,_RNCINvNtNtCs8iksUjoTkmC_15gungraun_runner6runner4args12parse_limitsNtNtB8_3api10DhatMetricEs_0B8_
FN:1751,_RNCINvNtNtCs8iksUjoTkmC_15gungraun_runner6runner4args12parse_limitsNtNtB8_3api16CachegrindMetricE0B8_
FN:1759,_RNCINvNtNtCs8iksUjoTkmC_15gungraun_runner6runner4args12parse_limitsNtNtB8_3api16CachegrindMetricEs_0B8_
FN:1751,_RNCINvNtNtCs8iksUjoTkmC_15gungraun_runner6runner4args12parse_limitsNtNtB8_3api9EventKindE0B8_
FN:1759,_RNCINvNtNtCs8iksUjoTkmC_15gungraun_runner6runner4args12parse_limitsNtNtB8_3api9EventKindEs_0B8_
FN:1563,_RNCINvNtNtCs8iksUjoTkmC_15gungraun_runner6runner4args14convert_metricNtNtB8_3api10DhatMetricE0B8_
FN:1570,_RNCINvNtNtCs8iksUjoTkmC_15gungraun_runner6runner4args14convert_metricNtNtB8_3api10DhatMetricEs_0B8_
FN:1563,_RNCINvNtNtCs8iksUjoTkmC_15gungraun_runner6runner4args14convert_metricNtNtB8_3api16CachegrindMetricE0B8_
FN:1570,_RNCINvNtNtCs8iksUjoTkmC_15gungraun_runner6runner4args14convert_metricNtNtB8_3api16CachegrindMetricEs_0B8_
FN:1563,_RNCINvNtNtCs8iksUjoTkmC_15gungraun_runner6runner4args14convert_metricNtNtB8_3api9EventKindE0B8_
FN:1570,_RNCINvNtNtCs8iksUjoTkmC_15gungraun_runner6runner4args14convert_metricNtNtB8_3api9EventKindEs_0B8_
FN:1683,_RNCNCNvNtNtCs8iksUjoTkmC_15gungraun_runner6runner4args10parse_envss_00B9_
FN:1647,_RNCNCNvNtNtCs8iksUjoTkmC_15gungraun_runner6runner4args17parse_dhat_limits00B9_
FN:1668,_RNCNCNvNtNtCs8iksUjoTkmC_15gungraun_runner6runner4args18parse_dhat_metrics00B9_
FN:1617,_RNCNCNvNtNtCs8iksUjoTkmC_15gungraun_runner6runner4args22parse_callgrind_limits00B9_
FN:1581,_RNCNCNvNtNtCs8iksUjoTkmC_15gungraun_runner6runner4args23parse_cachegrind_limits00B9_
FN:1638,_RNCNCNvNtNtCs8iksUjoTkmC_15gungraun_runner6runner4args23parse_callgrind_metrics00B9_
FN:1602,_RNCNCNvNtNtCs8iksUjoTkmC_15gungraun_runner6runner4args24parse_cachegrind_metrics00B9_
FN:1682,_RNCNvNtNtCs8iksUjoTkmC_15gungraun_runner6runner4args10parse_envs0B7_
FN:1687,_RNCNvNtNtCs8iksUjoTkmC_15gungraun_runner6runner4args10parse_envss0_0B7_
FN:1683,_RNCNvNtNtCs8iksUjoTkmC_15gungraun_runner6runner4args10parse_envss_0B7_
FN:1841,_RNCNvNtNtCs8iksUjoTkmC_15gungraun_runner6runner4args14parse_raw_args0B7_
FN:1848,_RNCNvNtNtCs8iksUjoTkmC_15gungraun_runner6runner4args15parse_tool_args0B7_
FN:1644,_RNCNvNtNtCs8iksUjoTkmC_15gungraun_runner6runner4args17parse_dhat_limits0B7_
FN:1665,_RNCNvNtNtCs8iksUjoTkmC_15gungraun_runner6runner4args18parse_dhat_metrics0B7_
FN:1710,_RNCNvNtNtCs8iksUjoTkmC_15gungraun_runner6runner4args19parse_error_metrics0B7_
FN:1720,_RNCNvNtNtCs8iksUjoTkmC_15gungraun_runner6runner4args19parse_error_metricss_0B7_
FN:1824,_RNCNvNtNtCs8iksUjoTkmC_15gungraun_runner6runner4args19parse_path_resolved0B7_
FN:1614,_RNCNvNtNtCs8iksUjoTkmC_15gungraun_runner6runner4args22parse_callgrind_limits0B7_
FN:1578,_RNCNvNtNtCs8iksUjoTkmC_15gungraun_runner6runner4args23parse_cachegrind_limits0B7_
FN:1635,_RNCNvNtNtCs8iksUjoTkmC_15gungraun_runner6runner4args23parse_callgrind_metrics0B7_
FN:1599,_RNCNvNtNtCs8iksUjoTkmC_15gungraun_runner6runner4args24parse_cachegrind_metrics0B7_
FN:1466,_RNvMNtNtCs8iksUjoTkmC_15gungraun_runner6runner4argsNtB2_15BenchmarkFilter5apply
FN:1482,_RNvMs0_NtNtCs8iksUjoTkmC_15gungraun_runner6runner4argsNtB5_9NoCapture5apply
FN:1678,_RNvNtNtCs8iksUjoTkmC_15gungraun_runner6runner4args10parse_envs
FN:1807,_RNvNtNtCs8iksUjoTkmC_15gungraun_runner6runner4args14parse_parallel
FN:1828,_RNvNtNtCs8iksUjoTkmC_15gungraun_runner6runner4args14parse_raw_args
FN:1786,_RNvNtNtCs8iksUjoTkmC_15gungraun_runner6runner4args15parse_nocapture
FN:1847,_RNvNtNtCs8iksUjoTkmC_15gungraun_runner6runner4args15parse_tool_args
FN:1643,_RNvNtNtCs8iksUjoTkmC_15gungraun_runner6runner4args17parse_dhat_limits
FN:1673,_RNvNtNtCs8iksUjoTkmC_15gungraun_runner6runner4args17parse_drd_metrics
FN:1664,_RNvNtNtCs8iksUjoTkmC_15gungraun_runner6runner4args18parse_dhat_metrics
FN:1707,_RNvNtNtCs8iksUjoTkmC_15gungraun_runner6runner4args19parse_error_metrics
FN:1823,_RNvNtNtCs8iksUjoTkmC_15gungraun_runner6runner4args19parse_path_resolved
FN:1613,_RNvNtNtCs8iksUjoTkmC_15gungraun_runner6runner4args22parse_callgrind_limits
FN:1726,_RNvNtNtCs8iksUjoTkmC_15gungraun_runner6runner4args22parse_helgrind_metrics
FN:1781,_RNvNtNtCs8iksUjoTkmC_15gungraun_runner6runner4args22parse_memcheck_metrics
FN:1577,_RNvNtNtCs8iksUjoTkmC_15gungraun_runner6runner4args23parse_cachegrind_limits
FN:1634,_RNvNtNtCs8iksUjoTkmC_15gungraun_runner6runner4args23parse_callgrind_metrics
FN:1598,_RNvNtNtCs8iksUjoTkmC_15gungraun_runner6runner4args24parse_cachegrind_metrics
FN:1872,_RNvNtNtCs8iksUjoTkmC_15gungraun_runner6runner4args26parse_truncate_description
FN:1475,_RNvXs_NtNtCs8iksUjoTkmC_15gungraun_runner6runner4argsNtB4_15BenchmarkFilterNtNtNtCsgEmfK2I1SDS_4core3str6traits7FromStr8from_str
FN:1650,_RNCNCNvNtNtCs8iksUjoTkmC_15gungraun_runner6runner4args17parse_dhat_limits0s_0B9_
FN:1620,_RNCNCNvNtNtCs8iksUjoTkmC_15gungraun_runner6runner4args22parse_callgrind_limits0s_0B9_
FN:1584,_RNCNCNvNtNtCs8iksUjoTkmC_15gungraun_runner6runner4args23parse_cachegrind_limits0s_0B9_
FN:1548,_RNvMs2_NtNtCs8iksUjoTkmC_15gungraun_runner6runner4argsNtB5_7RawArgs3len
FNDA:0,_RNCNCNvNtNtCs6wj2z9XdCGO_15gungraun_runner6runner4args17parse_dhat_limits0s_0B9_
FNDA:0,_RNCNCNvNtNtCs6wj2z9XdCGO_15gungraun_runner6runner4args22parse_callgrind_limits0s_0B9_
FNDA:0,_RNCNCNvNtNtCs6wj2z9XdCGO_15gungraun_runner6runner4args23parse_cachegrind_limits0s_0B9_
FNDA:0,_RNvXs1_NtNtCs6wj2z9XdCGO_15gungraun_runner6runner4argsINtNtCsgEmfK2I1SDS_4core6option6OptionjEINtNtBV_7convert4FromNtB5_19TruncateDescriptionE4from
FNDA:0,_RNvMs2_NtNtCs6wj2z9XdCGO_15gungraun_runner6runner4argsNtB5_7RawArgs8as_slice
FNDA:0,_RNvMs2_NtNtCs6wj2z9XdCGO_15gungraun_runner6runner4argsNtB5_7RawArgs8is_empty
FNDA:0,_RINvNtNtCs6wj2z9XdCGO_15gungraun_runner6runner4args12parse_limitsNtNtB6_3api10DhatMetricEB6_
FNDA:0,_RINvNtNtCs6wj2z9XdCGO_15gungraun_runner6runner4args12parse_limitsNtNtB6_3api16CachegrindMetricEB6_
FNDA:0,_RINvNtNtCs6wj2z9XdCGO_15gungraun_runner6runner4args12parse_limitsNtNtB6_3api9EventKindEB6_
FNDA:0,_RINvNtNtCs6wj2z9XdCGO_15gungraun_runner6runner4args14convert_metricNtNtB6_3api10DhatMetricEB6_
FNDA:0,_RINvNtNtCs6wj2z9XdCGO_15gungraun_runner6runner4args14convert_metricNtNtB6_3api16CachegrindMetricEB6_
FNDA:0,_RINvNtNtCs6wj2z9XdCGO_15gungraun_runner6runner4args14convert_metricNtNtB6_3api9EventKindEB6_
FNDA:0,_RINvNtNtCs6wj2z9XdCGO_15gungraun_runner6runner4args18parse_tool_metricsNtNtB6_3api10DhatMetricEB6_
FNDA:0,_RINvNtNtCs6wj2z9XdCGO_15gungraun_runner6runner4args18parse_tool_metricsNtNtB6_3api11ErrorMetricEB6_
FNDA:0,_RINvNtNtCs6wj2z9XdCGO_15gungraun_runner6runner4args18parse_tool_metricsNtNtB6_3api16CachegrindMetricEB6_
FNDA:0,_RINvNtNtCs6wj2z9XdCGO_15gungraun_runner6runner4args18parse_tool_metricsNtNtB6_3api9EventKindEB6_
FNDA:0,_RNCINvNtNtCs6wj2z9XdCGO_15gungraun_runner6runner4args12parse_limitsNtNtB8_3api10DhatMetricE0B8_
FNDA:0,_RNCINvNtNtCs6wj2z9XdCGO_15gungraun_runner6runner4args12parse_limitsNtNtB8_3api10DhatMetricEs_0B8_
FNDA:0,_RNCINvNtNtCs6wj2z9XdCGO_15gungraun_runner6runner4args12parse_limitsNtNtB8_3api16CachegrindMetricE0B8_
FNDA:0,_RNCINvNtNtCs6wj2z9XdCGO_15gungraun_runner6runner4args12parse_limitsNtNtB8_3api16CachegrindMetricEs_0B8_
FNDA:0,_RNCINvNtNtCs6wj2z9XdCGO_15gungraun_runner6runner4args12parse_limitsNtNtB8_3api9EventKindE0B8_
FNDA:0,_RNCINvNtNtCs6wj2z9XdCGO_15gungraun_runner6runner4args12parse_limitsNtNtB8_3api9EventKindEs_0B8_
FNDA:0,_RNCINvNtNtCs6wj2z9XdCGO_15gungraun_runner6runner4args14convert_metricNtNtB8_3api10DhatMetricE0B8_
FNDA:0,_RNCINvNtNtCs6wj2z9XdCGO_15gungraun_runner6runner4args14convert_metricNtNtB8_3api10DhatMetricEs_0B8_
FNDA:0,_RNCINvNtNtCs6wj2z9XdCGO_15gungraun_runner6runner4args14convert_metricNtNtB8_3api16CachegrindMetricE0B8_
FNDA:0,_RNCINvNtNtCs6wj2z9XdCGO_15gungraun_runner6runner4args14convert_metricNtNtB8_3api16CachegrindMetricEs_0B8_
FNDA:0,_RNCINvNtNtCs6wj2z9XdCGO_15gungraun_runner6runner4args14convert_metricNtNtB8_3api9EventKindE0B8_
FNDA:0,_RNCINvNtNtCs6wj2z9XdCGO_15gungraun_runner6runner4args14convert_metricNtNtB8_3api9EventKindEs_0B8_
FNDA:0,_RNCNCNvNtNtCs6wj2z9XdCGO_15gungraun_runner6runner4args10parse_envss_00B9_
FNDA:0,_RNCNCNvNtNtCs6wj2z9XdCGO_15gungraun_runner6runner4args17parse_dhat_limits00B9_
FNDA:0,_RNCNCNvNtNtCs6wj2z9XdCGO_15gungraun_runner6runner4args18parse_dhat_metrics00B9_
FNDA:0,_RNCNCNvNtNtCs6wj2z9XdCGO_15gungraun_runner6runner4args22parse_callgrind_limits00B9_
FNDA:0,_RNCNCNvNtNtCs6wj2z9XdCGO_15gungraun_runner6runner4args23parse_cachegrind_limits00B9_
FNDA:0,_RNCNCNvNtNtCs6wj2z9XdCGO_15gungraun_runner6runner4args23parse_callgrind_metrics00B9_
FNDA:0,_RNCNCNvNtNtCs6wj2z9XdCGO_15gungraun_runner6runner4args24parse_cachegrind_metrics00B9_
FNDA:0,_RNCNvNtNtCs6wj2z9XdCGO_15gungraun_runner6runner4args10parse_envs0B7_
FNDA:0,_RNCNvNtNtCs6wj2z9XdCGO_15gungraun_runner6runner4args10parse_envss0_0B7_
FNDA:0,_RNCNvNtNtCs6wj2z9XdCGO_15gungraun_runner6runner4args10parse_envss_0B7_
FNDA:0,_RNCNvNtNtCs6wj2z9XdCGO_15gungraun_runner6runner4args14parse_raw_args0B7_
FNDA:0,_RNCNvNtNtCs6wj2z9XdCGO_15gungraun_runner6runner4args15parse_tool_args0B7_
FNDA:0,_RNCNvNtNtCs6wj2z9XdCGO_15gungraun_runner6runner4args17parse_dhat_limits0B7_
FNDA:0,_RNCNvNtNtCs6wj2z9XdCGO_15gungraun_runner6runner4args18parse_dhat_metrics0B7_
FNDA:0,_RNCNvNtNtCs6wj2z9XdCGO_15gungraun_runner6runner4args19parse_error_metrics0B7_
FNDA:0,_RNCNvNtNtCs6wj2z9XdCGO_15gungraun_runner6runner4args19parse_error_metricss_0B7_
FNDA:0,_RNCNvNtNtCs6wj2z9XdCGO_15gungraun_runner6runner4args19parse_path_resolved0B7_
FNDA:0,_RNCNvNtNtCs6wj2z9XdCGO_15gungraun_runner6runner4args22parse_callgrind_limits0B7_
FNDA:0,_RNCNvNtNtCs6wj2z9XdCGO_15gungraun_runner6runner4args23parse_cachegrind_limits0B7_
FNDA:0,_RNCNvNtNtCs6wj2z9XdCGO_15gungraun_runner6runner4args23parse_callgrind_metrics0B7_
FNDA:0,_RNCNvNtNtCs6wj2z9XdCGO_15gungraun_runner6runner4args24parse_cachegrind_metrics0B7_
FNDA:0,_RNvMNtNtCs6wj2z9XdCGO_15gungraun_runner6runner4argsNtB2_15BenchmarkFilter5apply
FNDA:0,_RNvMs0_NtNtCs6wj2z9XdCGO_15gungraun_runner6runner4argsNtB5_9NoCapture5apply
FNDA:0,_RNvNtNtCs6wj2z9XdCGO_15gungraun_runner6runner4args10parse_envs
FNDA:0,_RNvNtNtCs6wj2z9XdCGO_15gungraun_runner6runner4args14parse_parallel
FNDA:0,_RNvNtNtCs6wj2z9XdCGO_15gungraun_runner6runner4args14parse_raw_args
FNDA:0,_RNvNtNtCs6wj2z9XdCGO_15gungraun_runner6runner4args15parse_nocapture
FNDA:0,_RNvNtNtCs6wj2z9XdCGO_15gungraun_runner6runner4args15parse_tool_args
FNDA:0,_RNvNtNtCs6wj2z9XdCGO_15gungraun_runner6runner4args17parse_dhat_limits
FNDA:0,_RNvNtNtCs6wj2z9XdCGO_15gungraun_runner6runner4args17parse_drd_metrics
FNDA:0,_RNvNtNtCs6wj2z9XdCGO_15gungraun_runner6runner4args18parse_dhat_metrics
FNDA:0,_RNvNtNtCs6wj2z9XdCGO_15gungraun_runner6runner4args19parse_error_metrics
FNDA:0,_RNvNtNtCs6wj2z9XdCGO_15gungraun_runner6runner4args19parse_path_resolved
FNDA:0,_RNvNtNtCs6wj2z9XdCGO_15gungraun_runner6runner4args22parse_callgrind_limits
FNDA:0,_RNvNtNtCs6wj2z9XdCGO_15gungraun_runner6runner4args22parse_helgrind_metrics
FNDA:0,_RNvNtNtCs6wj2z9XdCGO_15gungraun_runner6runner4args22parse_memcheck_metrics
FNDA:0,_RNvNtNtCs6wj2z9XdCGO_15gungraun_runner6runner4args23parse_cachegrind_limits
FNDA:0,_RNvNtNtCs6wj2z9XdCGO_15gungraun_runner6runner4args23parse_callgrind_metrics
FNDA:0,_RNvNtNtCs6wj2z9XdCGO_15gungraun_runner6runner4args24parse_cachegrind_metrics
FNDA:0,_RNvNtNtCs6wj2z9XdCGO_15gungraun_runner6runner4args26parse_truncate_description
FNDA:0,_RNvXs_NtNtCs6wj2z9XdCGO_15gungraun_runner6runner4argsNtB4_15BenchmarkFilterNtNtNtCsgEmfK2I1SDS_4core3str6traits7FromStr8from_str
FNDA:0,_RNvMs2_NtNtCs6wj2z9XdCGO_15gungraun_runner6runner4argsNtB5_7RawArgs3len
FNDA:0,_RNvXs1_NtNtCslU5GooN79Bb_15gungraun_runner6runner4argsINtNtCsgEmfK2I1SDS_4core6option6OptionjEINtNtBV_7convert4FromNtB5_19TruncateDescriptionE4from
FNDA:0,_RNvMs2_NtNtCslU5GooN79Bb_15gungraun_runner6runner4argsNtB5_7RawArgs8as_slice
FNDA:0,_RNvMs2_NtNtCslU5GooN79Bb_15gungraun_runner6runner4argsNtB5_7RawArgs8is_empty
FNDA:0,_RINvNtNtCslU5GooN79Bb_15gungraun_runner6runner4args12parse_limitsNtNtB6_3api10DhatMetricEB6_
FNDA:0,_RINvNtNtCslU5GooN79Bb_15gungraun_runner6runner4args12parse_limitsNtNtB6_3api16CachegrindMetricEB6_
FNDA:0,_RINvNtNtCslU5GooN79Bb_15gungraun_runner6runner4args12parse_limitsNtNtB6_3api9EventKindEB6_
FNDA:0,_RINvNtNtCslU5GooN79Bb_15gungraun_runner6runner4args14convert_metricNtNtB6_3api10DhatMetricEB6_
FNDA:0,_RINvNtNtCslU5GooN79Bb_15gungraun_runner6runner4args14convert_metricNtNtB6_3api16CachegrindMetricEB6_
FNDA:0,_RINvNtNtCslU5GooN79Bb_15gungraun_runner6runner4args14convert_metricNtNtB6_3api9EventKindEB6_
FNDA:0,_RINvNtNtCslU5GooN79Bb_15gungraun_runner6runner4args18parse_tool_metricsNtNtB6_3api10DhatMetricEB6_
FNDA:0,_RINvNtNtCslU5GooN79Bb_15gungraun_runner6runner4args18parse_tool_metricsNtNtB6_3api11ErrorMetricEB6_
FNDA:0,_RINvNtNtCslU5GooN79Bb_15gungraun_runner6runner4args18parse_tool_metricsNtNtB6_3api16CachegrindMetricEB6_
FNDA:0,_RINvNtNtCslU5GooN79Bb_15gungraun_runner6runner4args18parse_tool_metricsNtNtB6_3api9EventKindEB6_
FNDA:0,_RNCINvNtNtCslU5GooN79Bb_15gungraun_runner6runner4args12parse_limitsNtNtB8_3api10DhatMetricE0B8_
FNDA:0,_RNCINvNtNtCslU5GooN79Bb_15gungraun_runner6runner4args12parse_limitsNtNtB8_3api10DhatMetricEs_0B8_
FNDA:0,_RNCINvNtNtCslU5GooN79Bb_15gungraun_runner6runner4args12parse_limitsNtNtB8_3api16CachegrindMetricE0B8_
FNDA:0,_RNCINvNtNtCslU5GooN79Bb_15gungraun_runner6runner4args12parse_limitsNtNtB8_3api16CachegrindMetricEs_0B8_
FNDA:0,_RNCINvNtNtCslU5GooN79Bb_15gungraun_runner6runner4args12parse_limitsNtNtB8_3api9EventKindE0B8_
FNDA:0,_RNCINvNtNtCslU5GooN79Bb_15gungraun_runner6runner4args12parse_limitsNtNtB8_3api9EventKindEs_0B8_
FNDA:0,_RNCINvNtNtCslU5GooN79Bb_15gungraun_runner6runner4args14convert_metricNtNtB8_3api10DhatMetricE0B8_
FNDA:0,_RNCINvNtNtCslU5GooN79Bb_15gungraun_runner6runner4args14convert_metricNtNtB8_3api10DhatMetricEs_0B8_
FNDA:0,_RNCINvNtNtCslU5GooN79Bb_15gungraun_runner6runner4args14convert_metricNtNtB8_3api16CachegrindMetricE0B8_
FNDA:0,_RNCINvNtNtCslU5GooN79Bb_15gungraun_runner6runner4args14convert_metricNtNtB8_3api16CachegrindMetricEs_0B8_
FNDA:0,_RNCINvNtNtCslU5GooN79Bb_15gungraun_runner6runner4args14convert_metricNtNtB8_3api9EventKindE0B8_
FNDA:0,_RNCINvNtNtCslU5GooN79Bb_15gungraun_runner6runner4args14convert_metricNtNtB8_3api9EventKindEs_0B8_
FNDA:0,_RNCNCNvNtNtCslU5GooN79Bb_15gungraun_runner6runner4args10parse_envss_00B9_
FNDA:0,_RNCNCNvNtNtCslU5GooN79Bb_15gungraun_runner6runner4args17parse_dhat_limits00B9_
FNDA:0,_RNCNCNvNtNtCslU5GooN79Bb_15gungraun_runner6runner4args18parse_dhat_metrics00B9_
FNDA:0,_RNCNCNvNtNtCslU5GooN79Bb_15gungraun_runner6runner4args22parse_callgrind_limits00B9_
FNDA:0,_RNCNCNvNtNtCslU5GooN79Bb_15gungraun_runner6runner4args23parse_cachegrind_limits00B9_
FNDA:0,_RNCNCNvNtNtCslU5GooN79Bb_15gungraun_runner6runner4args23parse_callgrind_metrics00B9_
FNDA:0,_RNCNCNvNtNtCslU5GooN79Bb_15gungraun_runner6runner4args24parse_cachegrind_metrics00B9_
FNDA:0,_RNCNvNtNtCslU5GooN79Bb_15gungraun_runner6runner4args10parse_envs0B7_
FNDA:0,_RNCNvNtNtCslU5GooN79Bb_15gungraun_runner6runner4args10parse_envss0_0B7_
FNDA:0,_RNCNvNtNtCslU5GooN79Bb_15gungraun_runner6runner4args10parse_envss_0B7_
FNDA:0,_RNCNvNtNtCslU5GooN79Bb_15gungraun_runner6runner4args14parse_raw_args0B7_
FNDA:0,_RNCNvNtNtCslU5GooN79Bb_15gungraun_runner6runner4args15parse_tool_args0B7_
FNDA:0,_RNCNvNtNtCslU5GooN79Bb_15gungraun_runner6runner4args17parse_dhat_limits0B7_
FNDA:0,_RNCNvNtNtCslU5GooN79Bb_15gungraun_runner6runner4args18parse_dhat_metrics0B7_
FNDA:0,_RNCNvNtNtCslU5GooN79Bb_15gungraun_runner6runner4args19parse_error_metrics0B7_
FNDA:0,_RNCNvNtNtCslU5GooN79Bb_15gungraun_runner6runner4args19parse_error_metricss_0B7_
FNDA:0,_RNCNvNtNtCslU5GooN79Bb_15gungraun_runner6runner4args19parse_path_resolved0B7_
FNDA:0,_RNCNvNtNtCslU5GooN79Bb_15gungraun_runner6runner4args22parse_callgrind_limits0B7_
FNDA:0,_RNCNvNtNtCslU5GooN79Bb_15gungraun_runner6runner4args23parse_cachegrind_limits0B7_
FNDA:0,_RNCNvNtNtCslU5GooN79Bb_15gungraun_runner6runner4args23parse_callgrind_metrics0B7_
FNDA:0,_RNCNvNtNtCslU5GooN79Bb_15gungraun_runner6runner4args24parse_cachegrind_metrics0B7_
FNDA:0,_RNvMNtNtCslU5GooN79Bb_15gungraun_runner6runner4argsNtB2_15BenchmarkFilter5apply
FNDA:0,_RNvMs0_NtNtCslU5GooN79Bb_15gungraun_runner6runner4argsNtB5_9NoCapture5apply
FNDA:0,_RNvNtNtCslU5GooN79Bb_15gungraun_runner6runner4args10parse_envs
FNDA:0,_RNvNtNtCslU5GooN79Bb_15gungraun_runner6runner4args14parse_parallel
FNDA:0,_RNvNtNtCslU5GooN79Bb_15gungraun_runner6runner4args14parse_raw_args
FNDA:0,_RNvNtNtCslU5GooN79Bb_15gungraun_runner6runner4args15parse_nocapture
FNDA:0,_RNvNtNtCslU5GooN79Bb_15gungraun_runner6runner4args15parse_tool_args
FNDA:0,_RNvNtNtCslU5GooN79Bb_15gungraun_runner6runner4args17parse_dhat_limits
FNDA:0,_RNvNtNtCslU5GooN79Bb_15gungraun_runner6runner4args17parse_drd_metrics
FNDA:0,_RNvNtNtCslU5GooN79Bb_15gungraun_runner6runner4args18parse_dhat_metrics
FNDA:0,_RNvNtNtCslU5GooN79Bb_15gungraun_runner6runner4args19parse_error_metrics
FNDA:0,_RNvNtNtCslU5GooN79Bb_15gungraun_runner6runner4args19parse_path_resolved
FNDA:0,_RNvNtNtCslU5GooN79Bb_15gungraun_runner6runner4args22parse_callgrind_limits
FNDA:0,_RNvNtNtCslU5GooN79Bb_15gungraun_runner6runner4args22parse_helgrind_metrics
FNDA:0,_RNvNtNtCslU5GooN79Bb_15gungraun_runner6runner4args22parse_memcheck_metrics
FNDA:0,_RNvNtNtCslU5GooN79Bb_15gungraun_runner6runner4args23parse_cachegrind_limits
FNDA:0,_RNvNtNtCslU5GooN79Bb_15gungraun_runner6runner4args23parse_callgrind_metrics
FNDA:0,_RNvNtNtCslU5GooN79Bb_15gungraun_runner6runner4args24parse_cachegrind_metrics
FNDA:0,_RNvNtNtCslU5GooN79Bb_15gungraun_runner6runner4args26parse_truncate_description
FNDA:0,_RNvXs_NtNtCslU5GooN79Bb_15gungraun_runner6runner4argsNtB4_15BenchmarkFilterNtNtNtCsgEmfK2I1SDS_4core3str6traits7FromStr8from_str
FNDA:0,_RNCNCNvNtNtCslU5GooN79Bb_15gungraun_runner6runner4args17parse_dhat_limits0s_0B9_
FNDA:0,_RNCNCNvNtNtCslU5GooN79Bb_15gungraun_runner6runner4args22parse_callgrind_limits0s_0B9_
FNDA:0,_RNCNCNvNtNtCslU5GooN79Bb_15gungraun_runner6runner4args23parse_cachegrind_limits0s_0B9_
FNDA:0,_RNvMs2_NtNtCslU5GooN79Bb_15gungraun_runner6runner4argsNtB5_7RawArgs3len
FNDA:400,_RNvXs1_NtNtCs8iksUjoTkmC_15gungraun_runner6runner4argsINtNtCsgEmfK2I1SDS_4core6option6OptionjEINtNtBV_7convert4FromNtB5_19TruncateDescriptionE4from
FNDA:4,_RNvMs2_NtNtCs8iksUjoTkmC_15gungraun_runner6runner4argsNtB5_7RawArgs8as_slice
FNDA:4,_RNvMs2_NtNtCs8iksUjoTkmC_15gungraun_runner6runner4argsNtB5_7RawArgs8is_empty
FNDA:2,_RINvNtNtCs8iksUjoTkmC_15gungraun_runner6runner4args12parse_limitsNtNtB6_3api10DhatMetricEB6_
FNDA:2,_RINvNtNtCs8iksUjoTkmC_15gungraun_runner6runner4args12parse_limitsNtNtB6_3api16CachegrindMetricEB6_
FNDA:2,_RINvNtNtCs8iksUjoTkmC_15gungraun_runner6runner4args12parse_limitsNtNtB6_3api9EventKindEB6_
FNDA:4,_RINvNtNtCs8iksUjoTkmC_15gungraun_runner6runner4args14convert_metricNtNtB6_3api10DhatMetricEB6_
FNDA:2,_RINvNtNtCs8iksUjoTkmC_15gungraun_runner6runner4args14convert_metricNtNtB6_3api16CachegrindMetricEB6_
FNDA:2,_RINvNtNtCs8iksUjoTkmC_15gungraun_runner6runner4args14convert_metricNtNtB6_3api9EventKindEB6_
FNDA:4,_RINvNtNtCs8iksUjoTkmC_15gungraun_runner6runner4args18parse_tool_metricsNtNtB6_3api10DhatMetricEB6_
FNDA:6,_RINvNtNtCs8iksUjoTkmC_15gungraun_runner6runner4args18parse_tool_metricsNtNtB6_3api11ErrorMetricEB6_
FNDA:2,_RINvNtNtCs8iksUjoTkmC_15gungraun_runner6runner4args18parse_tool_metricsNtNtB6_3api16CachegrindMetricEB6_
FNDA:4,_RINvNtNtCs8iksUjoTkmC_15gungraun_runner6runner4args18parse_tool_metricsNtNtB6_3api9EventKindEB6_
FNDA:0,_RNCINvNtNtCs8iksUjoTkmC_15gungraun_runner6runner4args12parse_limitsNtNtB8_3api10DhatMetricE0B8_
FNDA:0,_RNCINvNtNtCs8iksUjoTkmC_15gungraun_runner6runner4args12parse_limitsNtNtB8_3api10DhatMetricEs_0B8_
FNDA:0,_RNCINvNtNtCs8iksUjoTkmC_15gungraun_runner6runner4args12parse_limitsNtNtB8_3api16CachegrindMetricE0B8_
FNDA:0,_RNCINvNtNtCs8iksUjoTkmC_15gungraun_runner6runner4args12parse_limitsNtNtB8_3api16CachegrindMetricEs_0B8_
FNDA:0,_RNCINvNtNtCs8iksUjoTkmC_15gungraun_runner6runner4args12parse_limitsNtNtB8_3api9EventKindE0B8_
FNDA:0,_RNCINvNtNtCs8iksUjoTkmC_15gungraun_runner6runner4args12parse_limitsNtNtB8_3api9EventKindEs_0B8_
FNDA:0,_RNCINvNtNtCs8iksUjoTkmC_15gungraun_runner6runner4args14convert_metricNtNtB8_3api10DhatMetricE0B8_
FNDA:2,_RNCINvNtNtCs8iksUjoTkmC_15gungraun_runner6runner4args14convert_metricNtNtB8_3api10DhatMetricEs_0B8_
FNDA:0,_RNCINvNtNtCs8iksUjoTkmC_15gungraun_runner6runner4args14convert_metricNtNtB8_3api16CachegrindMetricE0B8_
FNDA:0,_RNCINvNtNtCs8iksUjoTkmC_15gungraun_runner6runner4args14convert_metricNtNtB8_3api16CachegrindMetricEs_0B8_
FNDA:0,_RNCINvNtNtCs8iksUjoTkmC_15gungraun_runner6runner4args14convert_metricNtNtB8_3api9EventKindE0B8_
FNDA:0,_RNCINvNtNtCs8iksUjoTkmC_15gungraun_runner6runner4args14convert_metricNtNtB8_3api9EventKindEs_0B8_
FNDA:0,_RNCNCNvNtNtCs8iksUjoTkmC_15gungraun_runner6runner4args10parse_envss_00B9_
FNDA:0,_RNCNCNvNtNtCs8iksUjoTkmC_15gungraun_runner6runner4args17parse_dhat_limits00B9_
FNDA:0,_RNCNCNvNtNtCs8iksUjoTkmC_15gungraun_runner6runner4args18parse_dhat_metrics00B9_
FNDA:0,_RNCNCNvNtNtCs8iksUjoTkmC_15gungraun_runner6runner4args22parse_callgrind_limits00B9_
FNDA:0,_RNCNCNvNtNtCs8iksUjoTkmC_15gungraun_runner6runner4args23parse_cachegrind_limits00B9_
FNDA:0,_RNCNCNvNtNtCs8iksUjoTkmC_15gungraun_runner6runner4args23parse_callgrind_metrics00B9_
FNDA:0,_RNCNCNvNtNtCs8iksUjoTkmC_15gungraun_runner6runner4args24parse_cachegrind_metrics00B9_
FNDA:0,_RNCNvNtNtCs8iksUjoTkmC_15gungraun_runner6runner4args10parse_envs0B7_
FNDA:0,_RNCNvNtNtCs8iksUjoTkmC_15gungraun_runner6runner4args10parse_envss0_0B7_
FNDA:2,_RNCNvNtNtCs8iksUjoTkmC_15gungraun_runner6runner4args10parse_envss_0B7_
FNDA:0,_RNCNvNtNtCs8iksUjoTkmC_15gungraun_runner6runner4args14parse_raw_args0B7_
FNDA:0,_RNCNvNtNtCs8iksUjoTkmC_15gungraun_runner6runner4args15parse_tool_args0B7_
FNDA:4,_RNCNvNtNtCs8iksUjoTkmC_15gungraun_runner6runner4args17parse_dhat_limits0B7_
FNDA:8,_RNCNvNtNtCs8iksUjoTkmC_15gungraun_runner6runner4args18parse_dhat_metrics0B7_
FNDA:0,_RNCNvNtNtCs8iksUjoTkmC_15gungraun_runner6runner4args19parse_error_metrics0B7_
FNDA:0,_RNCNvNtNtCs8iksUjoTkmC_15gungraun_runner6runner4args19parse_error_metricss_0B7_
FNDA:0,_RNCNvNtNtCs8iksUjoTkmC_15gungraun_runner6runner4args19parse_path_resolved0B7_
FNDA:2,_RNCNvNtNtCs8iksUjoTkmC_15gungraun_runner6runner4args22parse_callgrind_limits0B7_
FNDA:2,_RNCNvNtNtCs8iksUjoTkmC_15gungraun_runner6runner4args23parse_cachegrind_limits0B7_
FNDA:4,_RNCNvNtNtCs8iksUjoTkmC_15gungraun_runner6runner4args23parse_callgrind_metrics0B7_
FNDA:4,_RNCNvNtNtCs8iksUjoTkmC_15gungraun_runner6runner4args24parse_cachegrind_metrics0B7_
FNDA:75,_RNvMNtNtCs8iksUjoTkmC_15gungraun_runner6runner4argsNtB2_15BenchmarkFilter5apply
FNDA:4298,_RNvMs0_NtNtCs8iksUjoTkmC_15gungraun_runner6runner4argsNtB5_9NoCapture5apply
FNDA:2,_RNvNtNtCs8iksUjoTkmC_15gungraun_runner6runner4args10parse_envs
FNDA:349,_RNvNtNtCs8iksUjoTkmC_15gungraun_runner6runner4args14parse_parallel
FNDA:4,_RNvNtNtCs8iksUjoTkmC_15gungraun_runner6runner4args14parse_raw_args
FNDA:349,_RNvNtNtCs8iksUjoTkmC_15gungraun_runner6runner4args15parse_nocapture
FNDA:0,_RNvNtNtCs8iksUjoTkmC_15gungraun_runner6runner4args15parse_tool_args
FNDA:2,_RNvNtNtCs8iksUjoTkmC_15gungraun_runner6runner4args17parse_dhat_limits
FNDA:2,_RNvNtNtCs8iksUjoTkmC_15gungraun_runner6runner4args17parse_drd_metrics
FNDA:4,_RNvNtNtCs8iksUjoTkmC_15gungraun_runner6runner4args18parse_dhat_metrics
FNDA:6,_RNvNtNtCs8iksUjoTkmC_15gungraun_runner6runner4args19parse_error_metrics
FNDA:12,_RNvNtNtCs8iksUjoTkmC_15gungraun_runner6runner4args19parse_path_resolved
FNDA:2,_RNvNtNtCs8iksUjoTkmC_15gungraun_runner6runner4args22parse_callgrind_limits
FNDA:2,_RNvNtNtCs8iksUjoTkmC_15gungraun_runner6runner4args22parse_helgrind_metrics
FNDA:2,_RNvNtNtCs8iksUjoTkmC_15gungraun_runner6runner4args22parse_memcheck_metrics
FNDA:2,_RNvNtNtCs8iksUjoTkmC_15gungraun_runner6runner4args23parse_cachegrind_limits
FNDA:4,_RNvNtNtCs8iksUjoTkmC_15gungraun_runner6runner4args23parse_callgrind_metrics
FNDA:2,_RNvNtNtCs8iksUjoTkmC_15gungraun_runner6runner4args24parse_cachegrind_metrics
FNDA:22,_RNvNtNtCs8iksUjoTkmC_15gungraun_runner6runner4args26parse_truncate_description
FNDA:15,_RNvXs_NtNtCs8iksUjoTkmC_15gungraun_runner6runner4argsNtB4_15BenchmarkFilterNtNtNtCsgEmfK2I1SDS_4core3str6traits7FromStr8from_str
FNDA:4,_RNCNCNvNtNtCs8iksUjoTkmC_15gungraun_runner6runner4args17parse_dhat_limits0s_0B9_
FNDA:2,_RNCNCNvNtNtCs8iksUjoTkmC_15gungraun_runner6runner4args22parse_callgrind_limits0s_0B9_
FNDA:2,_RNCNCNvNtNtCs8iksUjoTkmC_15gungraun_runner6runner4args23parse_cachegrind_limits0s_0B9_
FNDA:0,_RNvMs2_NtNtCs8iksUjoTkmC_15gungraun_runner6runner4argsNtB5_7RawArgs3len
FNF:55
FNH:36
DA:1466,75
DA:1467,75
DA:1468,75
DA:1469,75
DA:1475,15
DA:1476,15
DA:1477,15
DA:1482,4298
DA:1483,4298
DA:1484,4298
DA:1485,4298
DA:1486,4298
DA:1487,4298
DA:1488,1354
DA:1490,1354
DA:1491,1354
DA:1492,1354
DA:1494,1536
DA:1495,1536
DA:1496,1536
DA:1497,1536
DA:1499,4
DA:1500,4
DA:1501,4
DA:1502,4
DA:1504,4
DA:1505,4
DA:1506,4
DA:1507,4
DA:1509,40
DA:1510,40
DA:1511,40
DA:1512,1360
DA:1513,1360
DA:1514,1360
DA:1515,0
DA:1516,0
DA:1517,0
DA:1518,0
DA:1519,0
DA:1520,0
DA:1523,4298
DA:1524,4298
DA:1528,400
DA:1529,400
DA:1530,58
DA:1531,342
DA:1533,400
DA:1538,4
DA:1539,4
DA:1540,4
DA:1543,4
DA:1544,4
DA:1545,4
DA:1548,0
DA:1549,0
DA:1550,0
DA:1556,8
DA:1557,8
DA:1558,8
DA:1559,8
DA:1560,8
DA:1561,2
DA:1562,2
DA:1563,2
DA:1564,0
DA:1569,0
DA:1570,2
DA:1572,6
DA:1574,8
DA:1577,2
DA:1578,2
DA:1579,2
DA:1580,2
DA:1581,2
DA:1582,2
DA:1583,2
DA:1584,2
DA:1585,2
DA:1586,2
DA:1588,2
DA:1589,2
DA:1590,2
DA:1591,2
DA:1592,2
DA:1594,2
DA:1595,2
DA:1598,2
DA:1599,4
DA:1600,4
DA:1601,4
DA:1602,4
DA:1603,4
DA:1604,2
DA:1613,2
DA:1614,2
DA:1615,2
DA:1616,2
DA:1617,2
DA:1618,2
DA:1619,2
DA:1620,2
DA:1621,2
DA:1622,2
DA:1624,2
DA:1625,2
DA:1626,2
DA:1627,2
DA:1628,2
DA:1630,2
DA:1631,2
DA:1634,4
DA:1635,4
DA:1636,4
DA:1637,4
DA:1638,4
DA:1639,4
DA:1640,4
DA:1643,2
DA:1644,4
DA:1645,4
DA:1646,4
DA:1647,4
DA:1648,4
DA:1649,4
DA:1650,4
DA:1651,4
DA:1652,4
DA:1654,2
DA:1655,2
DA:1656,2
DA:1657,2
DA:1658,2
DA:1660,2
DA:1661,2
DA:1664,4
DA:1665,8
DA:1666,8
DA:1667,8
DA:1668,8
DA:1669,8
DA:1670,4
DA:1673,2
DA:1674,2
DA:1675,2
DA:1678,2
DA:1679,2
DA:1680,2
DA:1681,2
DA:1682,2
DA:1683,2
DA:1684,2
DA:1686,2
DA:1687,2
DA:1689,2
DA:1690,2
DA:1691,2
DA:1692,1
DA:1693,0
DA:1694,1
DA:1696,1
DA:1697,1
DA:1698,1
DA:1699,1
DA:1700,0
DA:1701,0
DA:1704,2
DA:1705,2
DA:1707,6
DA:1708,6
DA:1709,0
DA:1710,0
DA:1711,0
DA:1712,0
DA:1713,0
DA:1715,0
DA:1718,6
DA:1719,6
DA:1720,6
DA:1721,6
DA:1723,6
DA:1726,2
DA:1727,2
DA:1728,2
DA:1730,6
DA:1731,6
DA:1732,6
DA:1733,6
DA:1734,6
DA:1735,6
DA:1736,0
DA:1737,6
DA:1739,6
DA:1740,6
DA:1742,8
DA:1743,8
DA:1745,8
DA:1746,8
DA:1747,8
DA:1748,8
DA:1750,8
DA:1751,6
DA:1752,0
DA:1753,0
DA:1754,6
DA:1755,6
DA:1756,6
DA:1757,6
DA:1759,2
DA:1760,0
DA:1761,0
DA:1762,2
DA:1763,2
DA:1764,2
DA:1765,2
DA:1766,2
DA:1767,0
DA:1768,0
DA:1773,0
DA:1777,6
DA:1778,6
DA:1781,2
DA:1782,2
DA:1783,2
DA:1786,349
DA:1791,349
DA:1793,349
DA:1794,139
DA:1795,210
DA:1796,206
DA:1797,4
DA:1798,2
DA:1799,2
DA:1800,2
DA:1802,0
DA:1804,349
DA:1807,349
DA:1808,349
DA:1810,349
DA:1811,6
DA:1812,343
DA:1813,343
DA:1814,343
DA:1816,0
DA:1819,0
DA:1821,349
DA:1823,12
DA:1824,12
DA:1825,12
DA:1828,4
DA:1829,4
DA:1830,0
DA:1831,4
DA:1832,4
DA:1833,4
DA:1834,0
DA:1837,0
DA:1840,4
DA:1841,4
DA:1842,4
DA:1843,4
DA:1847,0
DA:1848,0
DA:1849,0
DA:1852,16
DA:1853,16
DA:1854,16
DA:1855,16
DA:1856,16
DA:1857,16
DA:1858,0
DA:1859,16
DA:1861,16
DA:1863,22
DA:1864,22
DA:1865,22
DA:1866,22
DA:1869,16
DA:1870,16
DA:1872,22
DA:1878,22
DA:1880,22
DA:1881,0
DA:1882,22
DA:1883,18
DA:1884,4
DA:1885,4
DA:1887,0
DA:1889,22
BRF:0
BRH:0
LF:322
LH:260
end_of_record
SF:/fast/lenny/workspace/programming/gungraun/gungraun/gungraun-runner/src/runner/bin_bench.rs
FN:472,_RNCNCNvMs1_NtNtCs6wj2z9XdCGO_15gungraun_runner6runner9bin_benchNtB9_5Delay5apply00Bd_
FN:470,_RNCNvMs1_NtNtCs6wj2z9XdCGO_15gungraun_runner6runner9bin_benchNtB7_5Delay5apply0Bb_
FN:481,_RNCNvMs1_NtNtCs6wj2z9XdCGO_15gungraun_runner6runner9bin_benchNtB7_5Delay5applys_0Bb_
FN:246,_RNCNvMs_NtNtCs6wj2z9XdCGO_15gungraun_runner6runner9bin_benchNtB6_8BinBench12is_fail_fast0Ba_
FN:423,_RNCNvMs_NtNtCs6wj2z9XdCGO_15gungraun_runner6runner9bin_benchNtB6_8BinBench24create_benchmark_summary0Ba_
FN:283,_RNCNvMs_NtNtCs6wj2z9XdCGO_15gungraun_runner6runner9bin_benchNtB6_8BinBench3new0Ba_
FN:313,_RNCNvMs_NtNtCs6wj2z9XdCGO_15gungraun_runner6runner9bin_benchNtB6_8BinBench3news0_0Ba_
FN:347,_RNCNvMs_NtNtCs6wj2z9XdCGO_15gungraun_runner6runner9bin_benchNtB6_8BinBench3news1_0Ba_
FN:355,_RNCNvMs_NtNtCs6wj2z9XdCGO_15gungraun_runner6runner9bin_benchNtB6_8BinBench3news2_0Ba_
FN:384,_RNCNvMs_NtNtCs6wj2z9XdCGO_15gungraun_runner6runner9bin_benchNtB6_8BinBench3news3_0Ba_
FN:301,_RNCNvMs_NtNtCs6wj2z9XdCGO_15gungraun_runner6runner9bin_benchNtB6_8BinBench3news_0Ba_
FN:766,_RNCNvNtNtCs6wj2z9XdCGO_15gungraun_runner6runner9bin_bench17benchmark_factory0B7_
FN:566,_RNCNvXs2_NtNtCs6wj2z9XdCGO_15gungraun_runner6runner9bin_benchNtB7_5DelayINtNtCsgEmfK2I1SDS_4core7convert4FromNtNtBb_3api5DelayE4from0Bb_
FN:569,_RNCNvXs2_NtNtCs6wj2z9XdCGO_15gungraun_runner6runner9bin_benchNtB7_5DelayINtNtCsgEmfK2I1SDS_4core7convert4FromNtNtBb_3api5DelayE4froms0_0Bb_
FN:568,_RNCNvXs2_NtNtCs6wj2z9XdCGO_15gungraun_runner6runner9bin_benchNtB7_5DelayINtNtCsgEmfK2I1SDS_4core7convert4FromNtNtBb_3api5DelayE4froms_0Bb_
FN:442,_RNvMs0_NtNtCs6wj2z9XdCGO_15gungraun_runner6runner9bin_benchNtB5_7Command3new
FN:495,_RNvMs1_NtNtCs6wj2z9XdCGO_15gungraun_runner6runner9bin_benchNtB5_5Delay4exec
FN:462,_RNvMs1_NtNtCs6wj2z9XdCGO_15gungraun_runner6runner9bin_benchNtB5_5Delay5apply
FN:242,_RNvMs_NtNtCs6wj2z9XdCGO_15gungraun_runner6runner9bin_benchNtB4_8BinBench12is_fail_fast
FN:411,_RNvMs_NtNtCs6wj2z9XdCGO_15gungraun_runner6runner9bin_benchNtB4_8BinBench24create_benchmark_summary
FN:264,_RNvMs_NtNtCs6wj2z9XdCGO_15gungraun_runner6runner9bin_benchNtB4_8BinBench3new
FN:403,_RNvMs_NtNtCs6wj2z9XdCGO_15gungraun_runner6runner9bin_benchNtB4_8BinBench4name
FN:743,_RNvNtNtCs6wj2z9XdCGO_15gungraun_runner6runner9bin_bench17benchmark_factory
FN:778,_RNvNtNtCs6wj2z9XdCGO_15gungraun_runner6runner9bin_bench3run
FN:772,_RNvNtNtCs6wj2z9XdCGO_15gungraun_runner6runner9bin_bench4list
FN:228,_RNvXNtNtCs6wj2z9XdCGO_15gungraun_runner6runner9bin_benchNtB2_17BaselineBenchmarkNtB2_9Benchmark14data_processor
FN:162,_RNvXNtNtCs6wj2z9XdCGO_15gungraun_runner6runner9bin_benchNtB2_17BaselineBenchmarkNtB2_9Benchmark19default_output_path
FN:198,_RNvXNtNtCs6wj2z9XdCGO_15gungraun_runner6runner9bin_benchNtB2_17BaselineBenchmarkNtB2_9Benchmark3run
FN:191,_RNvXNtNtCs6wj2z9XdCGO_15gungraun_runner6runner9bin_benchNtB2_17BaselineBenchmarkNtB2_9Benchmark9baselines
FN:553,_RNvXs2_NtNtCs6wj2z9XdCGO_15gungraun_runner6runner9bin_benchNtB5_5DelayINtNtCsgEmfK2I1SDS_4core7convert4FromNtNtB9_3api5DelayE4from
FN:647,_RNvXs3_NtNtCs6wj2z9XdCGO_15gungraun_runner6runner9bin_benchNtB5_21LoadBaselineBenchmarkNtB5_9Benchmark14data_processor
FN:599,_RNvXs3_NtNtCs6wj2z9XdCGO_15gungraun_runner6runner9bin_benchNtB5_21LoadBaselineBenchmarkNtB5_9Benchmark19default_output_path
FN:629,_RNvXs3_NtNtCs6wj2z9XdCGO_15gungraun_runner6runner9bin_benchNtB5_21LoadBaselineBenchmarkNtB5_9Benchmark3run
FN:622,_RNvXs3_NtNtCs6wj2z9XdCGO_15gungraun_runner6runner9bin_benchNtB5_21LoadBaselineBenchmarkNtB5_9Benchmark9baselines
FN:726,_RNvXs4_NtNtCs6wj2z9XdCGO_15gungraun_runner6runner9bin_benchNtB5_21SaveBaselineBenchmarkNtB5_9Benchmark14data_processor
FN:660,_RNvXs4_NtNtCs6wj2z9XdCGO_15gungraun_runner6runner9bin_benchNtB5_21SaveBaselineBenchmarkNtB5_9Benchmark19default_output_path
FN:696,_RNvXs4_NtNtCs6wj2z9XdCGO_15gungraun_runner6runner9bin_benchNtB5_21SaveBaselineBenchmarkNtB5_9Benchmark3run
FN:689,_RNvXs4_NtNtCs6wj2z9XdCGO_15gungraun_runner6runner9bin_benchNtB5_21SaveBaselineBenchmarkNtB5_9Benchmark9baselines
FN:453,_RNvMs1_NtNtCs6wj2z9XdCGO_15gungraun_runner6runner9bin_benchNtB5_5Delay3new
FN:481,_RNCNvMs1_NtNtCslU5GooN79Bb_15gungraun_runner6runner9bin_benchNtB7_5Delay5applys_0Bb_
FN:246,_RNCNvMs_NtNtCslU5GooN79Bb_15gungraun_runner6runner9bin_benchNtB6_8BinBench12is_fail_fast0Ba_
FN:423,_RNCNvMs_NtNtCslU5GooN79Bb_15gungraun_runner6runner9bin_benchNtB6_8BinBench24create_benchmark_summary0Ba_
FN:283,_RNCNvMs_NtNtCslU5GooN79Bb_15gungraun_runner6runner9bin_benchNtB6_8BinBench3new0Ba_
FN:313,_RNCNvMs_NtNtCslU5GooN79Bb_15gungraun_runner6runner9bin_benchNtB6_8BinBench3news0_0Ba_
FN:347,_RNCNvMs_NtNtCslU5GooN79Bb_15gungraun_runner6runner9bin_benchNtB6_8BinBench3news1_0Ba_
FN:355,_RNCNvMs_NtNtCslU5GooN79Bb_15gungraun_runner6runner9bin_benchNtB6_8BinBench3news2_0Ba_
FN:384,_RNCNvMs_NtNtCslU5GooN79Bb_15gungraun_runner6runner9bin_benchNtB6_8BinBench3news3_0Ba_
FN:301,_RNCNvMs_NtNtCslU5GooN79Bb_15gungraun_runner6runner9bin_benchNtB6_8BinBench3news_0Ba_
FN:766,_RNCNvNtNtCslU5GooN79Bb_15gungraun_runner6runner9bin_bench17benchmark_factory0B7_
FN:566,_RNCNvXs2_NtNtCslU5GooN79Bb_15gungraun_runner6runner9bin_benchNtB7_5DelayINtNtCsgEmfK2I1SDS_4core7convert4FromNtNtBb_3api5DelayE4from0Bb_
FN:569,_RNCNvXs2_NtNtCslU5GooN79Bb_15gungraun_runner6runner9bin_benchNtB7_5DelayINtNtCsgEmfK2I1SDS_4core7convert4FromNtNtBb_3api5DelayE4froms0_0Bb_
FN:568,_RNCNvXs2_NtNtCslU5GooN79Bb_15gungraun_runner6runner9bin_benchNtB7_5DelayINtNtCsgEmfK2I1SDS_4core7convert4FromNtNtBb_3api5DelayE4froms_0Bb_
FN:442,_RNvMs0_NtNtCslU5GooN79Bb_15gungraun_runner6runner9bin_benchNtB5_7Command3new
FN:495,_RNvMs1_NtNtCslU5GooN79Bb_15gungraun_runner6runner9bin_benchNtB5_5Delay4exec
FN:462,_RNvMs1_NtNtCslU5GooN79Bb_15gungraun_runner6runner9bin_benchNtB5_5Delay5apply
FN:242,_RNvMs_NtNtCslU5GooN79Bb_15gungraun_runner6runner9bin_benchNtB4_8BinBench12is_fail_fast
FN:411,_RNvMs_NtNtCslU5GooN79Bb_15gungraun_runner6runner9bin_benchNtB4_8BinBench24create_benchmark_summary
FN:264,_RNvMs_NtNtCslU5GooN79Bb_15gungraun_runner6runner9bin_benchNtB4_8BinBench3new
FN:403,_RNvMs_NtNtCslU5GooN79Bb_15gungraun_runner6runner9bin_benchNtB4_8BinBench4name
FN:743,_RNvNtNtCslU5GooN79Bb_15gungraun_runner6runner9bin_bench17benchmark_factory
FN:778,_RNvNtNtCslU5GooN79Bb_15gungraun_runner6runner9bin_bench3run
FN:772,_RNvNtNtCslU5GooN79Bb_15gungraun_runner6runner9bin_bench4list
FN:228,_RNvXNtNtCslU5GooN79Bb_15gungraun_runner6runner9bin_benchNtB2_17BaselineBenchmarkNtB2_9Benchmark14data_processor
FN:162,_RNvXNtNtCslU5GooN79Bb_15gungraun_runner6runner9bin_benchNtB2_17BaselineBenchmarkNtB2_9Benchmark19default_output_path
FN:198,_RNvXNtNtCslU5GooN79Bb_15gungraun_runner6runner9bin_benchNtB2_17BaselineBenchmarkNtB2_9Benchmark3run
FN:191,_RNvXNtNtCslU5GooN79Bb_15gungraun_runner6runner9bin_benchNtB2_17BaselineBenchmarkNtB2_9Benchmark9baselines
FN:553,_RNvXs2_NtNtCslU5GooN79Bb_15gungraun_runner6runner9bin_benchNtB5_5DelayINtNtCsgEmfK2I1SDS_4core7convert4FromNtNtB9_3api5DelayE4from
FN:647,_RNvXs3_NtNtCslU5GooN79Bb_15gungraun_runner6runner9bin_benchNtB5_21LoadBaselineBenchmarkNtB5_9Benchmark14data_processor
FN:599,_RNvXs3_NtNtCslU5GooN79Bb_15gungraun_runner6runner9bin_benchNtB5_21LoadBaselineBenchmarkNtB5_9Benchmark19default_output_path
FN:629,_RNvXs3_NtNtCslU5GooN79Bb_15gungraun_runner6runner9bin_benchNtB5_21LoadBaselineBenchmarkNtB5_9Benchmark3run
FN:622,_RNvXs3_NtNtCslU5GooN79Bb_15gungraun_runner6runner9bin_benchNtB5_21LoadBaselineBenchmarkNtB5_9Benchmark9baselines
FN:726,_RNvXs4_NtNtCslU5GooN79Bb_15gungraun_runner6runner9bin_benchNtB5_21SaveBaselineBenchmarkNtB5_9Benchmark14data_processor
FN:660,_RNvXs4_NtNtCslU5GooN79Bb_15gungraun_runner6runner9bin_benchNtB5_21SaveBaselineBenchmarkNtB5_9Benchmark19default_output_path
FN:696,_RNvXs4_NtNtCslU5GooN79Bb_15gungraun_runner6runner9bin_benchNtB5_21SaveBaselineBenchmarkNtB5_9Benchmark3run
FN:689,_RNvXs4_NtNtCslU5GooN79Bb_15gungraun_runner6runner9bin_benchNtB5_21SaveBaselineBenchmarkNtB5_9Benchmark9baselines
FN:472,_RNCNCNvMs1_NtNtCslU5GooN79Bb_15gungraun_runner6runner9bin_benchNtB9_5Delay5apply00Bd_
FN:470,_RNCNvMs1_NtNtCslU5GooN79Bb_15gungraun_runner6runner9bin_benchNtB7_5Delay5apply0Bb_
FN:453,_RNvMs1_NtNtCslU5GooN79Bb_15gungraun_runner6runner9bin_benchNtB5_5Delay3new
FN:481,_RNCNvMs1_NtNtCs8iksUjoTkmC_15gungraun_runner6runner9bin_benchNtB7_5Delay5applys_0Bb_
FN:246,_RNCNvMs_NtNtCs8iksUjoTkmC_15gungraun_runner6runner9bin_benchNtB6_8BinBench12is_fail_fast0Ba_
FN:423,_RNCNvMs_NtNtCs8iksUjoTkmC_15gungraun_runner6runner9bin_benchNtB6_8BinBench24create_benchmark_summary0Ba_
FN:283,_RNCNvMs_NtNtCs8iksUjoTkmC_15gungraun_runner6runner9bin_benchNtB6_8BinBench3new0Ba_
FN:313,_RNCNvMs_NtNtCs8iksUjoTkmC_15gungraun_runner6runner9bin_benchNtB6_8BinBench3news0_0Ba_
FN:347,_RNCNvMs_NtNtCs8iksUjoTkmC_15gungraun_runner6runner9bin_benchNtB6_8BinBench3news1_0Ba_
FN:355,_RNCNvMs_NtNtCs8iksUjoTkmC_15gungraun_runner6runner9bin_benchNtB6_8BinBench3news2_0Ba_
FN:384,_RNCNvMs_NtNtCs8iksUjoTkmC_15gungraun_runner6runner9bin_benchNtB6_8BinBench3news3_0Ba_
FN:301,_RNCNvMs_NtNtCs8iksUjoTkmC_15gungraun_runner6runner9bin_benchNtB6_8BinBench3news_0Ba_
FN:766,_RNCNvNtNtCs8iksUjoTkmC_15gungraun_runner6runner9bin_bench17benchmark_factory0B7_
FN:566,_RNCNvXs2_NtNtCs8iksUjoTkmC_15gungraun_runner6runner9bin_benchNtB7_5DelayINtNtCsgEmfK2I1SDS_4core7convert4FromNtNtBb_3api5DelayE4from0Bb_
FN:569,_RNCNvXs2_NtNtCs8iksUjoTkmC_15gungraun_runner6runner9bin_benchNtB7_5DelayINtNtCsgEmfK2I1SDS_4core7convert4FromNtNtBb_3api5DelayE4froms0_0Bb_
FN:568,_RNCNvXs2_NtNtCs8iksUjoTkmC_15gungraun_runner6runner9bin_benchNtB7_5DelayINtNtCsgEmfK2I1SDS_4core7convert4FromNtNtBb_3api5DelayE4froms_0Bb_
FN:442,_RNvMs0_NtNtCs8iksUjoTkmC_15gungraun_runner6runner9bin_benchNtB5_7Command3new
FN:495,_RNvMs1_NtNtCs8iksUjoTkmC_15gungraun_runner6runner9bin_benchNtB5_5Delay4exec
FN:462,_RNvMs1_NtNtCs8iksUjoTkmC_15gungraun_runner6runner9bin_benchNtB5_5Delay5apply
FN:242,_RNvMs_NtNtCs8iksUjoTkmC_15gungraun_runner6runner9bin_benchNtB4_8BinBench12is_fail_fast
FN:411,_RNvMs_NtNtCs8iksUjoTkmC_15gungraun_runner6runner9bin_benchNtB4_8BinBench24create_benchmark_summary
FN:264,_RNvMs_NtNtCs8iksUjoTkmC_15gungraun_runner6runner9bin_benchNtB4_8BinBench3new
FN:403,_RNvMs_NtNtCs8iksUjoTkmC_15gungraun_runner6runner9bin_benchNtB4_8BinBench4name
FN:743,_RNvNtNtCs8iksUjoTkmC_15gungraun_runner6runner9bin_bench17benchmark_factory
FN:778,_RNvNtNtCs8iksUjoTkmC_15gungraun_runner6runner9bin_bench3run
FN:772,_RNvNtNtCs8iksUjoTkmC_15gungraun_runner6runner9bin_bench4list
FN:228,_RNvXNtNtCs8iksUjoTkmC_15gungraun_runner6runner9bin_benchNtB2_17BaselineBenchmarkNtB2_9Benchmark14data_processor
FN:162,_RNvXNtNtCs8iksUjoTkmC_15gungraun_runner6runner9bin_benchNtB2_17BaselineBenchmarkNtB2_9Benchmark19default_output_path
FN:198,_RNvXNtNtCs8iksUjoTkmC_15gungraun_runner6runner9bin_benchNtB2_17BaselineBenchmarkNtB2_9Benchmark3run
FN:191,_RNvXNtNtCs8iksUjoTkmC_15gungraun_runner6runner9bin_benchNtB2_17BaselineBenchmarkNtB2_9Benchmark9baselines
FN:553,_RNvXs2_NtNtCs8iksUjoTkmC_15gungraun_runner6runner9bin_benchNtB5_5DelayINtNtCsgEmfK2I1SDS_4core7convert4FromNtNtB9_3api5DelayE4from
FN:647,_RNvXs3_NtNtCs8iksUjoTkmC_15gungraun_runner6runner9bin_benchNtB5_21LoadBaselineBenchmarkNtB5_9Benchmark14data_processor
FN:599,_RNvXs3_NtNtCs8iksUjoTkmC_15gungraun_runner6runner9bin_benchNtB5_21LoadBaselineBenchmarkNtB5_9Benchmark19default_output_path
FN:629,_RNvXs3_NtNtCs8iksUjoTkmC_15gungraun_runner6runner9bin_benchNtB5_21LoadBaselineBenchmarkNtB5_9Benchmark3run
FN:622,_RNvXs3_NtNtCs8iksUjoTkmC_15gungraun_runner6runner9bin_benchNtB5_21LoadBaselineBenchmarkNtB5_9Benchmark9baselines
FN:726,_RNvXs4_NtNtCs8iksUjoTkmC_15gungraun_runner6runner9bin_benchNtB5_21SaveBaselineBenchmarkNtB5_9Benchmark14data_processor
FN:660,_RNvXs4_NtNtCs8iksUjoTkmC_15gungraun_runner6runner9bin_benchNtB5_21SaveBaselineBenchmarkNtB5_9Benchmark19default_output_path
FN:696,_RNvXs4_NtNtCs8iksUjoTkmC_15gungraun_runner6runner9bin_benchNtB5_21SaveBaselineBenchmarkNtB5_9Benchmark3run
FN:689,_RNvXs4_NtNtCs8iksUjoTkmC_15gungraun_runner6runner9bin_benchNtB5_21SaveBaselineBenchmarkNtB5_9Benchmark9baselines
FN:472,_RNCNCNvMs1_NtNtCs8iksUjoTkmC_15gungraun_runner6runner9bin_benchNtB9_5Delay5apply00Bd_
FN:470,_RNCNvMs1_NtNtCs8iksUjoTkmC_15gungraun_runner6runner9bin_benchNtB7_5Delay5apply0Bb_
FN:453,_RNvMs1_NtNtCs8iksUjoTkmC_15gungraun_runner6runner9bin_benchNtB5_5Delay3new
FNDA:0,_RNCNCNvMs1_NtNtCs6wj2z9XdCGO_15gungraun_runner6runner9bin_benchNtB9_5Delay5apply00Bd_
FNDA:0,_RNCNvMs1_NtNtCs6wj2z9XdCGO_15gungraun_runner6runner9bin_benchNtB7_5Delay5apply0Bb_
FNDA:0,_RNCNvMs1_NtNtCs6wj2z9XdCGO_15gungraun_runner6runner9bin_benchNtB7_5Delay5applys_0Bb_
FNDA:0,_RNCNvMs_NtNtCs6wj2z9XdCGO_15gungraun_runner6runner9bin_benchNtB6_8BinBench12is_fail_fast0Ba_
FNDA:0,_RNCNvMs_NtNtCs6wj2z9XdCGO_15gungraun_runner6runner9bin_benchNtB6_8BinBench24create_benchmark_summary0Ba_
FNDA:0,_RNCNvMs_NtNtCs6wj2z9XdCGO_15gungraun_runner6runner9bin_benchNtB6_8BinBench3new0Ba_
FNDA:0,_RNCNvMs_NtNtCs6wj2z9XdCGO_15gungraun_runner6runner9bin_benchNtB6_8BinBench3news0_0Ba_
FNDA:0,_RNCNvMs_NtNtCs6wj2z9XdCGO_15gungraun_runner6runner9bin_benchNtB6_8BinBench3news1_0Ba_
FNDA:0,_RNCNvMs_NtNtCs6wj2z9XdCGO_15gungraun_runner6runner9bin_benchNtB6_8BinBench3news2_0Ba_
FNDA:0,_RNCNvMs_NtNtCs6wj2z9XdCGO_15gungraun_runner6runner9bin_benchNtB6_8BinBench3news3_0Ba_
FNDA:0,_RNCNvMs_NtNtCs6wj2z9XdCGO_15gungraun_runner6runner9bin_benchNtB6_8BinBench3news_0Ba_
FNDA:0,_RNCNvNtNtCs6wj2z9XdCGO_15gungraun_runner6runner9bin_bench17benchmark_factory0B7_
FNDA:0,_RNCNvXs2_NtNtCs6wj2z9XdCGO_15gungraun_runner6runner9bin_benchNtB7_5DelayINtNtCsgEmfK2I1SDS_4core7convert4FromNtNtBb_3api5DelayE4from0Bb_
FNDA:0,_RNCNvXs2_NtNtCs6wj2z9XdCGO_15gungraun_runner6runner9bin_benchNtB7_5DelayINtNtCsgEmfK2I1SDS_4core7convert4FromNtNtBb_3api5DelayE4froms0_0Bb_
FNDA:0,_RNCNvXs2_NtNtCs6wj2z9XdCGO_15gungraun_runner6runner9bin_benchNtB7_5DelayINtNtCsgEmfK2I1SDS_4core7convert4FromNtNtBb_3api5DelayE4froms_0Bb_
FNDA:0,_RNvMs0_NtNtCs6wj2z9XdCGO_15gungraun_runner6runner9bin_benchNtB5_7Command3new
FNDA:0,_RNvMs1_NtNtCs6wj2z9XdCGO_15gungraun_runner6runner9bin_benchNtB5_5Delay4exec
FNDA:0,_RNvMs1_NtNtCs6wj2z9XdCGO_15gungraun_runner6runner9bin_benchNtB5_5Delay5apply
FNDA:0,_RNvMs_NtNtCs6wj2z9XdCGO_15gungraun_runner6runner9bin_benchNtB4_8BinBench12is_fail_fast
FNDA:0,_RNvMs_NtNtCs6wj2z9XdCGO_15gungraun_runner6runner9bin_benchNtB4_8BinBench24create_benchmark_summary
FNDA:0,_RNvMs_NtNtCs6wj2z9XdCGO_15gungraun_runner6runner9bin_benchNtB4_8BinBench3new
FNDA:0,_RNvMs_NtNtCs6wj2z9XdCGO_15gungraun_runner6runner9bin_benchNtB4_8BinBench4name
FNDA:0,_RNvNtNtCs6wj2z9XdCGO_15gungraun_runner6runner9bin_bench17benchmark_factory
FNDA:0,_RNvNtNtCs6wj2z9XdCGO_15gungraun_runner6runner9bin_bench3run
FNDA:0,_RNvNtNtCs6wj2z9XdCGO_15gungraun_runner6runner9bin_bench4list
FNDA:0,_RNvXNtNtCs6wj2z9XdCGO_15gungraun_runner6runner9bin_benchNtB2_17BaselineBenchmarkNtB2_9Benchmark14data_processor
FNDA:0,_RNvXNtNtCs6wj2z9XdCGO_15gungraun_runner6runner9bin_benchNtB2_17BaselineBenchmarkNtB2_9Benchmark19default_output_path
FNDA:0,_RNvXNtNtCs6wj2z9XdCGO_15gungraun_runner6runner9bin_benchNtB2_17BaselineBenchmarkNtB2_9Benchmark3run
FNDA:0,_RNvXNtNtCs6wj2z9XdCGO_15gungraun_runner6runner9bin_benchNtB2_17BaselineBenchmarkNtB2_9Benchmark9baselines
FNDA:0,_RNvXs2_NtNtCs6wj2z9XdCGO_15gungraun_runner6runner9bin_benchNtB5_5DelayINtNtCsgEmfK2I1SDS_4core7convert4FromNtNtB9_3api5DelayE4from
FNDA:0,_RNvXs3_NtNtCs6wj2z9XdCGO_15gungraun_runner6runner9bin_benchNtB5_21LoadBaselineBenchmarkNtB5_9Benchmark14data_processor
FNDA:0,_RNvXs3_NtNtCs6wj2z9XdCGO_15gungraun_runner6runner9bin_benchNtB5_21LoadBaselineBenchmarkNtB5_9Benchmark19default_output_path
FNDA:0,_RNvXs3_NtNtCs6wj2z9XdCGO_15gungraun_runner6runner9bin_benchNtB5_21LoadBaselineBenchmarkNtB5_9Benchmark3run
FNDA:0,_RNvXs3_NtNtCs6wj2z9XdCGO_15gungraun_runner6runner9bin_benchNtB5_21LoadBaselineBenchmarkNtB5_9Benchmark9baselines
FNDA:0,_RNvXs4_NtNtCs6wj2z9XdCGO_15gungraun_runner6runner9bin_benchNtB5_21SaveBaselineBenchmarkNtB5_9Benchmark14data_processor
FNDA:0,_RNvXs4_NtNtCs6wj2z9XdCGO_15gungraun_runner6runner9bin_benchNtB5_21SaveBaselineBenchmarkNtB5_9Benchmark19default_output_path
FNDA:0,_RNvXs4_NtNtCs6wj2z9XdCGO_15gungraun_runner6runner9bin_benchNtB5_21SaveBaselineBenchmarkNtB5_9Benchmark3run
FNDA:0,_RNvXs4_NtNtCs6wj2z9XdCGO_15gungraun_runner6runner9bin_benchNtB5_21SaveBaselineBenchmarkNtB5_9Benchmark9baselines
FNDA:0,_RNvMs1_NtNtCs6wj2z9XdCGO_15gungraun_runner6runner9bin_benchNtB5_5Delay3new
FNDA:0,_RNCNvMs1_NtNtCslU5GooN79Bb_15gungraun_runner6runner9bin_benchNtB7_5Delay5applys_0Bb_
FNDA:0,_RNCNvMs_NtNtCslU5GooN79Bb_15gungraun_runner6runner9bin_benchNtB6_8BinBench12is_fail_fast0Ba_
FNDA:0,_RNCNvMs_NtNtCslU5GooN79Bb_15gungraun_runner6runner9bin_benchNtB6_8BinBench24create_benchmark_summary0Ba_
FNDA:0,_RNCNvMs_NtNtCslU5GooN79Bb_15gungraun_runner6runner9bin_benchNtB6_8BinBench3new0Ba_
FNDA:0,_RNCNvMs_NtNtCslU5GooN79Bb_15gungraun_runner6runner9bin_benchNtB6_8BinBench3news0_0Ba_
FNDA:0,_RNCNvMs_NtNtCslU5GooN79Bb_15gungraun_runner6runner9bin_benchNtB6_8BinBench3news1_0Ba_
FNDA:0,_RNCNvMs_NtNtCslU5GooN79Bb_15gungraun_runner6runner9bin_benchNtB6_8BinBench3news2_0Ba_
FNDA:0,_RNCNvMs_NtNtCslU5GooN79Bb_15gungraun_runner6runner9bin_benchNtB6_8BinBench3news3_0Ba_
FNDA:0,_RNCNvMs_NtNtCslU5GooN79Bb_15gungraun_runner6runner9bin_benchNtB6_8BinBench3news_0Ba_
FNDA:0,_RNCNvNtNtCslU5GooN79Bb_15gungraun_runner6runner9bin_bench17benchmark_factory0B7_
FNDA:0,_RNCNvXs2_NtNtCslU5GooN79Bb_15gungraun_runner6runner9bin_benchNtB7_5DelayINtNtCsgEmfK2I1SDS_4core7convert4FromNtNtBb_3api5DelayE4from0Bb_
FNDA:0,_RNCNvXs2_NtNtCslU5GooN79Bb_15gungraun_runner6runner9bin_benchNtB7_5DelayINtNtCsgEmfK2I1SDS_4core7convert4FromNtNtBb_3api5DelayE4froms0_0Bb_
FNDA:0,_RNCNvXs2_NtNtCslU5GooN79Bb_15gungraun_runner6runner9bin_benchNtB7_5DelayINtNtCsgEmfK2I1SDS_4core7convert4FromNtNtBb_3api5DelayE4froms_0Bb_
FNDA:0,_RNvMs0_NtNtCslU5GooN79Bb_15gungraun_runner6runner9bin_benchNtB5_7Command3new
FNDA:0,_RNvMs1_NtNtCslU5GooN79Bb_15gungraun_runner6runner9bin_benchNtB5_5Delay4exec
FNDA:0,_RNvMs1_NtNtCslU5GooN79Bb_15gungraun_runner6runner9bin_benchNtB5_5Delay5apply
FNDA:0,_RNvMs_NtNtCslU5GooN79Bb_15gungraun_runner6runner9bin_benchNtB4_8BinBench12is_fail_fast
FNDA:0,_RNvMs_NtNtCslU5GooN79Bb_15gungraun_runner6runner9bin_benchNtB4_8BinBench24create_benchmark_summary
FNDA:0,_RNvMs_NtNtCslU5GooN79Bb_15gungraun_runner6runner9bin_benchNtB4_8BinBench3new
FNDA:0,_RNvMs_NtNtCslU5GooN79Bb_15gungraun_runner6runner9bin_benchNtB4_8BinBench4name
FNDA:0,_RNvNtNtCslU5GooN79Bb_15gungraun_runner6runner9bin_bench17benchmark_factory
FNDA:0,_RNvNtNtCslU5GooN79Bb_15gungraun_runner6runner9bin_bench3run
FNDA:0,_RNvNtNtCslU5GooN79Bb_15gungraun_runner6runner9bin_bench4list
FNDA:0,_RNvXNtNtCslU5GooN79Bb_15gungraun_runner6runner9bin_benchNtB2_17BaselineBenchmarkNtB2_9Benchmark14data_processor
FNDA:0,_RNvXNtNtCslU5GooN79Bb_15gungraun_runner6runner9bin_benchNtB2_17BaselineBenchmarkNtB2_9Benchmark19default_output_path
FNDA:0,_RNvXNtNtCslU5GooN79Bb_15gungraun_runner6runner9bin_benchNtB2_17BaselineBenchmarkNtB2_9Benchmark3run
FNDA:0,_RNvXNtNtCslU5GooN79Bb_15gungraun_runner6runner9bin_benchNtB2_17BaselineBenchmarkNtB2_9Benchmark9baselines
FNDA:0,_RNvXs2_NtNtCslU5GooN79Bb_15gungraun_runner6runner9bin_benchNtB5_5DelayINtNtCsgEmfK2I1SDS_4core7convert4FromNtNtB9_3api5DelayE4from
FNDA:0,_RNvXs3_NtNtCslU5GooN79Bb_15gungraun_runner6runner9bin_benchNtB5_21LoadBaselineBenchmarkNtB5_9Benchmark14data_processor
FNDA:0,_RNvXs3_NtNtCslU5GooN79Bb_15gungraun_runner6runner9bin_benchNtB5_21LoadBaselineBenchmarkNtB5_9Benchmark19default_output_path
FNDA:0,_RNvXs3_NtNtCslU5GooN79Bb_15gungraun_runner6runner9bin_benchNtB5_21LoadBaselineBenchmarkNtB5_9Benchmark3run
FNDA:0,_RNvXs3_NtNtCslU5GooN79Bb_15gungraun_runner6runner9bin_benchNtB5_21LoadBaselineBenchmarkNtB5_9Benchmark9baselines
FNDA:0,_RNvXs4_NtNtCslU5GooN79Bb_15gungraun_runner6runner9bin_benchNtB5_21SaveBaselineBenchmarkNtB5_9Benchmark14data_processor
FNDA:0,_RNvXs4_NtNtCslU5GooN79Bb_15gungraun_runner6runner9bin_benchNtB5_21SaveBaselineBenchmarkNtB5_9Benchmark19default_output_path
FNDA:0,_RNvXs4_NtNtCslU5GooN79Bb_15gungraun_runner6runner9bin_benchNtB5_21SaveBaselineBenchmarkNtB5_9Benchmark3run
FNDA:0,_RNvXs4_NtNtCslU5GooN79Bb_15gungraun_runner6runner9bin_benchNtB5_21SaveBaselineBenchmarkNtB5_9Benchmark9baselines
FNDA:0,_RNCNCNvMs1_NtNtCslU5GooN79Bb_15gungraun_runner6runner9bin_benchNtB9_5Delay5apply00Bd_
FNDA:0,_RNCNvMs1_NtNtCslU5GooN79Bb_15gungraun_runner6runner9bin_benchNtB7_5Delay5apply0Bb_
FNDA:0,_RNvMs1_NtNtCslU5GooN79Bb_15gungraun_runner6runner9bin_benchNtB5_5Delay3new
FNDA:3,_RNCNvMs1_NtNtCs8iksUjoTkmC_15gungraun_runner6runner9bin_benchNtB7_5Delay5applys_0Bb_
FNDA:439,_RNCNvMs_NtNtCs8iksUjoTkmC_15gungraun_runner6runner9bin_benchNtB6_8BinBench12is_fail_fast0Ba_
FNDA:397,_RNCNvMs_NtNtCs8iksUjoTkmC_15gungraun_runner6runner9bin_benchNtB6_8BinBench24create_benchmark_summary0Ba_
FNDA:51,_RNCNvMs_NtNtCs8iksUjoTkmC_15gungraun_runner6runner9bin_benchNtB6_8BinBench3new0Ba_
FNDA:0,_RNCNvMs_NtNtCs8iksUjoTkmC_15gungraun_runner6runner9bin_benchNtB6_8BinBench3news0_0Ba_
FNDA:0,_RNCNvMs_NtNtCs8iksUjoTkmC_15gungraun_runner6runner9bin_benchNtB6_8BinBench3news1_0Ba_
FNDA:8,_RNCNvMs_NtNtCs8iksUjoTkmC_15gungraun_runner6runner9bin_benchNtB6_8BinBench3news2_0Ba_
FNDA:399,_RNCNvMs_NtNtCs8iksUjoTkmC_15gungraun_runner6runner9bin_benchNtB6_8BinBench3news3_0Ba_
FNDA:403,_RNCNvMs_NtNtCs8iksUjoTkmC_15gungraun_runner6runner9bin_benchNtB6_8BinBench3news_0Ba_
FNDA:0,_RNCNvNtNtCs8iksUjoTkmC_15gungraun_runner6runner9bin_bench17benchmark_factory0B7_
FNDA:3,_RNCNvXs2_NtNtCs8iksUjoTkmC_15gungraun_runner6runner9bin_benchNtB7_5DelayINtNtCsgEmfK2I1SDS_4core7convert4FromNtNtBb_3api5DelayE4from0Bb_
FNDA:3,_RNCNvXs2_NtNtCs8iksUjoTkmC_15gungraun_runner6runner9bin_benchNtB7_5DelayINtNtCsgEmfK2I1SDS_4core7convert4FromNtNtBb_3api5DelayE4froms0_0Bb_
FNDA:0,_RNCNvXs2_NtNtCs8iksUjoTkmC_15gungraun_runner6runner9bin_benchNtB7_5DelayINtNtCsgEmfK2I1SDS_4core7convert4FromNtNtBb_3api5DelayE4froms_0Bb_
FNDA:403,_RNvMs0_NtNtCs8iksUjoTkmC_15gungraun_runner6runner9bin_benchNtB5_7Command3new
FNDA:13,_RNvMs1_NtNtCs8iksUjoTkmC_15gungraun_runner6runner9bin_benchNtB5_5Delay4exec
FNDA:13,_RNvMs1_NtNtCs8iksUjoTkmC_15gungraun_runner6runner9bin_benchNtB5_5Delay5apply
FNDA:398,_RNvMs_NtNtCs8iksUjoTkmC_15gungraun_runner6runner9bin_benchNtB4_8BinBench12is_fail_fast
FNDA:397,_RNvMs_NtNtCs8iksUjoTkmC_15gungraun_runner6runner9bin_benchNtB4_8BinBench24create_benchmark_summary
FNDA:419,_RNvMs_NtNtCs8iksUjoTkmC_15gungraun_runner6runner9bin_benchNtB4_8BinBench3new
FNDA:397,_RNvMs_NtNtCs8iksUjoTkmC_15gungraun_runner6runner9bin_benchNtB4_8BinBench4name
FNDA:398,_RNvNtNtCs8iksUjoTkmC_15gungraun_runner6runner9bin_bench17benchmark_factory
FNDA:66,_RNvNtNtCs8iksUjoTkmC_15gungraun_runner6runner9bin_bench3run
FNDA:1,_RNvNtNtCs8iksUjoTkmC_15gungraun_runner6runner9bin_bench4list
FNDA:319,_RNvXNtNtCs8iksUjoTkmC_15gungraun_runner6runner9bin_benchNtB2_17BaselineBenchmarkNtB2_9Benchmark14data_processor
FNDA:319,_RNvXNtNtCs8iksUjoTkmC_15gungraun_runner6runner9bin_benchNtB2_17BaselineBenchmarkNtB2_9Benchmark19default_output_path
FNDA:319,_RNvXNtNtCs8iksUjoTkmC_15gungraun_runner6runner9bin_benchNtB2_17BaselineBenchmarkNtB2_9Benchmark3run
FNDA:319,_RNvXNtNtCs8iksUjoTkmC_15gungraun_runner6runner9bin_benchNtB2_17BaselineBenchmarkNtB2_9Benchmark9baselines
FNDA:14,_RNvXs2_NtNtCs8iksUjoTkmC_15gungraun_runner6runner9bin_benchNtB5_5DelayINtNtCsgEmfK2I1SDS_4core7convert4FromNtNtB9_3api5DelayE4from
FNDA:36,_RNvXs3_NtNtCs8iksUjoTkmC_15gungraun_runner6runner9bin_benchNtB5_21LoadBaselineBenchmarkNtB5_9Benchmark14data_processor
FNDA:36,_RNvXs3_NtNtCs8iksUjoTkmC_15gungraun_runner6runner9bin_benchNtB5_21LoadBaselineBenchmarkNtB5_9Benchmark19default_output_path
FNDA:36,_RNvXs3_NtNtCs8iksUjoTkmC_15gungraun_runner6runner9bin_benchNtB5_21LoadBaselineBenchmarkNtB5_9Benchmark3run
FNDA:36,_RNvXs3_NtNtCs8iksUjoTkmC_15gungraun_runner6runner9bin_benchNtB5_21LoadBaselineBenchmarkNtB5_9Benchmark9baselines
FNDA:42,_RNvXs4_NtNtCs8iksUjoTkmC_15gungraun_runner6runner9bin_benchNtB5_21SaveBaselineBenchmarkNtB5_9Benchmark14data_processor
FNDA:42,_RNvXs4_NtNtCs8iksUjoTkmC_15gungraun_runner6runner9bin_benchNtB5_21SaveBaselineBenchmarkNtB5_9Benchmark19default_output_path
FNDA:42,_RNvXs4_NtNtCs8iksUjoTkmC_15gungraun_runner6runner9bin_benchNtB5_21SaveBaselineBenchmarkNtB5_9Benchmark3run
FNDA:42,_RNvXs4_NtNtCs8iksUjoTkmC_15gungraun_runner6runner9bin_benchNtB5_21SaveBaselineBenchmarkNtB5_9Benchmark9baselines
FNDA:0,_RNCNCNvMs1_NtNtCs8iksUjoTkmC_15gungraun_runner6runner9bin_benchNtB9_5Delay5apply00Bd_
FNDA:3,_RNCNvMs1_NtNtCs8iksUjoTkmC_15gungraun_runner6runner9bin_benchNtB7_5Delay5apply0Bb_
FNDA:0,_RNvMs1_NtNtCs8iksUjoTkmC_15gungraun_runner6runner9bin_benchNtB5_5Delay3new
FNF:39
FNH:33
DA:162,319
DA:163,319
DA:164,319
DA:165,319
DA:166,319
DA:167,319
DA:168,319
DA:169,319
DA:170,319
DA:172,0
DA:174,319
DA:175,319
DA:176,319
DA:177,319
DA:178,319
DA:179,319
DA:180,319
DA:181,319
DA:182,0
DA:184,319
DA:185,0
DA:186,319
DA:188,319
DA:189,319
DA:191,319
DA:192,319
DA:193,319
DA:194,0
DA:196,319
DA:198,319
DA:199,319
DA:200,319
DA:201,319
DA:202,319
DA:203,319
DA:204,319
DA:205,319
DA:206,319
DA:207,319
DA:208,319
DA:209,319
DA:210,319
DA:211,319
DA:212,319
DA:215,319
DA:216,319
DA:217,319
DA:218,319
DA:219,319
DA:220,319
DA:221,319
DA:222,319
DA:223,319
DA:224,319
DA:226,319
DA:228,319
DA:229,319
DA:230,319
DA:231,319
DA:232,319
DA:233,319
DA:234,319
DA:235,319
DA:236,319
DA:237,319
DA:242,398
DA:243,398
DA:244,398
DA:245,398
DA:246,439
DA:247,398
DA:264,419
DA:265,419
DA:266,419
DA:267,419
DA:268,419
DA:269,419
DA:270,419
DA:271,419
DA:272,419
DA:273,419
DA:274,419
DA:275,419
DA:276,419
DA:277,419
DA:278,419
DA:279,419
DA:280,419
DA:281,419
DA:282,419
DA:283,51
DA:285,368
DA:288,419
DA:289,25
DA:290,15
DA:291,10
DA:293,25
DA:294,16
DA:295,9
DA:296,394
DA:298,403
DA:299,403
DA:300,403
DA:301,403
DA:304,403
DA:305,403
DA:306,403
DA:307,403
DA:308,403
DA:309,403
DA:311,403
DA:313,403
DA:314,0
DA:315,0
DA:319,403
DA:322,403
DA:323,403
DA:324,403
DA:325,403
DA:326,403
DA:328,403
DA:329,403
DA:331,403
DA:332,403
DA:333,403
DA:334,403
DA:336,403
DA:337,403
DA:338,403
DA:339,403
DA:340,403
DA:341,403
DA:342,403
DA:343,403
DA:344,403
DA:345,403
DA:347,403
DA:348,0
DA:349,0
DA:351,403
DA:352,403
DA:353,403
DA:354,403
DA:355,403
DA:356,8
DA:357,8
DA:359,0
DA:361,8
DA:362,403
DA:363,403
DA:365,403
DA:366,403
DA:367,403
DA:368,403
DA:369,403
DA:370,403
DA:375,403
DA:376,403
DA:377,403
DA:378,403
DA:379,403
DA:381,403
DA:382,403
DA:383,403
DA:384,403
DA:385,403
DA:386,403
DA:387,403
DA:388,403
DA:389,403
DA:390,403
DA:391,403
DA:392,403
DA:393,403
DA:394,403
DA:396,403
DA:397,403
DA:398,403
DA:399,403
DA:401,419
DA:403,397
DA:404,397
DA:405,342
DA:407,55
DA:409,397
DA:411,397
DA:412,397
DA:413,397
DA:414,397
DA:415,397
DA:416,397
DA:417,397
DA:418,397
DA:419,397
DA:420,397
DA:421,397
DA:422,397
DA:423,397
DA:425,397
DA:426,397
DA:427,397
DA:428,397
DA:429,397
DA:430,397
DA:431,397
DA:432,397
DA:433,397
DA:434,397
DA:435,397
DA:436,397
DA:438,397
DA:442,403
DA:443,403
DA:444,0
DA:445,403
DA:447,403
DA:448,403
DA:453,0
DA:454,0
DA:455,0
DA:456,0
DA:457,0
DA:458,0
DA:459,0
DA:462,13
DA:463,13
DA:464,10
DA:466,3
DA:468,3
DA:469,3
DA:470,3
DA:471,3
DA:472,3
DA:473,0
DA:474,0
DA:475,3
DA:477,3
DA:478,3
DA:480,3
DA:481,3
DA:484,0
DA:489,0
DA:493,13
DA:495,13
DA:496,13
DA:497,10
DA:498,10
DA:499,10
DA:500,1
DA:501,31
DA:502,30
DA:503,30
DA:505,1
DA:506,1
DA:508,1
DA:509,1
DA:512,0
DA:513,0
DA:517,1
DA:518,1
DA:521,19
DA:522,0
DA:523,0
DA:525,19
DA:526,19
DA:527,1
DA:528,18
DA:529,18
DA:530,0
DA:531,18
DA:536,1
DA:537,1
DA:538,1
DA:540,0
DA:542,31
DA:543,30
DA:544,30
DA:548,13
DA:549,13
DA:553,14
DA:554,14
DA:555,11
DA:556,0
DA:557,11
DA:558,11
DA:559,0
DA:563,11
DA:564,11
DA:566,3
DA:567,3
DA:568,0
DA:569,3
DA:570,3
DA:571,0
DA:572,0
DA:574,3
DA:576,3
DA:579,3
DA:580,0
DA:584,0
DA:585,0
DA:586,3
DA:587,3
DA:590,14
DA:591,14
DA:592,14
DA:593,14
DA:594,14
DA:595,14
DA:599,36
DA:600,36
DA:601,36
DA:602,36
DA:603,36
DA:604,36
DA:605,36
DA:606,36
DA:607,36
DA:609,0
DA:611,36
DA:612,36
DA:613,36
DA:614,36
DA:615,36
DA:616,36
DA:617,36
DA:620,36
DA:622,36
DA:623,36
DA:624,36
DA:625,36
DA:626,36
DA:627,36
DA:629,36
DA:630,36
DA:631,36
DA:632,36
DA:633,36
DA:634,36
DA:635,36
DA:636,36
DA:637,36
DA:638,36
DA:639,36
DA:640,36
DA:641,36
DA:642,36
DA:643,36
DA:644,36
DA:645,36
DA:647,36
DA:648,36
DA:649,36
DA:650,36
DA:651,36
DA:652,36
DA:653,36
DA:654,36
DA:655,36
DA:656,36
DA:660,42
DA:661,42
DA:662,42
DA:663,42
DA:664,42
DA:665,42
DA:666,42
DA:667,42
DA:668,42
DA:670,0
DA:672,42
DA:673,42
DA:674,42
DA:675,42
DA:676,42
DA:677,42
DA:678,42
DA:679,42
DA:680,0
DA:682,42
DA:683,0
DA:684,42
DA:686,42
DA:687,42
DA:689,42
DA:690,42
DA:691,42
DA:692,42
DA:693,42
DA:694,42
DA:696,42
DA:697,42
DA:698,42
DA:699,42
DA:700,42
DA:701,42
DA:702,42
DA:703,42
DA:704,42
DA:705,42
DA:706,42
DA:707,42
DA:708,42
DA:709,42
DA:710,42
DA:713,42
DA:714,42
DA:715,42
DA:716,42
DA:717,42
DA:718,42
DA:719,42
DA:720,42
DA:721,42
DA:722,42
DA:724,42
DA:726,42
DA:727,42
DA:728,42
DA:729,42
DA:730,42
DA:731,42
DA:732,42
DA:733,42
DA:734,42
DA:735,42
DA:743,398
DA:744,398
DA:745,42
DA:746,42
DA:747,42
DA:748,356
DA:749,36
DA:750,36
DA:751,36
DA:752,36
DA:753,36
DA:754,36
DA:755,36
DA:756,36
DA:757,36
DA:758,36
DA:760,320
DA:761,320
DA:762,320
DA:763,320
DA:764,320
DA:765,320
DA:766,320
DA:769,398
DA:772,1
DA:773,1
DA:774,1
DA:775,1
DA:778,66
DA:779,66
DA:780,66
BRF:0
BRH:0
LF:472
LH:427
end_of_record
SF:/fast/lenny/workspace/programming/gungraun/gungraun/gungraun-runner/src/runner/cachegrind/args.rs
FN:61,_RNvXs0_NtNtNtCs6wj2z9XdCGO_15gungraun_runner6runner10cachegrind4argsNtNtNtB9_4tool4args12ValgrindArgsINtNtCsgEmfK2I1SDS_4core7convert4FromNtB5_14CachegrindArgsE4from
FN:29,_RINvXNtNtNtCs6wj2z9XdCGO_15gungraun_runner6runner10cachegrind4argsNtB3_14CachegrindArgsNtNtNtB7_4tool4args8ToolArgs10try_updateINtNtNtNtCsgEmfK2I1SDS_4core4iter8adapters7flatten7FlatMapINtNtNtB2a_5slice4iter4IterRNtNtB9_3api11RawToolArgsERSNtNtCslNYArtu3iFV_5alloc6string6StringNCNvB2_22try_from_raw_tool_args0EEB9_
FN:32,_RNCINvXNtNtNtCs6wj2z9XdCGO_15gungraun_runner6runner10cachegrind4argsNtB5_14CachegrindArgsNtNtNtB9_4tool4args8ToolArgs10try_updateINtNtNtNtCsgEmfK2I1SDS_4core4iter8adapters7flatten7FlatMapINtNtNtB2c_5slice4iter4IterRNtNtBb_3api11RawToolArgsERSNtNtCslNYArtu3iFV_5alloc6string6StringNCNvB4_22try_from_raw_tool_args0EE0Bb_
FN:37,_RNCINvXNtNtNtCs6wj2z9XdCGO_15gungraun_runner6runner10cachegrind4argsNtB5_14CachegrindArgsNtNtNtB9_4tool4args8ToolArgs10try_updateINtNtNtNtCsgEmfK2I1SDS_4core4iter8adapters7flatten7FlatMapINtNtNtB2c_5slice4iter4IterRNtNtBb_3api11RawToolArgsERSNtNtCslNYArtu3iFV_5alloc6string6StringNCNvB4_22try_from_raw_tool_args0EEs_0Bb_
FN:25,_RNCNvXNtNtNtCs6wj2z9XdCGO_15gungraun_runner6runner10cachegrind4argsNtB4_14CachegrindArgsNtNtNtB8_4tool4args8ToolArgs22try_from_raw_tool_args0Ba_
FN:21,_RNvXNtNtNtCs6wj2z9XdCGO_15gungraun_runner6runner10cachegrind4argsNtB2_14CachegrindArgsNtNtNtB6_4tool4args8ToolArgs22try_from_raw_tool_args
FN:49,_RNvXs_NtNtNtCs6wj2z9XdCGO_15gungraun_runner6runner10cachegrind4argsNtB4_14CachegrindArgsNtNtCsgEmfK2I1SDS_4core7default7Default7default
FN:29,_RINvXNtNtNtCslU5GooN79Bb_15gungraun_runner6runner10cachegrind4argsNtB3_14CachegrindArgsNtNtNtB7_4tool4args8ToolArgs10try_updateINtNtNtNtCsgEmfK2I1SDS_4core4iter8adapters7flatten7FlatMapINtNtNtB2a_5slice4iter4IterRNtNtB9_3api11RawToolArgsERSNtNtCslNYArtu3iFV_5alloc6string6StringNCNvB2_22try_from_raw_tool_args0EEB9_
FN:32,_RNCINvXNtNtNtCslU5GooN79Bb_15gungraun_runner6runner10cachegrind4argsNtB5_14CachegrindArgsNtNtNtB9_4tool4args8ToolArgs10try_updateINtNtNtNtCsgEmfK2I1SDS_4core4iter8adapters7flatten7FlatMapINtNtNtB2c_5slice4iter4IterRNtNtBb_3api11RawToolArgsERSNtNtCslNYArtu3iFV_5alloc6string6StringNCNvB4_22try_from_raw_tool_args0EE0Bb_
FN:37,_RNCINvXNtNtNtCslU5GooN79Bb_15gungraun_runner6runner10cachegrind4argsNtB5_14CachegrindArgsNtNtNtB9_4tool4args8ToolArgs10try_updateINtNtNtNtCsgEmfK2I1SDS_4core4iter8adapters7flatten7FlatMapINtNtNtB2c_5slice4iter4IterRNtNtBb_3api11RawToolArgsERSNtNtCslNYArtu3iFV_5alloc6string6StringNCNvB4_22try_from_raw_tool_args0EEs_0Bb_
FN:25,_RNCNvXNtNtNtCslU5GooN79Bb_15gungraun_runner6runner10cachegrind4argsNtB4_14CachegrindArgsNtNtNtB8_4tool4args8ToolArgs22try_from_raw_tool_args0Ba_
FN:21,_RNvXNtNtNtCslU5GooN79Bb_15gungraun_runner6runner10cachegrind4argsNtB2_14CachegrindArgsNtNtNtB6_4tool4args8ToolArgs22try_from_raw_tool_args
FN:49,_RNvXs_NtNtNtCslU5GooN79Bb_15gungraun_runner6runner10cachegrind4argsNtB4_14CachegrindArgsNtNtCsgEmfK2I1SDS_4core7default7Default7default
FN:61,_RNvXs0_NtNtNtCslU5GooN79Bb_15gungraun_runner6runner10cachegrind4argsNtNtNtB9_4tool4args12ValgrindArgsINtNtCsgEmfK2I1SDS_4core7convert4FromNtB5_14CachegrindArgsE4from
FN:29,_RINvXNtNtNtCs8iksUjoTkmC_15gungraun_runner6runner10cachegrind4argsNtB3_14CachegrindArgsNtNtNtB7_4tool4args8ToolArgs10try_updateINtNtNtNtCsgEmfK2I1SDS_4core4iter8adapters7flatten7FlatMapINtNtNtB2a_5slice4iter4IterRNtNtB9_3api11RawToolArgsERSNtNtCslNYArtu3iFV_5alloc6string6StringNCNvB2_22try_from_raw_tool_args0EEB9_
FN:32,_RNCINvXNtNtNtCs8iksUjoTkmC_15gungraun_runner6runner10cachegrind4argsNtB5_14CachegrindArgsNtNtNtB9_4tool4args8ToolArgs10try_updateINtNtNtNtCsgEmfK2I1SDS_4core4iter8adapters7flatten7FlatMapINtNtNtB2c_5slice4iter4IterRNtNtBb_3api11RawToolArgsERSNtNtCslNYArtu3iFV_5alloc6string6StringNCNvB4_22try_from_raw_tool_args0EE0Bb_
FN:37,_RNCINvXNtNtNtCs8iksUjoTkmC_15gungraun_runner6runner10cachegrind4argsNtB5_14CachegrindArgsNtNtNtB9_4tool4args8ToolArgs10try_updateINtNtNtNtCsgEmfK2I1SDS_4core4iter8adapters7flatten7FlatMapINtNtNtB2c_5slice4iter4IterRNtNtBb_3api11RawToolArgsERSNtNtCslNYArtu3iFV_5alloc6string6StringNCNvB4_22try_from_raw_tool_args0EEs_0Bb_
FN:25,_RNCNvXNtNtNtCs8iksUjoTkmC_15gungraun_runner6runner10cachegrind4argsNtB4_14CachegrindArgsNtNtNtB8_4tool4args8ToolArgs22try_from_raw_tool_args0Ba_
FN:21,_RNvXNtNtNtCs8iksUjoTkmC_15gungraun_runner6runner10cachegrind4argsNtB2_14CachegrindArgsNtNtNtB6_4tool4args8ToolArgs22try_from_raw_tool_args
FN:49,_RNvXs_NtNtNtCs8iksUjoTkmC_15gungraun_runner6runner10cachegrind4argsNtB4_14CachegrindArgsNtNtCsgEmfK2I1SDS_4core7default7Default7default
FN:61,_RNvXs0_NtNtNtCs8iksUjoTkmC_15gungraun_runner6runner10cachegrind4argsNtNtNtB9_4tool4args12ValgrindArgsINtNtCsgEmfK2I1SDS_4core7convert4FromNtB5_14CachegrindArgsE4from
FNDA:0,_RNvXs0_NtNtNtCs6wj2z9XdCGO_15gungraun_runner6runner10cachegrind4argsNtNtNtB9_4tool4args12ValgrindArgsINtNtCsgEmfK2I1SDS_4core7convert4FromNtB5_14CachegrindArgsE4from
FNDA:0,_RINvXNtNtNtCs6wj2z9XdCGO_15gungraun_runner6runner10cachegrind4argsNtB3_14CachegrindArgsNtNtNtB7_4tool4args8ToolArgs10try_updateINtNtNtNtCsgEmfK2I1SDS_4core4iter8adapters7flatten7FlatMapINtNtNtB2a_5slice4iter4IterRNtNtB9_3api11RawToolArgsERSNtNtCslNYArtu3iFV_5alloc6string6StringNCNvB2_22try_from_raw_tool_args0EEB9_
FNDA:0,_RNCINvXNtNtNtCs6wj2z9XdCGO_15gungraun_runner6runner10cachegrind4argsNtB5_14CachegrindArgsNtNtNtB9_4tool4args8ToolArgs10try_updateINtNtNtNtCsgEmfK2I1SDS_4core4iter8adapters7flatten7FlatMapINtNtNtB2c_5slice4iter4IterRNtNtBb_3api11RawToolArgsERSNtNtCslNYArtu3iFV_5alloc6string6StringNCNvB4_22try_from_raw_tool_args0EE0Bb_
FNDA:0,_RNCINvXNtNtNtCs6wj2z9XdCGO_15gungraun_runner6runner10cachegrind4argsNtB5_14CachegrindArgsNtNtNtB9_4tool4args8ToolArgs10try_updateINtNtNtNtCsgEmfK2I1SDS_4core4iter8adapters7flatten7FlatMapINtNtNtB2c_5slice4iter4IterRNtNtBb_3api11RawToolArgsERSNtNtCslNYArtu3iFV_5alloc6string6StringNCNvB4_22try_from_raw_tool_args0EEs_0Bb_
FNDA:0,_RNCNvXNtNtNtCs6wj2z9XdCGO_15gungraun_runner6runner10cachegrind4argsNtB4_14CachegrindArgsNtNtNtB8_4tool4args8ToolArgs22try_from_raw_tool_args0Ba_
FNDA:0,_RNvXNtNtNtCs6wj2z9XdCGO_15gungraun_runner6runner10cachegrind4argsNtB2_14CachegrindArgsNtNtNtB6_4tool4args8ToolArgs22try_from_raw_tool_args
FNDA:0,_RNvXs_NtNtNtCs6wj2z9XdCGO_15gungraun_runner6runner10cachegrind4argsNtB4_14CachegrindArgsNtNtCsgEmfK2I1SDS_4core7default7Default7default
FNDA:0,_RINvXNtNtNtCslU5GooN79Bb_15gungraun_runner6runner10cachegrind4argsNtB3_14CachegrindArgsNtNtNtB7_4tool4args8ToolArgs10try_updateINtNtNtNtCsgEmfK2I1SDS_4core4iter8adapters7flatten7FlatMapINtNtNtB2a_5slice4iter4IterRNtNtB9_3api11RawToolArgsERSNtNtCslNYArtu3iFV_5alloc6string6StringNCNvB2_22try_from_raw_tool_args0EEB9_
FNDA:0,_RNCINvXNtNtNtCslU5GooN79Bb_15gungraun_runner6runner10cachegrind4argsNtB5_14CachegrindArgsNtNtNtB9_4tool4args8ToolArgs10try_updateINtNtNtNtCsgEmfK2I1SDS_4core4iter8adapters7flatten7FlatMapINtNtNtB2c_5slice4iter4IterRNtNtBb_3api11RawToolArgsERSNtNtCslNYArtu3iFV_5alloc6string6StringNCNvB4_22try_from_raw_tool_args0EE0Bb_
FNDA:0,_RNCINvXNtNtNtCslU5GooN79Bb_15gungraun_runner6runner10cachegrind4argsNtB5_14CachegrindArgsNtNtNtB9_4tool4args8ToolArgs10try_updateINtNtNtNtCsgEmfK2I1SDS_4core4iter8adapters7flatten7FlatMapINtNtNtB2c_5slice4iter4IterRNtNtBb_3api11RawToolArgsERSNtNtCslNYArtu3iFV_5alloc6string6StringNCNvB4_22try_from_raw_tool_args0EEs_0Bb_
FNDA:0,_RNCNvXNtNtNtCslU5GooN79Bb_15gungraun_runner6runner10cachegrind4argsNtB4_14CachegrindArgsNtNtNtB8_4tool4args8ToolArgs22try_from_raw_tool_args0Ba_
FNDA:0,_RNvXNtNtNtCslU5GooN79Bb_15gungraun_runner6runner10cachegrind4argsNtB2_14CachegrindArgsNtNtNtB6_4tool4args8ToolArgs22try_from_raw_tool_args
FNDA:0,_RNvXs_NtNtNtCslU5GooN79Bb_15gungraun_runner6runner10cachegrind4argsNtB4_14CachegrindArgsNtNtCsgEmfK2I1SDS_4core7default7Default7default
FNDA:0,_RNvXs0_NtNtNtCslU5GooN79Bb_15gungraun_runner6runner10cachegrind4argsNtNtNtB9_4tool4args12ValgrindArgsINtNtCsgEmfK2I1SDS_4core7convert4FromNtB5_14CachegrindArgsE4from
FNDA:176,_RINvXNtNtNtCs8iksUjoTkmC_15gungraun_runner6runner10cachegrind4argsNtB3_14CachegrindArgsNtNtNtB7_4tool4args8ToolArgs10try_updateINtNtNtNtCsgEmfK2I1SDS_4core4iter8adapters7flatten7FlatMapINtNtNtB2a_5slice4iter4IterRNtNtB9_3api11RawToolArgsERSNtNtCslNYArtu3iFV_5alloc6string6StringNCNvB2_22try_from_raw_tool_args0EEB9_
FNDA:124,_RNCINvXNtNtNtCs8iksUjoTkmC_15gungraun_runner6runner10cachegrind4argsNtB5_14CachegrindArgsNtNtNtB9_4tool4args8ToolArgs10try_updateINtNtNtNtCsgEmfK2I1SDS_4core4iter8adapters7flatten7FlatMapINtNtNtB2c_5slice4iter4IterRNtNtBb_3api11RawToolArgsERSNtNtCslNYArtu3iFV_5alloc6string6StringNCNvB4_22try_from_raw_tool_args0EE0Bb_
FNDA:0,_RNCINvXNtNtNtCs8iksUjoTkmC_15gungraun_runner6runner10cachegrind4argsNtB5_14CachegrindArgsNtNtNtB9_4tool4args8ToolArgs10try_updateINtNtNtNtCsgEmfK2I1SDS_4core4iter8adapters7flatten7FlatMapINtNtNtB2c_5slice4iter4IterRNtNtBb_3api11RawToolArgsERSNtNtCslNYArtu3iFV_5alloc6string6StringNCNvB4_22try_from_raw_tool_args0EEs_0Bb_
FNDA:176,_RNCNvXNtNtNtCs8iksUjoTkmC_15gungraun_runner6runner10cachegrind4argsNtB4_14CachegrindArgsNtNtNtB8_4tool4args8ToolArgs22try_from_raw_tool_args0Ba_
FNDA:176,_RNvXNtNtNtCs8iksUjoTkmC_15gungraun_runner6runner10cachegrind4argsNtB2_14CachegrindArgsNtNtNtB6_4tool4args8ToolArgs22try_from_raw_tool_args
FNDA:176,_RNvXs_NtNtNtCs8iksUjoTkmC_15gungraun_runner6runner10cachegrind4argsNtB4_14CachegrindArgsNtNtCsgEmfK2I1SDS_4core7default7Default7default
FNDA:176,_RNvXs0_NtNtNtCs8iksUjoTkmC_15gungraun_runner6runner10cachegrind4argsNtNtNtB9_4tool4args12ValgrindArgsINtNtCsgEmfK2I1SDS_4core7convert4FromNtB5_14CachegrindArgsE4from
FNF:7
FNH:6
DA:21,176
DA:22,176
DA:24,176
DA:25,176
DA:26,176
DA:27,176
DA:29,176
DA:30,176
DA:31,124
DA:32,124
DA:33,124
DA:34,124
DA:35,124
DA:36,124
DA:37,49
DA:38,0
DA:39,0
DA:41,75
DA:44,176
DA:45,176
DA:49,176
DA:50,176
DA:51,176
DA:52,176
DA:53,176
DA:54,176
DA:55,176
DA:56,176
DA:57,176
DA:61,176
DA:62,176
DA:63,176
DA:64,176
DA:65,176
DA:66,176
DA:67,176
DA:69,176
DA:71,176
DA:72,176
BRF:0
BRH:0
LF:43
LH:39
end_of_record
SF:/fast/lenny/workspace/programming/gungraun/gungraun/gungraun-runner/src/runner/cachegrind/model.rs
FN:17,_RNvXNtNtNtCs6wj2z9XdCGO_15gungraun_runner6runner10cachegrind5modelNtNtB6_9callgrind12CacheSummaryINtNtCsgEmfK2I1SDS_4core7convert7TryFromRINtNtB6_7metrics7MetricsNtNtB8_3api16CachegrindMetricEE8try_from
FN:52,_RNvMs0_NtNtNtCs6wj2z9XdCGO_15gungraun_runner6runner10cachegrind5modelINtNtB9_7metrics7MetricsNtNtBb_3api16CachegrindMetricE12make_summary
FN:99,_RNvMs0_NtNtNtCs6wj2z9XdCGO_15gungraun_runner6runner10cachegrind5modelINtNtB9_7metrics7MetricsNtNtBb_3api16CachegrindMetricE13can_summarize
FN:90,_RNvMs0_NtNtNtCs6wj2z9XdCGO_15gungraun_runner6runner10cachegrind5modelINtNtB9_7metrics7MetricsNtNtBb_3api16CachegrindMetricE13is_summarized
FN:105,_RNvXs1_NtNtNtCs6wj2z9XdCGO_15gungraun_runner6runner10cachegrind5modelINtNtB9_7metrics7MetricsNtNtBb_3api16CachegrindMetricENtNtCsgEmfK2I1SDS_4core7default7Default7default
FN:36,_RNvXs_NtNtNtCs6wj2z9XdCGO_15gungraun_runner6runner10cachegrind5modelNtNtBa_3api16CachegrindMetricNtNtB8_7metrics9Summarize9summarize
FN:52,_RNvMs0_NtNtNtCslU5GooN79Bb_15gungraun_runner6runner10cachegrind5modelINtNtB9_7metrics7MetricsNtNtBb_3api16CachegrindMetricE12make_summary
FN:99,_RNvMs0_NtNtNtCslU5GooN79Bb_15gungraun_runner6runner10cachegrind5modelINtNtB9_7metrics7MetricsNtNtBb_3api16CachegrindMetricE13can_summarize
FN:90,_RNvMs0_NtNtNtCslU5GooN79Bb_15gungraun_runner6runner10cachegrind5modelINtNtB9_7metrics7MetricsNtNtBb_3api16CachegrindMetricE13is_summarized
FN:105,_RNvXs1_NtNtNtCslU5GooN79Bb_15gungraun_runner6runner10cachegrind5modelINtNtB9_7metrics7MetricsNtNtBb_3api16CachegrindMetricENtNtCsgEmfK2I1SDS_4core7default7Default7default
FN:17,_RNvXNtNtNtCslU5GooN79Bb_15gungraun_runner6runner10cachegrind5modelNtNtB6_9callgrind12CacheSummaryINtNtCsgEmfK2I1SDS_4core7convert7TryFromRINtNtB6_7metrics7MetricsNtNtB8_3api16CachegrindMetricEE8try_from
FN:36,_RNvXs_NtNtNtCslU5GooN79Bb_15gungraun_runner6runner10cachegrind5modelNtNtBa_3api16CachegrindMetricNtNtB8_7metrics9Summarize9summarize
FN:17,_RNvXNtNtNtCs8iksUjoTkmC_15gungraun_runner6runner10cachegrind5modelNtNtB6_9callgrind12CacheSummaryINtNtCsgEmfK2I1SDS_4core7convert7TryFromRINtNtB6_7metrics7MetricsNtNtB8_3api16CachegrindMetricEE8try_from
FN:36,_RNvXs_NtNtNtCs8iksUjoTkmC_15gungraun_runner6runner10cachegrind5modelNtNtBa_3api16CachegrindMetricNtNtB8_7metrics9Summarize9summarize
FN:52,_RNvMs0_NtNtNtCs8iksUjoTkmC_15gungraun_runner6runner10cachegrind5modelINtNtB9_7metrics7MetricsNtNtBb_3api16CachegrindMetricE12make_summary
FN:99,_RNvMs0_NtNtNtCs8iksUjoTkmC_15gungraun_runner6runner10cachegrind5modelINtNtB9_7metrics7MetricsNtNtBb_3api16CachegrindMetricE13can_summarize
FN:90,_RNvMs0_NtNtNtCs8iksUjoTkmC_15gungraun_runner6runner10cachegrind5modelINtNtB9_7metrics7MetricsNtNtBb_3api16CachegrindMetricE13is_summarized
FN:105,_RNvXs1_NtNtNtCs8iksUjoTkmC_15gungraun_runner6runner10cachegrind5modelINtNtB9_7metrics7MetricsNtNtBb_3api16CachegrindMetricENtNtCsgEmfK2I1SDS_4core7default7Default7default
FNDA:0,_RNvXNtNtNtCs6wj2z9XdCGO_15gungraun_runner6runner10cachegrind5modelNtNtB6_9callgrind12CacheSummaryINtNtCsgEmfK2I1SDS_4core7convert7TryFromRINtNtB6_7metrics7MetricsNtNtB8_3api16CachegrindMetricEE8try_from
FNDA:0,_RNvMs0_NtNtNtCs6wj2z9XdCGO_15gungraun_runner6runner10cachegrind5modelINtNtB9_7metrics7MetricsNtNtBb_3api16CachegrindMetricE12make_summary
FNDA:0,_RNvMs0_NtNtNtCs6wj2z9XdCGO_15gungraun_runner6runner10cachegrind5modelINtNtB9_7metrics7MetricsNtNtBb_3api16CachegrindMetricE13can_summarize
FNDA:0,_RNvMs0_NtNtNtCs6wj2z9XdCGO_15gungraun_runner6runner10cachegrind5modelINtNtB9_7metrics7MetricsNtNtBb_3api16CachegrindMetricE13is_summarized
FNDA:0,_RNvXs1_NtNtNtCs6wj2z9XdCGO_15gungraun_runner6runner10cachegrind5modelINtNtB9_7metrics7MetricsNtNtBb_3api16CachegrindMetricENtNtCsgEmfK2I1SDS_4core7default7Default7default
FNDA:0,_RNvXs_NtNtNtCs6wj2z9XdCGO_15gungraun_runner6runner10cachegrind5modelNtNtBa_3api16CachegrindMetricNtNtB8_7metrics9Summarize9summarize
FNDA:0,_RNvMs0_NtNtNtCslU5GooN79Bb_15gungraun_runner6runner10cachegrind5modelINtNtB9_7metrics7MetricsNtNtBb_3api16CachegrindMetricE12make_summary
FNDA:0,_RNvMs0_NtNtNtCslU5GooN79Bb_15gungraun_runner6runner10cachegrind5modelINtNtB9_7metrics7MetricsNtNtBb_3api16CachegrindMetricE13can_summarize
FNDA:0,_RNvMs0_NtNtNtCslU5GooN79Bb_15gungraun_runner6runner10cachegrind5modelINtNtB9_7metrics7MetricsNtNtBb_3api16CachegrindMetricE13is_summarized
FNDA:0,_RNvXs1_NtNtNtCslU5GooN79Bb_15gungraun_runner6runner10cachegrind5modelINtNtB9_7metrics7MetricsNtNtBb_3api16CachegrindMetricENtNtCsgEmfK2I1SDS_4core7default7Default7default
FNDA:0,_RNvXNtNtNtCslU5GooN79Bb_15gungraun_runner6runner10cachegrind5modelNtNtB6_9callgrind12CacheSummaryINtNtCsgEmfK2I1SDS_4core7convert7TryFromRINtNtB6_7metrics7MetricsNtNtB8_3api16CachegrindMetricEE8try_from
FNDA:0,_RNvXs_NtNtNtCslU5GooN79Bb_15gungraun_runner6runner10cachegrind5modelNtNtBa_3api16CachegrindMetricNtNtB8_7metrics9Summarize9summarize
FNDA:217,_RNvXNtNtNtCs8iksUjoTkmC_15gungraun_runner6runner10cachegrind5modelNtNtB6_9callgrind12CacheSummaryINtNtCsgEmfK2I1SDS_4core7convert7TryFromRINtNtB6_7metrics7MetricsNtNtB8_3api16CachegrindMetricEE8try_from
FNDA:217,_RNvXs_NtNtNtCs8iksUjoTkmC_15gungraun_runner6runner10cachegrind5modelNtNtBa_3api16CachegrindMetricNtNtB8_7metrics9Summarize9summarize
FNDA:217,_RNvMs0_NtNtNtCs8iksUjoTkmC_15gungraun_runner6runner10cachegrind5modelINtNtB9_7metrics7MetricsNtNtBb_3api16CachegrindMetricE12make_summary
FNDA:0,_RNvMs0_NtNtNtCs8iksUjoTkmC_15gungraun_runner6runner10cachegrind5modelINtNtB9_7metrics7MetricsNtNtBb_3api16CachegrindMetricE13can_summarize
FNDA:217,_RNvMs0_NtNtNtCs8iksUjoTkmC_15gungraun_runner6runner10cachegrind5modelINtNtB9_7metrics7MetricsNtNtBb_3api16CachegrindMetricE13is_summarized
FNDA:0,_RNvXs1_NtNtNtCs8iksUjoTkmC_15gungraun_runner6runner10cachegrind5modelINtNtB9_7metrics7MetricsNtNtBb_3api16CachegrindMetricENtNtCsgEmfK2I1SDS_4core7default7Default7default
FNF:6
FNH:4
DA:17,217
DA:19,169
DA:20,217
DA:21,217
DA:22,169
DA:23,169
DA:24,169
DA:25,169
DA:26,169
DA:27,169
DA:28,169
DA:31,169
DA:32,217
DA:36,217
DA:37,217
DA:38,217
DA:39,217
DA:40,217
DA:52,217
DA:54,169
DA:55,169
DA:56,169
DA:57,169
DA:58,169
DA:59,169
DA:60,169
DA:61,169
DA:62,169
DA:63,169
DA:64,169
DA:65,169
DA:66,169
DA:67,217
DA:69,169
DA:70,169
DA:71,169
DA:72,169
DA:73,169
DA:74,169
DA:75,169
DA:76,169
DA:77,169
DA:78,169
DA:79,169
DA:80,169
DA:81,169
DA:83,169
DA:84,217
DA:90,217
DA:91,217
DA:92,217
DA:93,217
DA:99,0
DA:100,0
DA:101,0
DA:105,0
DA:106,0
DA:107,0
BRF:0
BRH:0
LF:58
LH:52
end_of_record
SF:/fast/lenny/workspace/programming/gungraun/gungraun/gungraun-runner/src/runner/cachegrind/parser.rs
FN:36,_RINvNtNtNtCs6wj2z9XdCGO_15gungraun_runner6runner10cachegrind6parser12parse_headerINtNtNtNtCsgEmfK2I1SDS_4core4iter8adapters3map3MapINtNtCsjrHSEGnQ3l9_3std2io5LinesINtNtNtB28_8buffered9bufreader9BufReaderNtNtB2a_2fs4FileEENvMNtB1q_6resultINtB3A_6ResultNtNtCslNYArtu3iFV_5alloc6string6StringNtNtB28_5error5ErrorE6unwrapEEB8_
FN:44,_RNCINvNtNtNtCs6wj2z9XdCGO_15gungraun_runner6runner10cachegrind6parser12parse_headerINtNtNtNtCsgEmfK2I1SDS_4core4iter8adapters3map3MapINtNtCsjrHSEGnQ3l9_3std2io5LinesINtNtNtB2a_8buffered9bufreader9BufReaderNtNtB2c_2fs4FileEENvMNtB1s_6resultINtB3C_6ResultNtNtCslNYArtu3iFV_5alloc6string6StringNtNtB2a_5error5ErrorE6unwrapEE0Ba_
FN:78,_RNCINvNtNtNtCs6wj2z9XdCGO_15gungraun_runner6runner10cachegrind6parser12parse_headerINtNtNtNtCsgEmfK2I1SDS_4core4iter8adapters3map3MapINtNtCsjrHSEGnQ3l9_3std2io5LinesINtNtNtB2a_8buffered9bufreader9BufReaderNtNtB2c_2fs4FileEENvMNtB1s_6resultINtB3C_6ResultNtNtCslNYArtu3iFV_5alloc6string6StringNtNtB2a_5error5ErrorE6unwrapEEs0_0Ba_
FN:80,_RNCINvNtNtNtCs6wj2z9XdCGO_15gungraun_runner6runner10cachegrind6parser12parse_headerINtNtNtNtCsgEmfK2I1SDS_4core4iter8adapters3map3MapINtNtCsjrHSEGnQ3l9_3std2io5LinesINtNtNtB2a_8buffered9bufreader9BufReaderNtNtB2c_2fs4FileEENvMNtB1s_6resultINtB3C_6ResultNtNtCslNYArtu3iFV_5alloc6string6StringNtNtB2a_5error5ErrorE6unwrapEEs1_0Ba_
FN:48,_RNCINvNtNtNtCs6wj2z9XdCGO_15gungraun_runner6runner10cachegrind6parser12parse_headerINtNtNtNtCsgEmfK2I1SDS_4core4iter8adapters3map3MapINtNtCsjrHSEGnQ3l9_3std2io5LinesINtNtNtB2a_8buffered9bufreader9BufReaderNtNtB2c_2fs4FileEENvMNtB1s_6resultINtB3C_6ResultNtNtCslNYArtu3iFV_5alloc6string6StringNtNtB2a_5error5ErrorE6unwrapEEs_0Ba_
FN:36,_RINvNtNtNtCslU5GooN79Bb_15gungraun_runner6runner10cachegrind6parser12parse_headerINtNtNtNtCsgEmfK2I1SDS_4core4iter8adapters3map3MapINtNtCsjrHSEGnQ3l9_3std2io5LinesINtNtNtB28_8buffered9bufreader9BufReaderNtNtB2a_2fs4FileEENvMNtB1q_6resultINtB3A_6ResultNtNtCslNYArtu3iFV_5alloc6string6StringNtNtB28_5error5ErrorE6unwrapEEB8_
FN:44,_RNCINvNtNtNtCslU5GooN79Bb_15gungraun_runner6runner10cachegrind6parser12parse_headerINtNtNtNtCsgEmfK2I1SDS_4core4iter8adapters3map3MapINtNtCsjrHSEGnQ3l9_3std2io5LinesINtNtNtB2a_8buffered9bufreader9BufReaderNtNtB2c_2fs4FileEENvMNtB1s_6resultINtB3C_6ResultNtNtCslNYArtu3iFV_5alloc6string6StringNtNtB2a_5error5ErrorE6unwrapEE0Ba_
FN:78,_RNCINvNtNtNtCslU5GooN79Bb_15gungraun_runner6runner10cachegrind6parser12parse_headerINtNtNtNtCsgEmfK2I1SDS_4core4iter8adapters3map3MapINtNtCsjrHSEGnQ3l9_3std2io5LinesINtNtNtB2a_8buffered9bufreader9BufReaderNtNtB2c_2fs4FileEENvMNtB1s_6resultINtB3C_6ResultNtNtCslNYArtu3iFV_5alloc6string6StringNtNtB2a_5error5ErrorE6unwrapEEs0_0Ba_
FN:80,_RNCINvNtNtNtCslU5GooN79Bb_15gungraun_runner6runner10cachegrind6parser12parse_headerINtNtNtNtCsgEmfK2I1SDS_4core4iter8adapters3map3MapINtNtCsjrHSEGnQ3l9_3std2io5LinesINtNtNtB2a_8buffered9bufreader9BufReaderNtNtB2c_2fs4FileEENvMNtB1s_6resultINtB3C_6ResultNtNtCslNYArtu3iFV_5alloc6string6StringNtNtB2a_5error5ErrorE6unwrapEEs1_0Ba_
FN:48,_RNCINvNtNtNtCslU5GooN79Bb_15gungraun_runner6runner10cachegrind6parser12parse_headerINtNtNtNtCsgEmfK2I1SDS_4core4iter8adapters3map3MapINtNtCsjrHSEGnQ3l9_3std2io5LinesINtNtNtB2a_8buffered9bufreader9BufReaderNtNtB2c_2fs4FileEENvMNtB1s_6resultINtB3C_6ResultNtNtCslNYArtu3iFV_5alloc6string6StringNtNtB2a_5error5ErrorE6unwrapEEs_0Ba_
FN:36,_RINvNtNtNtCs8iksUjoTkmC_15gungraun_runner6runner10cachegrind6parser12parse_headerINtNtNtNtCsgEmfK2I1SDS_4core4iter8adapters3map3MapINtNtCsjrHSEGnQ3l9_3std2io5LinesINtNtNtB28_8buffered9bufreader9BufReaderNtNtB2a_2fs4FileEENvMNtB1q_6resultINtB3A_6ResultNtNtCslNYArtu3iFV_5alloc6string6StringNtNtB28_5error5ErrorE6unwrapEEB8_
FN:44,_RNCINvNtNtNtCs8iksUjoTkmC_15gungraun_runner6runner10cachegrind6parser12parse_headerINtNtNtNtCsgEmfK2I1SDS_4core4iter8adapters3map3MapINtNtCsjrHSEGnQ3l9_3std2io5LinesINtNtNtB2a_8buffered9bufreader9BufReaderNtNtB2c_2fs4FileEENvMNtB1s_6resultINtB3C_6ResultNtNtCslNYArtu3iFV_5alloc6string6StringNtNtB2a_5error5ErrorE6unwrapEE0Ba_
FN:78,_RNCINvNtNtNtCs8iksUjoTkmC_15gungraun_runner6runner10cachegrind6parser12parse_headerINtNtNtNtCsgEmfK2I1SDS_4core4iter8adapters3map3MapINtNtCsjrHSEGnQ3l9_3std2io5LinesINtNtNtB2a_8buffered9bufreader9BufReaderNtNtB2c_2fs4FileEENvMNtB1s_6resultINtB3C_6ResultNtNtCslNYArtu3iFV_5alloc6string6StringNtNtB2a_5error5ErrorE6unwrapEEs0_0Ba_
FN:80,_RNCINvNtNtNtCs8iksUjoTkmC_15gungraun_runner6runner10cachegrind6parser12parse_headerINtNtNtNtCsgEmfK2I1SDS_4core4iter8adapters3map3MapINtNtCsjrHSEGnQ3l9_3std2io5LinesINtNtNtB2a_8buffered9bufreader9BufReaderNtNtB2c_2fs4FileEENvMNtB1s_6resultINtB3C_6ResultNtNtCslNYArtu3iFV_5alloc6string6StringNtNtB2a_5error5ErrorE6unwrapEEs1_0Ba_
FN:48,_RNCINvNtNtNtCs8iksUjoTkmC_15gungraun_runner6runner10cachegrind6parser12parse_headerINtNtNtNtCsgEmfK2I1SDS_4core4iter8adapters3map3MapINtNtCsjrHSEGnQ3l9_3std2io5LinesINtNtNtB2a_8buffered9bufreader9BufReaderNtNtB2c_2fs4FileEENvMNtB1s_6resultINtB3C_6ResultNtNtCslNYArtu3iFV_5alloc6string6StringNtNtB2a_5error5ErrorE6unwrapEEs_0Ba_
FNDA:0,_RINvNtNtNtCs6wj2z9XdCGO_15gungraun_runner6runner10cachegrind6parser12parse_headerINtNtNtNtCsgEmfK2I1SDS_4core4iter8adapters3map3MapINtNtCsjrHSEGnQ3l9_3std2io5LinesINtNtNtB28_8buffered9bufreader9BufReaderNtNtB2a_2fs4FileEENvMNtB1q_6resultINtB3A_6ResultNtNtCslNYArtu3iFV_5alloc6string6StringNtNtB28_5error5ErrorE6unwrapEEB8_
FNDA:0,_RNCINvNtNtNtCs6wj2z9XdCGO_15gungraun_runner6runner10cachegrind6parser12parse_headerINtNtNtNtCsgEmfK2I1SDS_4core4iter8adapters3map3MapINtNtCsjrHSEGnQ3l9_3std2io5LinesINtNtNtB2a_8buffered9bufreader9BufReaderNtNtB2c_2fs4FileEENvMNtB1s_6resultINtB3C_6ResultNtNtCslNYArtu3iFV_5alloc6string6StringNtNtB2a_5error5ErrorE6unwrapEE0Ba_
FNDA:0,_RNCINvNtNtNtCs6wj2z9XdCGO_15gungraun_runner6runner10cachegrind6parser12parse_headerINtNtNtNtCsgEmfK2I1SDS_4core4iter8adapters3map3MapINtNtCsjrHSEGnQ3l9_3std2io5LinesINtNtNtB2a_8buffered9bufreader9BufReaderNtNtB2c_2fs4FileEENvMNtB1s_6resultINtB3C_6ResultNtNtCslNYArtu3iFV_5alloc6string6StringNtNtB2a_5error5ErrorE6unwrapEEs0_0Ba_
FNDA:0,_RNCINvNtNtNtCs6wj2z9XdCGO_15gungraun_runner6runner10cachegrind6parser12parse_headerINtNtNtNtCsgEmfK2I1SDS_4core4iter8adapters3map3MapINtNtCsjrHSEGnQ3l9_3std2io5LinesINtNtNtB2a_8buffered9bufreader9BufReaderNtNtB2c_2fs4FileEENvMNtB1s_6resultINtB3C_6ResultNtNtCslNYArtu3iFV_5alloc6string6StringNtNtB2a_5error5ErrorE6unwrapEEs1_0Ba_
FNDA:0,_RNCINvNtNtNtCs6wj2z9XdCGO_15gungraun_runner6runner10cachegrind6parser12parse_headerINtNtNtNtCsgEmfK2I1SDS_4core4iter8adapters3map3MapINtNtCsjrHSEGnQ3l9_3std2io5LinesINtNtNtB2a_8buffered9bufreader9BufReaderNtNtB2c_2fs4FileEENvMNtB1s_6resultINtB3C_6ResultNtNtCslNYArtu3iFV_5alloc6string6StringNtNtB2a_5error5ErrorE6unwrapEEs_0Ba_
FNDA:0,_RINvNtNtNtCslU5GooN79Bb_15gungraun_runner6runner10cachegrind6parser12parse_headerINtNtNtNtCsgEmfK2I1SDS_4core4iter8adapters3map3MapINtNtCsjrHSEGnQ3l9_3std2io5LinesINtNtNtB28_8buffered9bufreader9BufReaderNtNtB2a_2fs4FileEENvMNtB1q_6resultINtB3A_6ResultNtNtCslNYArtu3iFV_5alloc6string6StringNtNtB28_5error5ErrorE6unwrapEEB8_
FNDA:0,_RNCINvNtNtNtCslU5GooN79Bb_15gungraun_runner6runner10cachegrind6parser12parse_headerINtNtNtNtCsgEmfK2I1SDS_4core4iter8adapters3map3MapINtNtCsjrHSEGnQ3l9_3std2io5LinesINtNtNtB2a_8buffered9bufreader9BufReaderNtNtB2c_2fs4FileEENvMNtB1s_6resultINtB3C_6ResultNtNtCslNYArtu3iFV_5alloc6string6StringNtNtB2a_5error5ErrorE6unwrapEE0Ba_
FNDA:0,_RNCINvNtNtNtCslU5GooN79Bb_15gungraun_runner6runner10cachegrind6parser12parse_headerINtNtNtNtCsgEmfK2I1SDS_4core4iter8adapters3map3MapINtNtCsjrHSEGnQ3l9_3std2io5LinesINtNtNtB2a_8buffered9bufreader9BufReaderNtNtB2c_2fs4FileEENvMNtB1s_6resultINtB3C_6ResultNtNtCslNYArtu3iFV_5alloc6string6StringNtNtB2a_5error5ErrorE6unwrapEEs0_0Ba_
FNDA:0,_RNCINvNtNtNtCslU5GooN79Bb_15gungraun_runner6runner10cachegrind6parser12parse_headerINtNtNtNtCsgEmfK2I1SDS_4core4iter8adapters3map3MapINtNtCsjrHSEGnQ3l9_3std2io5LinesINtNtNtB2a_8buffered9bufreader9BufReaderNtNtB2c_2fs4FileEENvMNtB1s_6resultINtB3C_6ResultNtNtCslNYArtu3iFV_5alloc6string6StringNtNtB2a_5error5ErrorE6unwrapEEs1_0Ba_
FNDA:0,_RNCINvNtNtNtCslU5GooN79Bb_15gungraun_runner6runner10cachegrind6parser12parse_headerINtNtNtNtCsgEmfK2I1SDS_4core4iter8adapters3map3MapINtNtCsjrHSEGnQ3l9_3std2io5LinesINtNtNtB2a_8buffered9bufreader9BufReaderNtNtB2c_2fs4FileEENvMNtB1s_6resultINtB3C_6ResultNtNtCslNYArtu3iFV_5alloc6string6StringNtNtB2a_5error5ErrorE6unwrapEEs_0Ba_
FNDA:217,_RINvNtNtNtCs8iksUjoTkmC_15gungraun_runner6runner10cachegrind6parser12parse_headerINtNtNtNtCsgEmfK2I1SDS_4core4iter8adapters3map3MapINtNtCsjrHSEGnQ3l9_3std2io5LinesINtNtNtB28_8buffered9bufreader9BufReaderNtNtB2a_2fs4FileEENvMNtB1q_6resultINtB3A_6ResultNtNtCslNYArtu3iFV_5alloc6string6StringNtNtB28_5error5ErrorE6unwrapEEB8_
FNDA:941,_RNCINvNtNtNtCs8iksUjoTkmC_15gungraun_runner6runner10cachegrind6parser12parse_headerINtNtNtNtCsgEmfK2I1SDS_4core4iter8adapters3map3MapINtNtCsjrHSEGnQ3l9_3std2io5LinesINtNtNtB2a_8buffered9bufreader9BufReaderNtNtB2c_2fs4FileEENvMNtB1s_6resultINtB3C_6ResultNtNtCslNYArtu3iFV_5alloc6string6StringNtNtB2a_5error5ErrorE6unwrapEE0Ba_
FNDA:0,_RNCINvNtNtNtCs8iksUjoTkmC_15gungraun_runner6runner10cachegrind6parser12parse_headerINtNtNtNtCsgEmfK2I1SDS_4core4iter8adapters3map3MapINtNtCsjrHSEGnQ3l9_3std2io5LinesINtNtNtB2a_8buffered9bufreader9BufReaderNtNtB2c_2fs4FileEENvMNtB1s_6resultINtB3C_6ResultNtNtCslNYArtu3iFV_5alloc6string6StringNtNtB2a_5error5ErrorE6unwrapEEs0_0Ba_
FNDA:0,_RNCINvNtNtNtCs8iksUjoTkmC_15gungraun_runner6runner10cachegrind6parser12parse_headerINtNtNtNtCsgEmfK2I1SDS_4core4iter8adapters3map3MapINtNtCsjrHSEGnQ3l9_3std2io5LinesINtNtNtB2a_8buffered9bufreader9BufReaderNtNtB2c_2fs4FileEENvMNtB1s_6resultINtB3C_6ResultNtNtCslNYArtu3iFV_5alloc6string6StringNtNtB2a_5error5ErrorE6unwrapEEs1_0Ba_
FNDA:941,_RNCINvNtNtNtCs8iksUjoTkmC_15gungraun_runner6runner10cachegrind6parser12parse_headerINtNtNtNtCsgEmfK2I1SDS_4core4iter8adapters3map3MapINtNtCsjrHSEGnQ3l9_3std2io5LinesINtNtNtB2a_8buffered9bufreader9BufReaderNtNtB2c_2fs4FileEENvMNtB1s_6resultINtB3C_6ResultNtNtCslNYArtu3iFV_5alloc6string6StringNtNtB2a_5error5ErrorE6unwrapEEs_0Ba_
FNF:5
FNH:3
DA:36,217
DA:37,217
DA:38,217
DA:40,217
DA:41,217
DA:42,217
DA:44,941
DA:45,941
DA:46,941
DA:47,941
DA:48,941
DA:49,941
DA:50,507
DA:51,507
DA:53,434
DA:54,217
DA:55,217
DA:60,217
DA:61,217
DA:62,217
DA:63,217
DA:64,217
DA:65,217
DA:66,217
DA:68,217
DA:72,0
DA:77,217
DA:78,217
DA:79,217
DA:80,217
DA:82,217
BRF:0
BRH:0
LF:35
LH:32
end_of_record
SF:/fast/lenny/workspace/programming/gungraun/gungraun/gungraun-runner/src/runner/cachegrind/regression.rs
FN:71,_RNCNCNCNvXs0_NtNtNtCs6wj2z9XdCGO_15gungraun_runner6runner10cachegrind10regressionNtBb_26CachegrindRegressionConfigINtNtCsgEmfK2I1SDS_4core7convert7TryFromNtNtBh_3api26CachegrindRegressionConfigE8try_from000Bh_
FN:68,_RNCNCNvXs0_NtNtNtCs6wj2z9XdCGO_15gungraun_runner6runner10cachegrind10regressionNtB9_26CachegrindRegressionConfigINtNtCsgEmfK2I1SDS_4core7convert7TryFromNtNtBf_3api26CachegrindRegressionConfigE8try_from00Bf_
FN:84,_RNCNCNvXs0_NtNtNtCs6wj2z9XdCGO_15gungraun_runner6runner10cachegrind10regressionNtB9_26CachegrindRegressionConfigINtNtCsgEmfK2I1SDS_4core7convert7TryFromNtNtBf_3api26CachegrindRegressionConfigE8try_froms_00Bf_
FN:65,_RNCNvXs0_NtNtNtCs6wj2z9XdCGO_15gungraun_runner6runner10cachegrind10regressionNtB7_26CachegrindRegressionConfigINtNtCsgEmfK2I1SDS_4core7convert7TryFromNtNtBd_3api26CachegrindRegressionConfigE8try_from0Bd_
FN:84,_RNCNvXs0_NtNtNtCs6wj2z9XdCGO_15gungraun_runner6runner10cachegrind10regressionNtB7_26CachegrindRegressionConfigINtNtCsgEmfK2I1SDS_4core7convert7TryFromNtNtBd_3api26CachegrindRegressionConfigE8try_froms_0Bd_
FN:34,_RNCNvXs_NtNtNtCs6wj2z9XdCGO_15gungraun_runner6runner10cachegrind10regressionNtB6_26CachegrindRegressionConfigINtNtNtBa_4tool10regression16RegressionConfigNtNtBc_3api16CachegrindMetricE5check0Bc_
FN:21,_RNvXNtNtNtCs6wj2z9XdCGO_15gungraun_runner6runner10cachegrind10regressionNtB2_26CachegrindRegressionConfigNtNtCsgEmfK2I1SDS_4core7default7Default7default
FN:50,_RNvXs0_NtNtNtCs6wj2z9XdCGO_15gungraun_runner6runner10cachegrind10regressionNtB5_26CachegrindRegressionConfigINtNtCsgEmfK2I1SDS_4core7convert7TryFromNtNtBb_3api26CachegrindRegressionConfigE8try_from
FN:42,_RNvXs_NtNtNtCs6wj2z9XdCGO_15gungraun_runner6runner10cachegrind10regressionNtB4_26CachegrindRegressionConfigINtNtNtB8_4tool10regression16RegressionConfigNtNtBa_3api16CachegrindMetricE15get_hard_limits
FN:38,_RNvXs_NtNtNtCs6wj2z9XdCGO_15gungraun_runner6runner10cachegrind10regressionNtB4_26CachegrindRegressionConfigINtNtNtB8_4tool10regression16RegressionConfigNtNtBa_3api16CachegrindMetricE15get_soft_limits
FN:31,_RNvXs_NtNtNtCs6wj2z9XdCGO_15gungraun_runner6runner10cachegrind10regressionNtB4_26CachegrindRegressionConfigINtNtNtB8_4tool10regression16RegressionConfigNtNtBa_3api16CachegrindMetricE5check
FN:65,_RNCNvXs0_NtNtNtCslU5GooN79Bb_15gungraun_runner6runner10cachegrind10regressionNtB7_26CachegrindRegressionConfigINtNtCsgEmfK2I1SDS_4core7convert7TryFromNtNtBd_3api26CachegrindRegressionConfigE8try_from0Bd_
FN:84,_RNCNvXs0_NtNtNtCslU5GooN79Bb_15gungraun_runner6runner10cachegrind10regressionNtB7_26CachegrindRegressionConfigINtNtCsgEmfK2I1SDS_4core7convert7TryFromNtNtBd_3api26CachegrindRegressionConfigE8try_froms_0Bd_
FN:34,_RNCNvXs_NtNtNtCslU5GooN79Bb_15gungraun_runner6runner10cachegrind10regressionNtB6_26CachegrindRegressionConfigINtNtNtBa_4tool10regression16RegressionConfigNtNtBc_3api16CachegrindMetricE5check0Bc_
FN:21,_RNvXNtNtNtCslU5GooN79Bb_15gungraun_runner6runner10cachegrind10regressionNtB2_26CachegrindRegressionConfigNtNtCsgEmfK2I1SDS_4core7default7Default7default
FN:50,_RNvXs0_NtNtNtCslU5GooN79Bb_15gungraun_runner6runner10cachegrind10regressionNtB5_26CachegrindRegressionConfigINtNtCsgEmfK2I1SDS_4core7convert7TryFromNtNtBb_3api26CachegrindRegressionConfigE8try_from
FN:42,_RNvXs_NtNtNtCslU5GooN79Bb_15gungraun_runner6runner10cachegrind10regressionNtB4_26CachegrindRegressionConfigINtNtNtB8_4tool10regression16RegressionConfigNtNtBa_3api16CachegrindMetricE15get_hard_limits
FN:38,_RNvXs_NtNtNtCslU5GooN79Bb_15gungraun_runner6runner10cachegrind10regressionNtB4_26CachegrindRegressionConfigINtNtNtB8_4tool10regression16RegressionConfigNtNtBa_3api16CachegrindMetricE15get_soft_limits
FN:31,_RNvXs_NtNtNtCslU5GooN79Bb_15gungraun_runner6runner10cachegrind10regressionNtB4_26CachegrindRegressionConfigINtNtNtB8_4tool10regression16RegressionConfigNtNtBa_3api16CachegrindMetricE5check
FN:71,_RNCNCNCNvXs0_NtNtNtCslU5GooN79Bb_15gungraun_runner6runner10cachegrind10regressionNtBb_26CachegrindRegressionConfigINtNtCsgEmfK2I1SDS_4core7convert7TryFromNtNtBh_3api26CachegrindRegressionConfigE8try_from000Bh_
FN:68,_RNCNCNvXs0_NtNtNtCslU5GooN79Bb_15gungraun_runner6runner10cachegrind10regressionNtB9_26CachegrindRegressionConfigINtNtCsgEmfK2I1SDS_4core7convert7TryFromNtNtBf_3api26CachegrindRegressionConfigE8try_from00Bf_
FN:84,_RNCNCNvXs0_NtNtNtCslU5GooN79Bb_15gungraun_runner6runner10cachegrind10regressionNtB9_26CachegrindRegressionConfigINtNtCsgEmfK2I1SDS_4core7convert7TryFromNtNtBf_3api26CachegrindRegressionConfigE8try_froms_00Bf_
FN:65,_RNCNvXs0_NtNtNtCs8iksUjoTkmC_15gungraun_runner6runner10cachegrind10regressionNtB7_26CachegrindRegressionConfigINtNtCsgEmfK2I1SDS_4core7convert7TryFromNtNtBd_3api26CachegrindRegressionConfigE8try_from0Bd_
FN:84,_RNCNvXs0_NtNtNtCs8iksUjoTkmC_15gungraun_runner6runner10cachegrind10regressionNtB7_26CachegrindRegressionConfigINtNtCsgEmfK2I1SDS_4core7convert7TryFromNtNtBd_3api26CachegrindRegressionConfigE8try_froms_0Bd_
FN:34,_RNCNvXs_NtNtNtCs8iksUjoTkmC_15gungraun_runner6runner10cachegrind10regressionNtB6_26CachegrindRegressionConfigINtNtNtBa_4tool10regression16RegressionConfigNtNtBc_3api16CachegrindMetricE5check0Bc_
FN:21,_RNvXNtNtNtCs8iksUjoTkmC_15gungraun_runner6runner10cachegrind10regressionNtB2_26CachegrindRegressionConfigNtNtCsgEmfK2I1SDS_4core7default7Default7default
FN:50,_RNvXs0_NtNtNtCs8iksUjoTkmC_15gungraun_runner6runner10cachegrind10regressionNtB5_26CachegrindRegressionConfigINtNtCsgEmfK2I1SDS_4core7convert7TryFromNtNtBb_3api26CachegrindRegressionConfigE8try_from
FN:42,_RNvXs_NtNtNtCs8iksUjoTkmC_15gungraun_runner6runner10cachegrind10regressionNtB4_26CachegrindRegressionConfigINtNtNtB8_4tool10regression16RegressionConfigNtNtBa_3api16CachegrindMetricE15get_hard_limits
FN:38,_RNvXs_NtNtNtCs8iksUjoTkmC_15gungraun_runner6runner10cachegrind10regressionNtB4_26CachegrindRegressionConfigINtNtNtB8_4tool10regression16RegressionConfigNtNtBa_3api16CachegrindMetricE15get_soft_limits
FN:31,_RNvXs_NtNtNtCs8iksUjoTkmC_15gungraun_runner6runner10cachegrind10regressionNtB4_26CachegrindRegressionConfigINtNtNtB8_4tool10regression16RegressionConfigNtNtBa_3api16CachegrindMetricE5check
FN:71,_RNCNCNCNvXs0_NtNtNtCs8iksUjoTkmC_15gungraun_runner6runner10cachegrind10regressionNtBb_26CachegrindRegressionConfigINtNtCsgEmfK2I1SDS_4core7convert7TryFromNtNtBh_3api26CachegrindRegressionConfigE8try_from000Bh_
FN:68,_RNCNCNvXs0_NtNtNtCs8iksUjoTkmC_15gungraun_runner6runner10cachegrind10regressionNtB9_26CachegrindRegressionConfigINtNtCsgEmfK2I1SDS_4core7convert7TryFromNtNtBf_3api26CachegrindRegressionConfigE8try_from00Bf_
FN:84,_RNCNCNvXs0_NtNtNtCs8iksUjoTkmC_15gungraun_runner6runner10cachegrind10regressionNtB9_26CachegrindRegressionConfigINtNtCsgEmfK2I1SDS_4core7convert7TryFromNtNtBf_3api26CachegrindRegressionConfigE8try_froms_00Bf_
FNDA:0,_RNCNCNCNvXs0_NtNtNtCs6wj2z9XdCGO_15gungraun_runner6runner10cachegrind10regressionNtBb_26CachegrindRegressionConfigINtNtCsgEmfK2I1SDS_4core7convert7TryFromNtNtBh_3api26CachegrindRegressionConfigE8try_from000Bh_
FNDA:0,_RNCNCNvXs0_NtNtNtCs6wj2z9XdCGO_15gungraun_runner6runner10cachegrind10regressionNtB9_26CachegrindRegressionConfigINtNtCsgEmfK2I1SDS_4core7convert7TryFromNtNtBf_3api26CachegrindRegressionConfigE8try_from00Bf_
FNDA:0,_RNCNCNvXs0_NtNtNtCs6wj2z9XdCGO_15gungraun_runner6runner10cachegrind10regressionNtB9_26CachegrindRegressionConfigINtNtCsgEmfK2I1SDS_4core7convert7TryFromNtNtBf_3api26CachegrindRegressionConfigE8try_froms_00Bf_
FNDA:0,_RNCNvXs0_NtNtNtCs6wj2z9XdCGO_15gungraun_runner6runner10cachegrind10regressionNtB7_26CachegrindRegressionConfigINtNtCsgEmfK2I1SDS_4core7convert7TryFromNtNtBd_3api26CachegrindRegressionConfigE8try_from0Bd_
FNDA:0,_RNCNvXs0_NtNtNtCs6wj2z9XdCGO_15gungraun_runner6runner10cachegrind10regressionNtB7_26CachegrindRegressionConfigINtNtCsgEmfK2I1SDS_4core7convert7TryFromNtNtBd_3api26CachegrindRegressionConfigE8try_froms_0Bd_
FNDA:0,_RNCNvXs_NtNtNtCs6wj2z9XdCGO_15gungraun_runner6runner10cachegrind10regressionNtB6_26CachegrindRegressionConfigINtNtNtBa_4tool10regression16RegressionConfigNtNtBc_3api16CachegrindMetricE5check0Bc_
FNDA:0,_RNvXNtNtNtCs6wj2z9XdCGO_15gungraun_runner6runner10cachegrind10regressionNtB2_26CachegrindRegressionConfigNtNtCsgEmfK2I1SDS_4core7default7Default7default
FNDA:0,_RNvXs0_NtNtNtCs6wj2z9XdCGO_15gungraun_runner6runner10cachegrind10regressionNtB5_26CachegrindRegressionConfigINtNtCsgEmfK2I1SDS_4core7convert7TryFromNtNtBb_3api26CachegrindRegressionConfigE8try_from
FNDA:0,_RNvXs_NtNtNtCs6wj2z9XdCGO_15gungraun_runner6runner10cachegrind10regressionNtB4_26CachegrindRegressionConfigINtNtNtB8_4tool10regression16RegressionConfigNtNtBa_3api16CachegrindMetricE15get_hard_limits
FNDA:0,_RNvXs_NtNtNtCs6wj2z9XdCGO_15gungraun_runner6runner10cachegrind10regressionNtB4_26CachegrindRegressionConfigINtNtNtB8_4tool10regression16RegressionConfigNtNtBa_3api16CachegrindMetricE15get_soft_limits
FNDA:0,_RNvXs_NtNtNtCs6wj2z9XdCGO_15gungraun_runner6runner10cachegrind10regressionNtB4_26CachegrindRegressionConfigINtNtNtB8_4tool10regression16RegressionConfigNtNtBa_3api16CachegrindMetricE5check
FNDA:0,_RNCNvXs0_NtNtNtCslU5GooN79Bb_15gungraun_runner6runner10cachegrind10regressionNtB7_26CachegrindRegressionConfigINtNtCsgEmfK2I1SDS_4core7convert7TryFromNtNtBd_3api26CachegrindRegressionConfigE8try_from0Bd_
FNDA:0,_RNCNvXs0_NtNtNtCslU5GooN79Bb_15gungraun_runner6runner10cachegrind10regressionNtB7_26CachegrindRegressionConfigINtNtCsgEmfK2I1SDS_4core7convert7TryFromNtNtBd_3api26CachegrindRegressionConfigE8try_froms_0Bd_
FNDA:0,_RNCNvXs_NtNtNtCslU5GooN79Bb_15gungraun_runner6runner10cachegrind10regressionNtB6_26CachegrindRegressionConfigINtNtNtBa_4tool10regression16RegressionConfigNtNtBc_3api16CachegrindMetricE5check0Bc_
FNDA:0,_RNvXNtNtNtCslU5GooN79Bb_15gungraun_runner6runner10cachegrind10regressionNtB2_26CachegrindRegressionConfigNtNtCsgEmfK2I1SDS_4core7default7Default7default
FNDA:0,_RNvXs0_NtNtNtCslU5GooN79Bb_15gungraun_runner6runner10cachegrind10regressionNtB5_26CachegrindRegressionConfigINtNtCsgEmfK2I1SDS_4core7convert7TryFromNtNtBb_3api26CachegrindRegressionConfigE8try_from
FNDA:0,_RNvXs_NtNtNtCslU5GooN79Bb_15gungraun_runner6runner10cachegrind10regressionNtB4_26CachegrindRegressionConfigINtNtNtB8_4tool10regression16RegressionConfigNtNtBa_3api16CachegrindMetricE15get_hard_limits
FNDA:0,_RNvXs_NtNtNtCslU5GooN79Bb_15gungraun_runner6runner10cachegrind10regressionNtB4_26CachegrindRegressionConfigINtNtNtB8_4tool10regression16RegressionConfigNtNtBa_3api16CachegrindMetricE15get_soft_limits
FNDA:0,_RNvXs_NtNtNtCslU5GooN79Bb_15gungraun_runner6runner10cachegrind10regressionNtB4_26CachegrindRegressionConfigINtNtNtB8_4tool10regression16RegressionConfigNtNtBa_3api16CachegrindMetricE5check
FNDA:0,_RNCNCNCNvXs0_NtNtNtCslU5GooN79Bb_15gungraun_runner6runner10cachegrind10regressionNtBb_26CachegrindRegressionConfigINtNtCsgEmfK2I1SDS_4core7convert7TryFromNtNtBh_3api26CachegrindRegressionConfigE8try_from000Bh_
FNDA:0,_RNCNCNvXs0_NtNtNtCslU5GooN79Bb_15gungraun_runner6runner10cachegrind10regressionNtB9_26CachegrindRegressionConfigINtNtCsgEmfK2I1SDS_4core7convert7TryFromNtNtBf_3api26CachegrindRegressionConfigE8try_from00Bf_
FNDA:0,_RNCNCNvXs0_NtNtNtCslU5GooN79Bb_15gungraun_runner6runner10cachegrind10regressionNtB9_26CachegrindRegressionConfigINtNtCsgEmfK2I1SDS_4core7convert7TryFromNtNtBf_3api26CachegrindRegressionConfigE8try_froms_00Bf_
FNDA:20,_RNCNvXs0_NtNtNtCs8iksUjoTkmC_15gungraun_runner6runner10cachegrind10regressionNtB7_26CachegrindRegressionConfigINtNtCsgEmfK2I1SDS_4core7convert7TryFromNtNtBd_3api26CachegrindRegressionConfigE8try_from0Bd_
FNDA:26,_RNCNvXs0_NtNtNtCs8iksUjoTkmC_15gungraun_runner6runner10cachegrind10regressionNtB7_26CachegrindRegressionConfigINtNtCsgEmfK2I1SDS_4core7convert7TryFromNtNtBd_3api26CachegrindRegressionConfigE8try_froms_0Bd_
FNDA:11,_RNCNvXs_NtNtNtCs8iksUjoTkmC_15gungraun_runner6runner10cachegrind10regressionNtB6_26CachegrindRegressionConfigINtNtNtBa_4tool10regression16RegressionConfigNtNtBc_3api16CachegrindMetricE5check0Bc_
FNDA:2,_RNvXNtNtNtCs8iksUjoTkmC_15gungraun_runner6runner10cachegrind10regressionNtB2_26CachegrindRegressionConfigNtNtCsgEmfK2I1SDS_4core7default7Default7default
FNDA:46,_RNvXs0_NtNtNtCs8iksUjoTkmC_15gungraun_runner6runner10cachegrind10regressionNtB5_26CachegrindRegressionConfigINtNtCsgEmfK2I1SDS_4core7convert7TryFromNtNtBb_3api26CachegrindRegressionConfigE8try_from
FNDA:27,_RNvXs_NtNtNtCs8iksUjoTkmC_15gungraun_runner6runner10cachegrind10regressionNtB4_26CachegrindRegressionConfigINtNtNtB8_4tool10regression16RegressionConfigNtNtBa_3api16CachegrindMetricE15get_hard_limits
FNDA:27,_RNvXs_NtNtNtCs8iksUjoTkmC_15gungraun_runner6runner10cachegrind10regressionNtB4_26CachegrindRegressionConfigINtNtNtB8_4tool10regression16RegressionConfigNtNtBa_3api16CachegrindMetricE15get_soft_limits
FNDA:27,_RNvXs_NtNtNtCs8iksUjoTkmC_15gungraun_runner6runner10cachegrind10regressionNtB4_26CachegrindRegressionConfigINtNtNtB8_4tool10regression16RegressionConfigNtNtBa_3api16CachegrindMetricE5check
FNDA:2,_RNCNCNCNvXs0_NtNtNtCs8iksUjoTkmC_15gungraun_runner6runner10cachegrind10regressionNtBb_26CachegrindRegressionConfigINtNtCsgEmfK2I1SDS_4core7convert7TryFromNtNtBh_3api26CachegrindRegressionConfigE8try_from000Bh_
FNDA:20,_RNCNCNvXs0_NtNtNtCs8iksUjoTkmC_15gungraun_runner6runner10cachegrind10regressionNtB9_26CachegrindRegressionConfigINtNtCsgEmfK2I1SDS_4core7convert7TryFromNtNtBf_3api26CachegrindRegressionConfigE8try_from00Bf_
FNDA:26,_RNCNCNvXs0_NtNtNtCs8iksUjoTkmC_15gungraun_runner6runner10cachegrind10regressionNtB9_26CachegrindRegressionConfigINtNtCsgEmfK2I1SDS_4core7convert7TryFromNtNtBf_3api26CachegrindRegressionConfigE8try_froms_00Bf_
FNF:11
FNH:11
DA:21,2
DA:22,2
DA:23,2
DA:24,2
DA:25,2
DA:26,2
DA:27,2
DA:31,27
DA:32,27
DA:33,27
DA:34,27
DA:35,27
DA:36,27
DA:38,27
DA:39,27
DA:40,27
DA:42,27
DA:43,27
DA:44,27
DA:50,46
DA:52,46
DA:53,46
DA:54,46
DA:55,46
DA:57,46
DA:58,0
DA:59,0
DA:60,0
DA:61,0
DA:63,46
DA:64,46
DA:65,46
DA:66,20
DA:67,20
DA:68,20
DA:69,20
DA:70,20
DA:71,20
DA:72,2
DA:77,2
DA:78,20
DA:79,20
DA:80,46
DA:82,44
DA:83,44
DA:84,44
DA:85,44
DA:87,44
DA:90,44
DA:91,44
DA:92,44
DA:93,44
DA:94,44
DA:95,46
BRF:0
BRH:0
LF:60
LH:56
end_of_record
SF:/fast/lenny/workspace/programming/gungraun/gungraun/gungraun-runner/src/runner/cachegrind/summary_parser.rs
FN:44,_RNCNvXNtNtNtCs6wj2z9XdCGO_15gungraun_runner6runner10cachegrind14summary_parserNtB4_13SummaryParserNtNtNtB8_4tool6parser6Parser12parse_single0Ba_
FN:61,_RNCNvXNtNtNtCs6wj2z9XdCGO_15gungraun_runner6runner10cachegrind14summary_parserNtB4_13SummaryParserNtNtNtB8_4tool6parser6Parser12parse_singles_0Ba_
FN:33,_RNvXNtNtNtCs6wj2z9XdCGO_15gungraun_runner6runner10cachegrind14summary_parserNtB2_13SummaryParserNtNtNtB6_4tool6parser6Parser12parse_single
FN:92,_RNvXNtNtNtCs6wj2z9XdCGO_15gungraun_runner6runner10cachegrind14summary_parserNtB2_13SummaryParserNtNtNtB6_4tool6parser6Parser15get_output_path
FN:44,_RNCNvXNtNtNtCslU5GooN79Bb_15gungraun_runner6runner10cachegrind14summary_parserNtB4_13SummaryParserNtNtNtB8_4tool6parser6Parser12parse_single0Ba_
FN:33,_RNvXNtNtNtCslU5GooN79Bb_15gungraun_runner6runner10cachegrind14summary_parserNtB2_13SummaryParserNtNtNtB6_4tool6parser6Parser12parse_single
FN:92,_RNvXNtNtNtCslU5GooN79Bb_15gungraun_runner6runner10cachegrind14summary_parserNtB2_13SummaryParserNtNtNtB6_4tool6parser6Parser15get_output_path
FN:61,_RNCNvXNtNtNtCslU5GooN79Bb_15gungraun_runner6runner10cachegrind14summary_parserNtB4_13SummaryParserNtNtNtB8_4tool6parser6Parser12parse_singles_0Ba_
FN:44,_RNCNvXNtNtNtCs8iksUjoTkmC_15gungraun_runner6runner10cachegrind14summary_parserNtB4_13SummaryParserNtNtNtB8_4tool6parser6Parser12parse_single0Ba_
FN:33,_RNvXNtNtNtCs8iksUjoTkmC_15gungraun_runner6runner10cachegrind14summary_parserNtB2_13SummaryParserNtNtNtB6_4tool6parser6Parser12parse_single
FN:92,_RNvXNtNtNtCs8iksUjoTkmC_15gungraun_runner6runner10cachegrind14summary_parserNtB2_13SummaryParserNtNtNtB6_4tool6parser6Parser15get_output_path
FN:61,_RNCNvXNtNtNtCs8iksUjoTkmC_15gungraun_runner6runner10cachegrind14summary_parserNtB4_13SummaryParserNtNtNtB8_4tool6parser6Parser12parse_singles_0Ba_
FNDA:0,_RNCNvXNtNtNtCs6wj2z9XdCGO_15gungraun_runner6runner10cachegrind14summary_parserNtB4_13SummaryParserNtNtNtB8_4tool6parser6Parser12parse_single0Ba_
FNDA:0,_RNCNvXNtNtNtCs6wj2z9XdCGO_15gungraun_runner6runner10cachegrind14summary_parserNtB4_13SummaryParserNtNtNtB8_4tool6parser6Parser12parse_singles_0Ba_
FNDA:0,_RNvXNtNtNtCs6wj2z9XdCGO_15gungraun_runner6runner10cachegrind14summary_parserNtB2_13SummaryParserNtNtNtB6_4tool6parser6Parser12parse_single
FNDA:0,_RNvXNtNtNtCs6wj2z9XdCGO_15gungraun_runner6runner10cachegrind14summary_parserNtB2_13SummaryParserNtNtNtB6_4tool6parser6Parser15get_output_path
FNDA:0,_RNCNvXNtNtNtCslU5GooN79Bb_15gungraun_runner6runner10cachegrind14summary_parserNtB4_13SummaryParserNtNtNtB8_4tool6parser6Parser12parse_single0Ba_
FNDA:0,_RNvXNtNtNtCslU5GooN79Bb_15gungraun_runner6runner10cachegrind14summary_parserNtB2_13SummaryParserNtNtNtB6_4tool6parser6Parser12parse_single
FNDA:0,_RNvXNtNtNtCslU5GooN79Bb_15gungraun_runner6runner10cachegrind14summary_parserNtB2_13SummaryParserNtNtNtB6_4tool6parser6Parser15get_output_path
FNDA:0,_RNCNvXNtNtNtCslU5GooN79Bb_15gungraun_runner6runner10cachegrind14summary_parserNtB4_13SummaryParserNtNtNtB8_4tool6parser6Parser12parse_singles_0Ba_
FNDA:0,_RNCNvXNtNtNtCs8iksUjoTkmC_15gungraun_runner6runner10cachegrind14summary_parserNtB4_13SummaryParserNtNtNtB8_4tool6parser6Parser12parse_single0Ba_
FNDA:217,_RNvXNtNtNtCs8iksUjoTkmC_15gungraun_runner6runner10cachegrind14summary_parserNtB2_13SummaryParserNtNtNtB6_4tool6parser6Parser12parse_single
FNDA:310,_RNvXNtNtNtCs8iksUjoTkmC_15gungraun_runner6runner10cachegrind14summary_parserNtB2_13SummaryParserNtNtNtB6_4tool6parser6Parser15get_output_path
FNDA:0,_RNCNvXNtNtNtCs8iksUjoTkmC_15gungraun_runner6runner10cachegrind14summary_parserNtB4_13SummaryParserNtNtNtB8_4tool6parser6Parser12parse_singles_0Ba_
FNF:4
FNH:2
DA:33,217
DA:34,217
DA:36,0
DA:39,217
DA:40,217
DA:41,217
DA:43,217
DA:44,217
DA:46,217
DA:47,246244
DA:48,246244
DA:49,217
DA:51,217
DA:52,217
DA:53,217
DA:55,217
DA:56,246027
DA:59,217
DA:60,217
DA:61,217
DA:63,217
DA:64,217
DA:65,217
DA:66,217
DA:67,217
DA:69,0
DA:72,217
DA:73,217
DA:74,217
DA:75,217
DA:76,217
DA:77,217
DA:78,217
DA:79,217
DA:80,217
DA:81,217
DA:82,217
DA:83,217
DA:84,217
DA:85,217
DA:86,217
DA:88,0
DA:90,217
DA:92,310
DA:93,310
DA:94,310
BRF:0
BRH:0
LF:48
LH:43
end_of_record
SF:/fast/lenny/workspace/programming/gungraun/gungraun/gungraun-runner/src/runner/callgrind/args.rs
FN:106,_RNvXs0_NtNtNtCs6wj2z9XdCGO_15gungraun_runner6runner9callgrind4argsNtNtNtB9_4tool4args12ValgrindArgsINtNtCsgEmfK2I1SDS_4core7convert4FromNtB5_13CallgrindArgsE4from
FN:40,_RINvXNtNtNtCs6wj2z9XdCGO_15gungraun_runner6runner9callgrind4argsNtB3_13CallgrindArgsNtNtNtB7_4tool4args8ToolArgs10try_updateINtNtNtNtCsgEmfK2I1SDS_4core4iter8adapters7flatten7FlatMapINtNtNtB27_5slice4iter4IterRNtNtB9_3api11RawToolArgsERSNtNtCslNYArtu3iFV_5alloc6string6StringNCNvB2_22try_from_raw_tool_args0EEB9_
FN:43,_RNCINvXNtNtNtCs6wj2z9XdCGO_15gungraun_runner6runner9callgrind4argsNtB5_13CallgrindArgsNtNtNtB9_4tool4args8ToolArgs10try_updateINtNtNtNtCsgEmfK2I1SDS_4core4iter8adapters7flatten7FlatMapINtNtNtB29_5slice4iter4IterRNtNtBb_3api11RawToolArgsERSNtNtCslNYArtu3iFV_5alloc6string6StringNCNvB4_22try_from_raw_tool_args0EE0Bb_
FN:56,_RNCINvXNtNtNtCs6wj2z9XdCGO_15gungraun_runner6runner9callgrind4argsNtB5_13CallgrindArgsNtNtNtB9_4tool4args8ToolArgs10try_updateINtNtNtNtCsgEmfK2I1SDS_4core4iter8adapters7flatten7FlatMapINtNtNtB29_5slice4iter4IterRNtNtBb_3api11RawToolArgsERSNtNtCslNYArtu3iFV_5alloc6string6StringNCNvB4_22try_from_raw_tool_args0EEs0_0Bb_
FN:61,_RNCINvXNtNtNtCs6wj2z9XdCGO_15gungraun_runner6runner9callgrind4argsNtB5_13CallgrindArgsNtNtNtB9_4tool4args8ToolArgs10try_updateINtNtNtNtCsgEmfK2I1SDS_4core4iter8adapters7flatten7FlatMapINtNtNtB29_5slice4iter4IterRNtNtBb_3api11RawToolArgsERSNtNtCslNYArtu3iFV_5alloc6string6StringNCNvB4_22try_from_raw_tool_args0EEs1_0Bb_
FN:66,_RNCINvXNtNtNtCs6wj2z9XdCGO_15gungraun_runner6runner9callgrind4argsNtB5_13CallgrindArgsNtNtNtB9_4tool4args8ToolArgs10try_updateINtNtNtNtCsgEmfK2I1SDS_4core4iter8adapters7flatten7FlatMapINtNtNtB29_5slice4iter4IterRNtNtBb_3api11RawToolArgsERSNtNtCslNYArtu3iFV_5alloc6string6StringNCNvB4_22try_from_raw_tool_args0EEs2_0Bb_
FN:48,_RNCINvXNtNtNtCs6wj2z9XdCGO_15gungraun_runner6runner9callgrind4argsNtB5_13CallgrindArgsNtNtNtB9_4tool4args8ToolArgs10try_updateINtNtNtNtCsgEmfK2I1SDS_4core4iter8adapters7flatten7FlatMapINtNtNtB29_5slice4iter4IterRNtNtBb_3api11RawToolArgsERSNtNtCslNYArtu3iFV_5alloc6string6StringNCNvB4_22try_from_raw_tool_args0EEs_0Bb_
FN:36,_RNCNvXNtNtNtCs6wj2z9XdCGO_15gungraun_runner6runner9callgrind4argsNtB4_13CallgrindArgsNtNtNtB8_4tool4args8ToolArgs22try_from_raw_tool_args0Ba_
FN:131,_RNCNvXs0_NtNtNtCs6wj2z9XdCGO_15gungraun_runner6runner9callgrind4argsNtNtNtBb_4tool4args12ValgrindArgsINtNtCsgEmfK2I1SDS_4core7convert4FromNtB7_13CallgrindArgsE4from0Bd_
FN:32,_RNvXNtNtNtCs6wj2z9XdCGO_15gungraun_runner6runner9callgrind4argsNtB2_13CallgrindArgsNtNtNtB6_4tool4args8ToolArgs22try_from_raw_tool_args
FN:84,_RNvXs_NtNtNtCs6wj2z9XdCGO_15gungraun_runner6runner9callgrind4argsNtB4_13CallgrindArgsNtNtCsgEmfK2I1SDS_4core7default7Default7default
FN:40,_RINvXNtNtNtCslU5GooN79Bb_15gungraun_runner6runner9callgrind4argsNtB3_13CallgrindArgsNtNtNtB7_4tool4args8ToolArgs10try_updateINtNtNtNtCsgEmfK2I1SDS_4core4iter8adapters7flatten7FlatMapINtNtNtB27_5slice4iter4IterRNtNtB9_3api11RawToolArgsERSNtNtCslNYArtu3iFV_5alloc6string6StringNCNvB2_22try_from_raw_tool_args0EEB9_
FN:43,_RNCINvXNtNtNtCslU5GooN79Bb_15gungraun_runner6runner9callgrind4argsNtB5_13CallgrindArgsNtNtNtB9_4tool4args8ToolArgs10try_updateINtNtNtNtCsgEmfK2I1SDS_4core4iter8adapters7flatten7FlatMapINtNtNtB29_5slice4iter4IterRNtNtBb_3api11RawToolArgsERSNtNtCslNYArtu3iFV_5alloc6string6StringNCNvB4_22try_from_raw_tool_args0EE0Bb_
FN:56,_RNCINvXNtNtNtCslU5GooN79Bb_15gungraun_runner6runner9callgrind4argsNtB5_13CallgrindArgsNtNtNtB9_4tool4args8ToolArgs10try_updateINtNtNtNtCsgEmfK2I1SDS_4core4iter8adapters7flatten7FlatMapINtNtNtB29_5slice4iter4IterRNtNtBb_3api11RawToolArgsERSNtNtCslNYArtu3iFV_5alloc6string6StringNCNvB4_22try_from_raw_tool_args0EEs0_0Bb_
FN:61,_RNCINvXNtNtNtCslU5GooN79Bb_15gungraun_runner6runner9callgrind4argsNtB5_13CallgrindArgsNtNtNtB9_4tool4args8ToolArgs10try_updateINtNtNtNtCsgEmfK2I1SDS_4core4iter8adapters7flatten7FlatMapINtNtNtB29_5slice4iter4IterRNtNtBb_3api11RawToolArgsERSNtNtCslNYArtu3iFV_5alloc6string6StringNCNvB4_22try_from_raw_tool_args0EEs1_0Bb_
FN:66,_RNCINvXNtNtNtCslU5GooN79Bb_15gungraun_runner6runner9callgrind4argsNtB5_13CallgrindArgsNtNtNtB9_4tool4args8ToolArgs10try_updateINtNtNtNtCsgEmfK2I1SDS_4core4iter8adapters7flatten7FlatMapINtNtNtB29_5slice4iter4IterRNtNtBb_3api11RawToolArgsERSNtNtCslNYArtu3iFV_5alloc6string6StringNCNvB4_22try_from_raw_tool_args0EEs2_0Bb_
FN:48,_RNCINvXNtNtNtCslU5GooN79Bb_15gungraun_runner6runner9callgrind4argsNtB5_13CallgrindArgsNtNtNtB9_4tool4args8ToolArgs10try_updateINtNtNtNtCsgEmfK2I1SDS_4core4iter8adapters7flatten7FlatMapINtNtNtB29_5slice4iter4IterRNtNtBb_3api11RawToolArgsERSNtNtCslNYArtu3iFV_5alloc6string6StringNCNvB4_22try_from_raw_tool_args0EEs_0Bb_
FN:36,_RNCNvXNtNtNtCslU5GooN79Bb_15gungraun_runner6runner9callgrind4argsNtB4_13CallgrindArgsNtNtNtB8_4tool4args8ToolArgs22try_from_raw_tool_args0Ba_
FN:131,_RNCNvXs0_NtNtNtCslU5GooN79Bb_15gungraun_runner6runner9callgrind4argsNtNtNtBb_4tool4args12ValgrindArgsINtNtCsgEmfK2I1SDS_4core7convert4FromNtB7_13CallgrindArgsE4from0Bd_
FN:32,_RNvXNtNtNtCslU5GooN79Bb_15gungraun_runner6runner9callgrind4argsNtB2_13CallgrindArgsNtNtNtB6_4tool4args8ToolArgs22try_from_raw_tool_args
FN:84,_RNvXs_NtNtNtCslU5GooN79Bb_15gungraun_runner6runner9callgrind4argsNtB4_13CallgrindArgsNtNtCsgEmfK2I1SDS_4core7default7Default7default
FN:106,_RNvXs0_NtNtNtCslU5GooN79Bb_15gungraun_runner6runner9callgrind4argsNtNtNtB9_4tool4args12ValgrindArgsINtNtCsgEmfK2I1SDS_4core7convert4FromNtB5_13CallgrindArgsE4from
FN:40,_RINvXNtNtNtCs8iksUjoTkmC_15gungraun_runner6runner9callgrind4argsNtB3_13CallgrindArgsNtNtNtB7_4tool4args8ToolArgs10try_updateINtNtNtNtCsgEmfK2I1SDS_4core4iter8adapters7flatten7FlatMapINtNtNtB27_5slice4iter4IterRNtNtB9_3api11RawToolArgsERSNtNtCslNYArtu3iFV_5alloc6string6StringNCNvB2_22try_from_raw_tool_args0EEB9_
FN:43,_RNCINvXNtNtNtCs8iksUjoTkmC_15gungraun_runner6runner9callgrind4argsNtB5_13CallgrindArgsNtNtNtB9_4tool4args8ToolArgs10try_updateINtNtNtNtCsgEmfK2I1SDS_4core4iter8adapters7flatten7FlatMapINtNtNtB29_5slice4iter4IterRNtNtBb_3api11RawToolArgsERSNtNtCslNYArtu3iFV_5alloc6string6StringNCNvB4_22try_from_raw_tool_args0EE0Bb_
FN:56,_RNCINvXNtNtNtCs8iksUjoTkmC_15gungraun_runner6runner9callgrind4argsNtB5_13CallgrindArgsNtNtNtB9_4tool4args8ToolArgs10try_updateINtNtNtNtCsgEmfK2I1SDS_4core4iter8adapters7flatten7FlatMapINtNtNtB29_5slice4iter4IterRNtNtBb_3api11RawToolArgsERSNtNtCslNYArtu3iFV_5alloc6string6StringNCNvB4_22try_from_raw_tool_args0EEs0_0Bb_
FN:61,_RNCINvXNtNtNtCs8iksUjoTkmC_15gungraun_runner6runner9callgrind4argsNtB5_13CallgrindArgsNtNtNtB9_4tool4args8ToolArgs10try_updateINtNtNtNtCsgEmfK2I1SDS_4core4iter8adapters7flatten7FlatMapINtNtNtB29_5slice4iter4IterRNtNtBb_3api11RawToolArgsERSNtNtCslNYArtu3iFV_5alloc6string6StringNCNvB4_22try_from_raw_tool_args0EEs1_0Bb_
FN:66,_RNCINvXNtNtNtCs8iksUjoTkmC_15gungraun_runner6runner9callgrind4argsNtB5_13CallgrindArgsNtNtNtB9_4tool4args8ToolArgs10try_updateINtNtNtNtCsgEmfK2I1SDS_4core4iter8adapters7flatten7FlatMapINtNtNtB29_5slice4iter4IterRNtNtBb_3api11RawToolArgsERSNtNtCslNYArtu3iFV_5alloc6string6StringNCNvB4_22try_from_raw_tool_args0EEs2_0Bb_
FN:48,_RNCINvXNtNtNtCs8iksUjoTkmC_15gungraun_runner6runner9callgrind4argsNtB5_13CallgrindArgsNtNtNtB9_4tool4args8ToolArgs10try_updateINtNtNtNtCsgEmfK2I1SDS_4core4iter8adapters7flatten7FlatMapINtNtNtB29_5slice4iter4IterRNtNtBb_3api11RawToolArgsERSNtNtCslNYArtu3iFV_5alloc6string6StringNCNvB4_22try_from_raw_tool_args0EEs_0Bb_
FN:36,_RNCNvXNtNtNtCs8iksUjoTkmC_15gungraun_runner6runner9callgrind4argsNtB4_13CallgrindArgsNtNtNtB8_4tool4args8ToolArgs22try_from_raw_tool_args0Ba_
FN:131,_RNCNvXs0_NtNtNtCs8iksUjoTkmC_15gungraun_runner6runner9callgrind4argsNtNtNtBb_4tool4args12ValgrindArgsINtNtCsgEmfK2I1SDS_4core7convert4FromNtB7_13CallgrindArgsE4from0Bd_
FN:32,_RNvXNtNtNtCs8iksUjoTkmC_15gungraun_runner6runner9callgrind4argsNtB2_13CallgrindArgsNtNtNtB6_4tool4args8ToolArgs22try_from_raw_tool_args
FN:84,_RNvXs_NtNtNtCs8iksUjoTkmC_15gungraun_runner6runner9callgrind4argsNtB4_13CallgrindArgsNtNtCsgEmfK2I1SDS_4core7default7Default7default
FN:106,_RNvXs0_NtNtNtCs8iksUjoTkmC_15gungraun_runner6runner9callgrind4argsNtNtNtB9_4tool4args12ValgrindArgsINtNtCsgEmfK2I1SDS_4core7convert4FromNtB5_13CallgrindArgsE4from
FNDA:0,_RNvXs0_NtNtNtCs6wj2z9XdCGO_15gungraun_runner6runner9callgrind4argsNtNtNtB9_4tool4args12ValgrindArgsINtNtCsgEmfK2I1SDS_4core7convert4FromNtB5_13CallgrindArgsE4from
FNDA:0,_RINvXNtNtNtCs6wj2z9XdCGO_15gungraun_runner6runner9callgrind4argsNtB3_13CallgrindArgsNtNtNtB7_4tool4args8ToolArgs10try_updateINtNtNtNtCsgEmfK2I1SDS_4core4iter8adapters7flatten7FlatMapINtNtNtB27_5slice4iter4IterRNtNtB9_3api11RawToolArgsERSNtNtCslNYArtu3iFV_5alloc6string6StringNCNvB2_22try_from_raw_tool_args0EEB9_
FNDA:0,_RNCINvXNtNtNtCs6wj2z9XdCGO_15gungraun_runner6runner9callgrind4argsNtB5_13CallgrindArgsNtNtNtB9_4tool4args8ToolArgs10try_updateINtNtNtNtCsgEmfK2I1SDS_4core4iter8adapters7flatten7FlatMapINtNtNtB29_5slice4iter4IterRNtNtBb_3api11RawToolArgsERSNtNtCslNYArtu3iFV_5alloc6string6StringNCNvB4_22try_from_raw_tool_args0EE0Bb_
FNDA:0,_RNCINvXNtNtNtCs6wj2z9XdCGO_15gungraun_runner6runner9callgrind4argsNtB5_13CallgrindArgsNtNtNtB9_4tool4args8ToolArgs10try_updateINtNtNtNtCsgEmfK2I1SDS_4core4iter8adapters7flatten7FlatMapINtNtNtB29_5slice4iter4IterRNtNtBb_3api11RawToolArgsERSNtNtCslNYArtu3iFV_5alloc6string6StringNCNvB4_22try_from_raw_tool_args0EEs0_0Bb_
FNDA:0,_RNCINvXNtNtNtCs6wj2z9XdCGO_15gungraun_runner6runner9callgrind4argsNtB5_13CallgrindArgsNtNtNtB9_4tool4args8ToolArgs10try_updateINtNtNtNtCsgEmfK2I1SDS_4core4iter8adapters7flatten7FlatMapINtNtNtB29_5slice4iter4IterRNtNtBb_3api11RawToolArgsERSNtNtCslNYArtu3iFV_5alloc6string6StringNCNvB4_22try_from_raw_tool_args0EEs1_0Bb_
FNDA:0,_RNCINvXNtNtNtCs6wj2z9XdCGO_15gungraun_runner6runner9callgrind4argsNtB5_13CallgrindArgsNtNtNtB9_4tool4args8ToolArgs10try_updateINtNtNtNtCsgEmfK2I1SDS_4core4iter8adapters7flatten7FlatMapINtNtNtB29_5slice4iter4IterRNtNtBb_3api11RawToolArgsERSNtNtCslNYArtu3iFV_5alloc6string6StringNCNvB4_22try_from_raw_tool_args0EEs2_0Bb_
FNDA:0,_RNCINvXNtNtNtCs6wj2z9XdCGO_15gungraun_runner6runner9callgrind4argsNtB5_13CallgrindArgsNtNtNtB9_4tool4args8ToolArgs10try_updateINtNtNtNtCsgEmfK2I1SDS_4core4iter8adapters7flatten7FlatMapINtNtNtB29_5slice4iter4IterRNtNtBb_3api11RawToolArgsERSNtNtCslNYArtu3iFV_5alloc6string6StringNCNvB4_22try_from_raw_tool_args0EEs_0Bb_
FNDA:0,_RNCNvXNtNtNtCs6wj2z9XdCGO_15gungraun_runner6runner9callgrind4argsNtB4_13CallgrindArgsNtNtNtB8_4tool4args8ToolArgs22try_from_raw_tool_args0Ba_
FNDA:0,_RNCNvXs0_NtNtNtCs6wj2z9XdCGO_15gungraun_runner6runner9callgrind4argsNtNtNtBb_4tool4args12ValgrindArgsINtNtCsgEmfK2I1SDS_4core7convert4FromNtB7_13CallgrindArgsE4from0Bd_
FNDA:0,_RNvXNtNtNtCs6wj2z9XdCGO_15gungraun_runner6runner9callgrind4argsNtB2_13CallgrindArgsNtNtNtB6_4tool4args8ToolArgs22try_from_raw_tool_args
FNDA:0,_RNvXs_NtNtNtCs6wj2z9XdCGO_15gungraun_runner6runner9callgrind4argsNtB4_13CallgrindArgsNtNtCsgEmfK2I1SDS_4core7default7Default7default
FNDA:0,_RINvXNtNtNtCslU5GooN79Bb_15gungraun_runner6runner9callgrind4argsNtB3_13CallgrindArgsNtNtNtB7_4tool4args8ToolArgs10try_updateINtNtNtNtCsgEmfK2I1SDS_4core4iter8adapters7flatten7FlatMapINtNtNtB27_5slice4iter4IterRNtNtB9_3api11RawToolArgsERSNtNtCslNYArtu3iFV_5alloc6string6StringNCNvB2_22try_from_raw_tool_args0EEB9_
FNDA:0,_RNCINvXNtNtNtCslU5GooN79Bb_15gungraun_runner6runner9callgrind4argsNtB5_13CallgrindArgsNtNtNtB9_4tool4args8ToolArgs10try_updateINtNtNtNtCsgEmfK2I1SDS_4core4iter8adapters7flatten7FlatMapINtNtNtB29_5slice4iter4IterRNtNtBb_3api11RawToolArgsERSNtNtCslNYArtu3iFV_5alloc6string6StringNCNvB4_22try_from_raw_tool_args0EE0Bb_
FNDA:0,_RNCINvXNtNtNtCslU5GooN79Bb_15gungraun_runner6runner9callgrind4argsNtB5_13CallgrindArgsNtNtNtB9_4tool4args8ToolArgs10try_updateINtNtNtNtCsgEmfK2I1SDS_4core4iter8adapters7flatten7FlatMapINtNtNtB29_5slice4iter4IterRNtNtBb_3api11RawToolArgsERSNtNtCslNYArtu3iFV_5alloc6string6StringNCNvB4_22try_from_raw_tool_args0EEs0_0Bb_
FNDA:0,_RNCINvXNtNtNtCslU5GooN79Bb_15gungraun_runner6runner9callgrind4argsNtB5_13CallgrindArgsNtNtNtB9_4tool4args8ToolArgs10try_updateINtNtNtNtCsgEmfK2I1SDS_4core4iter8adapters7flatten7FlatMapINtNtNtB29_5slice4iter4IterRNtNtBb_3api11RawToolArgsERSNtNtCslNYArtu3iFV_5alloc6string6StringNCNvB4_22try_from_raw_tool_args0EEs1_0Bb_
FNDA:0,_RNCINvXNtNtNtCslU5GooN79Bb_15gungraun_runner6runner9callgrind4argsNtB5_13CallgrindArgsNtNtNtB9_4tool4args8ToolArgs10try_updateINtNtNtNtCsgEmfK2I1SDS_4core4iter8adapters7flatten7FlatMapINtNtNtB29_5slice4iter4IterRNtNtBb_3api11RawToolArgsERSNtNtCslNYArtu3iFV_5alloc6string6StringNCNvB4_22try_from_raw_tool_args0EEs2_0Bb_
FNDA:0,_RNCINvXNtNtNtCslU5GooN79Bb_15gungraun_runner6runner9callgrind4argsNtB5_13CallgrindArgsNtNtNtB9_4tool4args8ToolArgs10try_updateINtNtNtNtCsgEmfK2I1SDS_4core4iter8adapters7flatten7FlatMapINtNtNtB29_5slice4iter4IterRNtNtBb_3api11RawToolArgsERSNtNtCslNYArtu3iFV_5alloc6string6StringNCNvB4_22try_from_raw_tool_args0EEs_0Bb_
FNDA:0,_RNCNvXNtNtNtCslU5GooN79Bb_15gungraun_runner6runner9callgrind4argsNtB4_13CallgrindArgsNtNtNtB8_4tool4args8ToolArgs22try_from_raw_tool_args0Ba_
FNDA:0,_RNCNvXs0_NtNtNtCslU5GooN79Bb_15gungraun_runner6runner9callgrind4argsNtNtNtBb_4tool4args12ValgrindArgsINtNtCsgEmfK2I1SDS_4core7convert4FromNtB7_13CallgrindArgsE4from0Bd_
FNDA:0,_RNvXNtNtNtCslU5GooN79Bb_15gungraun_runner6runner9callgrind4argsNtB2_13CallgrindArgsNtNtNtB6_4tool4args8ToolArgs22try_from_raw_tool_args
FNDA:0,_RNvXs_NtNtNtCslU5GooN79Bb_15gungraun_runner6runner9callgrind4argsNtB4_13CallgrindArgsNtNtCsgEmfK2I1SDS_4core7default7Default7default
FNDA:0,_RNvXs0_NtNtNtCslU5GooN79Bb_15gungraun_runner6runner9callgrind4argsNtNtNtB9_4tool4args12ValgrindArgsINtNtCsgEmfK2I1SDS_4core7convert4FromNtB5_13CallgrindArgsE4from
FNDA:2200,_RINvXNtNtNtCs8iksUjoTkmC_15gungraun_runner6runner9callgrind4argsNtB3_13CallgrindArgsNtNtNtB7_4tool4args8ToolArgs10try_updateINtNtNtNtCsgEmfK2I1SDS_4core4iter8adapters7flatten7FlatMapINtNtNtB27_5slice4iter4IterRNtNtB9_3api11RawToolArgsERSNtNtCslNYArtu3iFV_5alloc6string6StringNCNvB2_22try_from_raw_tool_args0EEB9_
FNDA:3988,_RNCINvXNtNtNtCs8iksUjoTkmC_15gungraun_runner6runner9callgrind4argsNtB5_13CallgrindArgsNtNtNtB9_4tool4args8ToolArgs10try_updateINtNtNtNtCsgEmfK2I1SDS_4core4iter8adapters7flatten7FlatMapINtNtNtB29_5slice4iter4IterRNtNtBb_3api11RawToolArgsERSNtNtCslNYArtu3iFV_5alloc6string6StringNCNvB4_22try_from_raw_tool_args0EE0Bb_
FNDA:0,_RNCINvXNtNtNtCs8iksUjoTkmC_15gungraun_runner6runner9callgrind4argsNtB5_13CallgrindArgsNtNtNtB9_4tool4args8ToolArgs10try_updateINtNtNtNtCsgEmfK2I1SDS_4core4iter8adapters7flatten7FlatMapINtNtNtB29_5slice4iter4IterRNtNtBb_3api11RawToolArgsERSNtNtCslNYArtu3iFV_5alloc6string6StringNCNvB4_22try_from_raw_tool_args0EEs0_0Bb_
FNDA:0,_RNCINvXNtNtNtCs8iksUjoTkmC_15gungraun_runner6runner9callgrind4argsNtB5_13CallgrindArgsNtNtNtB9_4tool4args8ToolArgs10try_updateINtNtNtNtCsgEmfK2I1SDS_4core4iter8adapters7flatten7FlatMapINtNtNtB29_5slice4iter4IterRNtNtBb_3api11RawToolArgsERSNtNtCslNYArtu3iFV_5alloc6string6StringNCNvB4_22try_from_raw_tool_args0EEs1_0Bb_
FNDA:0,_RNCINvXNtNtNtCs8iksUjoTkmC_15gungraun_runner6runner9callgrind4argsNtB5_13CallgrindArgsNtNtNtB9_4tool4args8ToolArgs10try_updateINtNtNtNtCsgEmfK2I1SDS_4core4iter8adapters7flatten7FlatMapINtNtNtB29_5slice4iter4IterRNtNtBb_3api11RawToolArgsERSNtNtCslNYArtu3iFV_5alloc6string6StringNCNvB4_22try_from_raw_tool_args0EEs2_0Bb_
FNDA:0,_RNCINvXNtNtNtCs8iksUjoTkmC_15gungraun_runner6runner9callgrind4argsNtB5_13CallgrindArgsNtNtNtB9_4tool4args8ToolArgs10try_updateINtNtNtNtCsgEmfK2I1SDS_4core4iter8adapters7flatten7FlatMapINtNtNtB29_5slice4iter4IterRNtNtBb_3api11RawToolArgsERSNtNtCslNYArtu3iFV_5alloc6string6StringNCNvB4_22try_from_raw_tool_args0EEs_0Bb_
FNDA:2200,_RNCNvXNtNtNtCs8iksUjoTkmC_15gungraun_runner6runner9callgrind4argsNtB4_13CallgrindArgsNtNtNtB8_4tool4args8ToolArgs22try_from_raw_tool_args0Ba_
FNDA:1900,_RNCNvXs0_NtNtNtCs8iksUjoTkmC_15gungraun_runner6runner9callgrind4argsNtNtNtBb_4tool4args12ValgrindArgsINtNtCsgEmfK2I1SDS_4core7convert4FromNtB7_13CallgrindArgsE4from0Bd_
FNDA:2200,_RNvXNtNtNtCs8iksUjoTkmC_15gungraun_runner6runner9callgrind4argsNtB2_13CallgrindArgsNtNtNtB6_4tool4args8ToolArgs22try_from_raw_tool_args
FNDA:2200,_RNvXs_NtNtNtCs8iksUjoTkmC_15gungraun_runner6runner9callgrind4argsNtB4_13CallgrindArgsNtNtCsgEmfK2I1SDS_4core7default7Default7default
FNDA:2200,_RNvXs0_NtNtNtCs8iksUjoTkmC_15gungraun_runner6runner9callgrind4argsNtNtNtB9_4tool4args12ValgrindArgsINtNtCsgEmfK2I1SDS_4core7convert4FromNtB5_13CallgrindArgsE4from
FNF:11
FNH:7
DA:32,2200
DA:33,2200
DA:35,2200
DA:36,2200
DA:37,2200
DA:38,2200
DA:40,2200
DA:41,3988
DA:42,3988
DA:43,3988
DA:44,3988
DA:45,3986
DA:46,3984
DA:47,3982
DA:48,377
DA:49,0
DA:50,0
DA:52,3605
DA:53,1900
DA:54,1900
DA:55,1705
DA:56,4
DA:57,0
DA:58,0
DA:60,1701
DA:61,4
DA:62,0
DA:63,0
DA:65,1697
DA:66,4
DA:67,0
DA:68,0
DA:71,1693
DA:72,12
DA:74,12
DA:76,1681
DA:79,2200
DA:80,2200
DA:84,2200
DA:85,2200
DA:86,2200
DA:87,2200
DA:88,2200
DA:89,2200
DA:90,2200
DA:91,2200
DA:92,2200
DA:93,2200
DA:94,2200
DA:95,2200
DA:96,2200
DA:97,2200
DA:98,2200
DA:99,2200
DA:100,2200
DA:101,2200
DA:102,2200
DA:106,2200
DA:107,2200
DA:108,2200
DA:109,2200
DA:110,2200
DA:111,2200
DA:112,2200
DA:113,2200
DA:115,2200
DA:117,2200
DA:118,2200
DA:119,2200
DA:120,2200
DA:121,2200
DA:123,2200
DA:126,2200
DA:127,2200
DA:128,2200
DA:129,2200
DA:130,2200
DA:131,2200
DA:134,2200
DA:135,2200
BRF:0
BRH:0
LF:91
LH:75
end_of_record
SF:/fast/lenny/workspace/programming/gungraun/gungraun/gungraun-runner/src/runner/callgrind/flamegraph.rs
FN:469,_RNCNvMs3_NtNtNtCs6wj2z9XdCGO_15gungraun_runner6runner9callgrind10flamegraphNtB7_10OutputPath10clear_diffs0_0Bd_
FN:324,_RNCINvMs1_NtNtNtCs6wj2z9XdCGO_15gungraun_runner6runner9callgrind10flamegraphNtB8_10Flamegraph5writeINtNtNtNtCsgEmfK2I1SDS_4core4iter8adapters3map3MapINtNtNtB1I_5slice4iter4IterNtNtCslNYArtu3iFV_5alloc6string6StringENvMB2Q_B2O_6as_strEE0Be_
FN:328,_RNCINvMs1_NtNtNtCs6wj2z9XdCGO_15gungraun_runner6runner9callgrind10flamegraphNtB8_10Flamegraph5writeINtNtNtNtCsgEmfK2I1SDS_4core4iter8adapters3map3MapINtNtNtB1I_5slice4iter4IterNtNtCslNYArtu3iFV_5alloc6string6StringENvMB2Q_B2O_6as_strEEs_0Be_
FN:324,_RNCINvMs1_NtNtNtCs6wj2z9XdCGO_15gungraun_runner6runner9callgrind10flamegraphNtB8_10Flamegraph5writeNtNtNtCsgEmfK2I1SDS_4core3str4iter5LinesE0Be_
FN:328,_RNCINvMs1_NtNtNtCs6wj2z9XdCGO_15gungraun_runner6runner9callgrind10flamegraphNtB8_10Flamegraph5writeNtNtNtCsgEmfK2I1SDS_4core3str4iter5LinesEs_0Be_
FN:451,_RNCNvMs3_NtNtNtCs6wj2z9XdCGO_15gungraun_runner6runner9callgrind10flamegraphNtB7_10OutputPath10clear_diff0Bd_
FN:477,_RNCNvMs3_NtNtNtCs6wj2z9XdCGO_15gungraun_runner6runner9callgrind10flamegraphNtB7_10OutputPath10clear_diffs1_0Bd_
FN:461,_RNCNvMs3_NtNtNtCs6wj2z9XdCGO_15gungraun_runner6runner9callgrind10flamegraphNtB7_10OutputPath10clear_diffs_0Bd_
FN:594,_RNCNvMs3_NtNtNtCs6wj2z9XdCGO_15gungraun_runner6runner9callgrind10flamegraphNtB7_10OutputPath13real_paths_in0Bd_
FN:418,_RNCNvMs3_NtNtNtCs6wj2z9XdCGO_15gungraun_runner6runner9callgrind10flamegraphNtB7_10OutputPath4init0Bd_
FN:496,_RNCNvMs3_NtNtNtCs6wj2z9XdCGO_15gungraun_runner6runner9callgrind10flamegraphNtB7_10OutputPath5shift0Bd_
FN:429,_RNCNvMs3_NtNtNtCs6wj2z9XdCGO_15gungraun_runner6runner9callgrind10flamegraphNtB7_10OutputPath6create0Bd_
FN:258,_RINvMs1_NtNtNtCs6wj2z9XdCGO_15gungraun_runner6runner9callgrind10flamegraphNtB6_10Flamegraph5parseRNtNtCsjrHSEGnQ3l9_3std4path4PathEBc_
FN:316,_RINvMs1_NtNtNtCs6wj2z9XdCGO_15gungraun_runner6runner9callgrind10flamegraphNtB6_10Flamegraph5writeINtNtNtNtCsgEmfK2I1SDS_4core4iter8adapters3map3MapINtNtNtB1G_5slice4iter4IterNtNtCslNYArtu3iFV_5alloc6string6StringENvMB2O_B2M_6as_strEEBc_
FN:316,_RINvMs1_NtNtNtCs6wj2z9XdCGO_15gungraun_runner6runner9callgrind10flamegraphNtB6_10Flamegraph5writeNtNtNtCsgEmfK2I1SDS_4core3str4iter5LinesEBc_
FN:562,_RINvMs3_NtNtNtCs6wj2z9XdCGO_15gungraun_runner6runner9callgrind10flamegraphNtB6_10OutputPath13set_modifiersReAB1G_j1_EBc_
FN:274,_RNCINvMs1_NtNtNtCs6wj2z9XdCGO_15gungraun_runner6runner9callgrind10flamegraphNtB8_10Flamegraph5parseRNtNtCsjrHSEGnQ3l9_3std4path4PathE0Be_
FN:252,_RNCNvMs1_NtNtNtCs6wj2z9XdCGO_15gungraun_runner6runner9callgrind10flamegraphNtB7_10Flamegraph20differential_options0Bd_
FN:356,_RNCNvXs2_NtNtNtCs6wj2z9XdCGO_15gungraun_runner6runner9callgrind10flamegraphNtB7_31LoadBaselineFlamegraphGeneratorNtB7_19FlamegraphGenerator6create0Bd_
FN:179,_RNCNvXs_NtNtNtCs6wj2z9XdCGO_15gungraun_runner6runner9callgrind10flamegraphNtB6_6ConfigINtNtCsgEmfK2I1SDS_4core7convert4FromNtNtBc_3api16FlamegraphConfigE4from0Bc_
FN:218,_RNvMs1_NtNtNtCs6wj2z9XdCGO_15gungraun_runner6runner9callgrind10flamegraphNtB5_10Flamegraph10is_regular
FN:210,_RNvMs1_NtNtNtCs6wj2z9XdCGO_15gungraun_runner6runner9callgrind10flamegraphNtB5_10Flamegraph15is_differential
FN:291,_RNvMs1_NtNtNtCs6wj2z9XdCGO_15gungraun_runner6runner9callgrind10flamegraphNtB5_10Flamegraph19create_differential
FN:249,_RNvMs1_NtNtNtCs6wj2z9XdCGO_15gungraun_runner6runner9callgrind10flamegraphNtB5_10Flamegraph20differential_options
FN:201,_RNvMs1_NtNtNtCs6wj2z9XdCGO_15gungraun_runner6runner9callgrind10flamegraphNtB5_10Flamegraph3new
FN:226,_RNvMs1_NtNtNtCs6wj2z9XdCGO_15gungraun_runner6runner9callgrind10flamegraphNtB5_10Flamegraph7options
FN:445,_RNvMs3_NtNtNtCs6wj2z9XdCGO_15gungraun_runner6runner9callgrind10flamegraphNtB5_10OutputPath10clear_diff
FN:527,_RNvMs3_NtNtNtCs6wj2z9XdCGO_15gungraun_runner6runner9callgrind10flamegraphNtB5_10OutputPath12to_base_path
FN:510,_RNvMs3_NtNtNtCs6wj2z9XdCGO_15gungraun_runner6runner9callgrind10flamegraphNtB5_10OutputPath12to_diff_path
FN:581,_RNvMs3_NtNtNtCs6wj2z9XdCGO_15gungraun_runner6runner9callgrind10flamegraphNtB5_10OutputPath13real_paths_in
FN:570,_RNvMs3_NtNtNtCs6wj2z9XdCGO_15gungraun_runner6runner9callgrind10flamegraphNtB5_10OutputPath14set_event_kind
FN:392,_RNvMs3_NtNtNtCs6wj2z9XdCGO_15gungraun_runner6runner9callgrind10flamegraphNtB5_10OutputPath3new
FN:417,_RNvMs3_NtNtNtCs6wj2z9XdCGO_15gungraun_runner6runner9callgrind10flamegraphNtB5_10OutputPath4init
FN:432,_RNvMs3_NtNtNtCs6wj2z9XdCGO_15gungraun_runner6runner9callgrind10flamegraphNtB5_10OutputPath5clear
FN:490,_RNvMs3_NtNtNtCs6wj2z9XdCGO_15gungraun_runner6runner9callgrind10flamegraphNtB5_10OutputPath5shift
FN:426,_RNvMs3_NtNtNtCs6wj2z9XdCGO_15gungraun_runner6runner9callgrind10flamegraphNtB5_10OutputPath6create
FN:623,_RNvMs3_NtNtNtCs6wj2z9XdCGO_15gungraun_runner6runner9callgrind10flamegraphNtB5_10OutputPath7to_path
FN:574,_RNvMs3_NtNtNtCs6wj2z9XdCGO_15gungraun_runner6runner9callgrind10flamegraphNtB5_10OutputPath8dest_dir
FN:537,_RNvMs3_NtNtNtCs6wj2z9XdCGO_15gungraun_runner6runner9callgrind10flamegraphNtB5_10OutputPath9extension
FN:610,_RNvMs3_NtNtNtCs6wj2z9XdCGO_15gungraun_runner6runner9callgrind10flamegraphNtB5_10OutputPath9file_name
FN:676,_RNvNtNtNtCs6wj2z9XdCGO_15gungraun_runner6runner9callgrind10flamegraph32total_flamegraph_map_from_parsed
FN:107,_RNvXNtNtNtCs6wj2z9XdCGO_15gungraun_runner6runner9callgrind10flamegraphNtB2_27BaselineFlamegraphGeneratorNtB2_19FlamegraphGenerator6create
FN:191,_RNvXs0_NtNtNtCs6wj2z9XdCGO_15gungraun_runner6runner9callgrind10flamegraphNtNtCsb7i5PHkP9Ou_7inferno10flamegraph9DirectionINtNtCsgEmfK2I1SDS_4core7convert4FromNtNtBb_3api9DirectionE4from
FN:333,_RNvXs2_NtNtNtCs6wj2z9XdCGO_15gungraun_runner6runner9callgrind10flamegraphNtB5_31LoadBaselineFlamegraphGeneratorNtB5_19FlamegraphGenerator6create
FN:629,_RNvXs4_NtNtNtCs6wj2z9XdCGO_15gungraun_runner6runner9callgrind10flamegraphNtB5_31SaveBaselineFlamegraphGeneratorNtB5_19FlamegraphGenerator6create
FN:174,_RNvXs_NtNtNtCs6wj2z9XdCGO_15gungraun_runner6runner9callgrind10flamegraphNtB4_6ConfigINtNtCsgEmfK2I1SDS_4core7convert4FromNtNtBa_3api16FlamegraphConfigE4from
FN:469,_RNCNvMs3_NtNtNtCslU5GooN79Bb_15gungraun_runner6runner9callgrind10flamegraphNtB7_10OutputPath10clear_diffs0_0Bd_
FN:324,_RNCINvMs1_NtNtNtCslU5GooN79Bb_15gungraun_runner6runner9callgrind10flamegraphNtB8_10Flamegraph5writeINtNtNtNtCsgEmfK2I1SDS_4core4iter8adapters3map3MapINtNtNtB1I_5slice4iter4IterNtNtCslNYArtu3iFV_5alloc6string6StringENvMB2Q_B2O_6as_strEE0Be_
FN:328,_RNCINvMs1_NtNtNtCslU5GooN79Bb_15gungraun_runner6runner9callgrind10flamegraphNtB8_10Flamegraph5writeINtNtNtNtCsgEmfK2I1SDS_4core4iter8adapters3map3MapINtNtNtB1I_5slice4iter4IterNtNtCslNYArtu3iFV_5alloc6string6StringENvMB2Q_B2O_6as_strEEs_0Be_
FN:324,_RNCINvMs1_NtNtNtCslU5GooN79Bb_15gungraun_runner6runner9callgrind10flamegraphNtB8_10Flamegraph5writeNtNtNtCsgEmfK2I1SDS_4core3str4iter5LinesE0Be_
FN:328,_RNCINvMs1_NtNtNtCslU5GooN79Bb_15gungraun_runner6runner9callgrind10flamegraphNtB8_10Flamegraph5writeNtNtNtCsgEmfK2I1SDS_4core3str4iter5LinesEs_0Be_
FN:451,_RNCNvMs3_NtNtNtCslU5GooN79Bb_15gungraun_runner6runner9callgrind10flamegraphNtB7_10OutputPath10clear_diff0Bd_
FN:477,_RNCNvMs3_NtNtNtCslU5GooN79Bb_15gungraun_runner6runner9callgrind10flamegraphNtB7_10OutputPath10clear_diffs1_0Bd_
FN:461,_RNCNvMs3_NtNtNtCslU5GooN79Bb_15gungraun_runner6runner9callgrind10flamegraphNtB7_10OutputPath10clear_diffs_0Bd_
FN:594,_RNCNvMs3_NtNtNtCslU5GooN79Bb_15gungraun_runner6runner9callgrind10flamegraphNtB7_10OutputPath13real_paths_in0Bd_
FN:418,_RNCNvMs3_NtNtNtCslU5GooN79Bb_15gungraun_runner6runner9callgrind10flamegraphNtB7_10OutputPath4init0Bd_
FN:496,_RNCNvMs3_NtNtNtCslU5GooN79Bb_15gungraun_runner6runner9callgrind10flamegraphNtB7_10OutputPath5shift0Bd_
FN:429,_RNCNvMs3_NtNtNtCslU5GooN79Bb_15gungraun_runner6runner9callgrind10flamegraphNtB7_10OutputPath6create0Bd_
FN:258,_RINvMs1_NtNtNtCslU5GooN79Bb_15gungraun_runner6runner9callgrind10flamegraphNtB6_10Flamegraph5parseRNtNtCsjrHSEGnQ3l9_3std4path4PathEBc_
FN:316,_RINvMs1_NtNtNtCslU5GooN79Bb_15gungraun_runner6runner9callgrind10flamegraphNtB6_10Flamegraph5writeINtNtNtNtCsgEmfK2I1SDS_4core4iter8adapters3map3MapINtNtNtB1G_5slice4iter4IterNtNtCslNYArtu3iFV_5alloc6string6StringENvMB2O_B2M_6as_strEEBc_
FN:316,_RINvMs1_NtNtNtCslU5GooN79Bb_15gungraun_runner6runner9callgrind10flamegraphNtB6_10Flamegraph5writeNtNtNtCsgEmfK2I1SDS_4core3str4iter5LinesEBc_
FN:562,_RINvMs3_NtNtNtCslU5GooN79Bb_15gungraun_runner6runner9callgrind10flamegraphNtB6_10OutputPath13set_modifiersReAB1G_j1_EBc_
FN:274,_RNCINvMs1_NtNtNtCslU5GooN79Bb_15gungraun_runner6runner9callgrind10flamegraphNtB8_10Flamegraph5parseRNtNtCsjrHSEGnQ3l9_3std4path4PathE0Be_
FN:252,_RNCNvMs1_NtNtNtCslU5GooN79Bb_15gungraun_runner6runner9callgrind10flamegraphNtB7_10Flamegraph20differential_options0Bd_
FN:356,_RNCNvXs2_NtNtNtCslU5GooN79Bb_15gungraun_runner6runner9callgrind10flamegraphNtB7_31LoadBaselineFlamegraphGeneratorNtB7_19FlamegraphGenerator6create0Bd_
FN:179,_RNCNvXs_NtNtNtCslU5GooN79Bb_15gungraun_runner6runner9callgrind10flamegraphNtB6_6ConfigINtNtCsgEmfK2I1SDS_4core7convert4FromNtNtBc_3api16FlamegraphConfigE4from0Bc_
FN:218,_RNvMs1_NtNtNtCslU5GooN79Bb_15gungraun_runner6runner9callgrind10flamegraphNtB5_10Flamegraph10is_regular
FN:210,_RNvMs1_NtNtNtCslU5GooN79Bb_15gungraun_runner6runner9callgrind10flamegraphNtB5_10Flamegraph15is_differential
FN:291,_RNvMs1_NtNtNtCslU5GooN79Bb_15gungraun_runner6runner9callgrind10flamegraphNtB5_10Flamegraph19create_differential
FN:249,_RNvMs1_NtNtNtCslU5GooN79Bb_15gungraun_runner6runner9callgrind10flamegraphNtB5_10Flamegraph20differential_options
FN:201,_RNvMs1_NtNtNtCslU5GooN79Bb_15gungraun_runner6runner9callgrind10flamegraphNtB5_10Flamegraph3new
FN:226,_RNvMs1_NtNtNtCslU5GooN79Bb_15gungraun_runner6runner9callgrind10flamegraphNtB5_10Flamegraph7options
FN:445,_RNvMs3_NtNtNtCslU5GooN79Bb_15gungraun_runner6runner9callgrind10flamegraphNtB5_10OutputPath10clear_diff
FN:527,_RNvMs3_NtNtNtCslU5GooN79Bb_15gungraun_runner6runner9callgrind10flamegraphNtB5_10OutputPath12to_base_path
FN:510,_RNvMs3_NtNtNtCslU5GooN79Bb_15gungraun_runner6runner9callgrind10flamegraphNtB5_10OutputPath12to_diff_path
FN:581,_RNvMs3_NtNtNtCslU5GooN79Bb_15gungraun_runner6runner9callgrind10flamegraphNtB5_10OutputPath13real_paths_in
FN:570,_RNvMs3_NtNtNtCslU5GooN79Bb_15gungraun_runner6runner9callgrind10flamegraphNtB5_10OutputPath14set_event_kind
FN:392,_RNvMs3_NtNtNtCslU5GooN79Bb_15gungraun_runner6runner9callgrind10flamegraphNtB5_10OutputPath3new
FN:417,_RNvMs3_NtNtNtCslU5GooN79Bb_15gungraun_runner6runner9callgrind10flamegraphNtB5_10OutputPath4init
FN:432,_RNvMs3_NtNtNtCslU5GooN79Bb_15gungraun_runner6runner9callgrind10flamegraphNtB5_10OutputPath5clear
FN:490,_RNvMs3_NtNtNtCslU5GooN79Bb_15gungraun_runner6runner9callgrind10flamegraphNtB5_10OutputPath5shift
FN:426,_RNvMs3_NtNtNtCslU5GooN79Bb_15gungraun_runner6runner9callgrind10flamegraphNtB5_10OutputPath6create
FN:623,_RNvMs3_NtNtNtCslU5GooN79Bb_15gungraun_runner6runner9callgrind10flamegraphNtB5_10OutputPath7to_path
FN:574,_RNvMs3_NtNtNtCslU5GooN79Bb_15gungraun_runner6runner9callgrind10flamegraphNtB5_10OutputPath8dest_dir
FN:537,_RNvMs3_NtNtNtCslU5GooN79Bb_15gungraun_runner6runner9callgrind10flamegraphNtB5_10OutputPath9extension
FN:610,_RNvMs3_NtNtNtCslU5GooN79Bb_15gungraun_runner6runner9callgrind10flamegraphNtB5_10OutputPath9file_name
FN:676,_RNvNtNtNtCslU5GooN79Bb_15gungraun_runner6runner9callgrind10flamegraph32total_flamegraph_map_from_parsed
FN:107,_RNvXNtNtNtCslU5GooN79Bb_15gungraun_runner6runner9callgrind10flamegraphNtB2_27BaselineFlamegraphGeneratorNtB2_19FlamegraphGenerator6create
FN:191,_RNvXs0_NtNtNtCslU5GooN79Bb_15gungraun_runner6runner9callgrind10flamegraphNtNtCsc0EkFhre2Gg_7inferno10flamegraph9DirectionINtNtCsgEmfK2I1SDS_4core7convert4FromNtNtBb_3api9DirectionE4from
FN:333,_RNvXs2_NtNtNtCslU5GooN79Bb_15gungraun_runner6runner9callgrind10flamegraphNtB5_31LoadBaselineFlamegraphGeneratorNtB5_19FlamegraphGenerator6create
FN:629,_RNvXs4_NtNtNtCslU5GooN79Bb_15gungraun_runner6runner9callgrind10flamegraphNtB5_31SaveBaselineFlamegraphGeneratorNtB5_19FlamegraphGenerator6create
FN:174,_RNvXs_NtNtNtCslU5GooN79Bb_15gungraun_runner6runner9callgrind10flamegraphNtB4_6ConfigINtNtCsgEmfK2I1SDS_4core7convert4FromNtNtBa_3api16FlamegraphConfigE4from
FN:469,_RNCNvMs3_NtNtNtCs8iksUjoTkmC_15gungraun_runner6runner9callgrind10flamegraphNtB7_10OutputPath10clear_diffs0_0Bd_
FN:324,_RNCINvMs1_NtNtNtCs8iksUjoTkmC_15gungraun_runner6runner9callgrind10flamegraphNtB8_10Flamegraph5writeINtNtNtNtCsgEmfK2I1SDS_4core4iter8adapters3map3MapINtNtNtB1I_5slice4iter4IterNtNtCslNYArtu3iFV_5alloc6string6StringENvMB2Q_B2O_6as_strEE0Be_
FN:328,_RNCINvMs1_NtNtNtCs8iksUjoTkmC_15gungraun_runner6runner9callgrind10flamegraphNtB8_10Flamegraph5writeINtNtNtNtCsgEmfK2I1SDS_4core4iter8adapters3map3MapINtNtNtB1I_5slice4iter4IterNtNtCslNYArtu3iFV_5alloc6string6StringENvMB2Q_B2O_6as_strEEs_0Be_
FN:324,_RNCINvMs1_NtNtNtCs8iksUjoTkmC_15gungraun_runner6runner9callgrind10flamegraphNtB8_10Flamegraph5writeNtNtNtCsgEmfK2I1SDS_4core3str4iter5LinesE0Be_
FN:328,_RNCINvMs1_NtNtNtCs8iksUjoTkmC_15gungraun_runner6runner9callgrind10flamegraphNtB8_10Flamegraph5writeNtNtNtCsgEmfK2I1SDS_4core3str4iter5LinesEs_0Be_
FN:451,_RNCNvMs3_NtNtNtCs8iksUjoTkmC_15gungraun_runner6runner9callgrind10flamegraphNtB7_10OutputPath10clear_diff0Bd_
FN:477,_RNCNvMs3_NtNtNtCs8iksUjoTkmC_15gungraun_runner6runner9callgrind10flamegraphNtB7_10OutputPath10clear_diffs1_0Bd_
FN:461,_RNCNvMs3_NtNtNtCs8iksUjoTkmC_15gungraun_runner6runner9callgrind10flamegraphNtB7_10OutputPath10clear_diffs_0Bd_
FN:594,_RNCNvMs3_NtNtNtCs8iksUjoTkmC_15gungraun_runner6runner9callgrind10flamegraphNtB7_10OutputPath13real_paths_in0Bd_
FN:418,_RNCNvMs3_NtNtNtCs8iksUjoTkmC_15gungraun_runner6runner9callgrind10flamegraphNtB7_10OutputPath4init0Bd_
FN:496,_RNCNvMs3_NtNtNtCs8iksUjoTkmC_15gungraun_runner6runner9callgrind10flamegraphNtB7_10OutputPath5shift0Bd_
FN:429,_RNCNvMs3_NtNtNtCs8iksUjoTkmC_15gungraun_runner6runner9callgrind10flamegraphNtB7_10OutputPath6create0Bd_
FN:258,_RINvMs1_NtNtNtCs8iksUjoTkmC_15gungraun_runner6runner9callgrind10flamegraphNtB6_10Flamegraph5parseRNtNtCsjrHSEGnQ3l9_3std4path4PathEBc_
FN:316,_RINvMs1_NtNtNtCs8iksUjoTkmC_15gungraun_runner6runner9callgrind10flamegraphNtB6_10Flamegraph5writeINtNtNtNtCsgEmfK2I1SDS_4core4iter8adapters3map3MapINtNtNtB1G_5slice4iter4IterNtNtCslNYArtu3iFV_5alloc6string6StringENvMB2O_B2M_6as_strEEBc_
FN:316,_RINvMs1_NtNtNtCs8iksUjoTkmC_15gungraun_runner6runner9callgrind10flamegraphNtB6_10Flamegraph5writeNtNtNtCsgEmfK2I1SDS_4core3str4iter5LinesEBc_
FN:562,_RINvMs3_NtNtNtCs8iksUjoTkmC_15gungraun_runner6runner9callgrind10flamegraphNtB6_10OutputPath13set_modifiersReAB1G_j1_EBc_
FN:274,_RNCINvMs1_NtNtNtCs8iksUjoTkmC_15gungraun_runner6runner9callgrind10flamegraphNtB8_10Flamegraph5parseRNtNtCsjrHSEGnQ3l9_3std4path4PathE0Be_
FN:252,_RNCNvMs1_NtNtNtCs8iksUjoTkmC_15gungraun_runner6runner9callgrind10flamegraphNtB7_10Flamegraph20differential_options0Bd_
FN:356,_RNCNvXs2_NtNtNtCs8iksUjoTkmC_15gungraun_runner6runner9callgrind10flamegraphNtB7_31LoadBaselineFlamegraphGeneratorNtB7_19FlamegraphGenerator6create0Bd_
FN:179,_RNCNvXs_NtNtNtCs8iksUjoTkmC_15gungraun_runner6runner9callgrind10flamegraphNtB6_6ConfigINtNtCsgEmfK2I1SDS_4core7convert4FromNtNtBc_3api16FlamegraphConfigE4from0Bc_
FN:218,_RNvMs1_NtNtNtCs8iksUjoTkmC_15gungraun_runner6runner9callgrind10flamegraphNtB5_10Flamegraph10is_regular
FN:210,_RNvMs1_NtNtNtCs8iksUjoTkmC_15gungraun_runner6runner9callgrind10flamegraphNtB5_10Flamegraph15is_differential
FN:291,_RNvMs1_NtNtNtCs8iksUjoTkmC_15gungraun_runner6runner9callgrind10flamegraphNtB5_10Flamegraph19create_differential
FN:249,_RNvMs1_NtNtNtCs8iksUjoTkmC_15gungraun_runner6runner9callgrind10flamegraphNtB5_10Flamegraph20differential_options
FN:201,_RNvMs1_NtNtNtCs8iksUjoTkmC_15gungraun_runner6runner9callgrind10flamegraphNtB5_10Flamegraph3new
FN:226,_RNvMs1_NtNtNtCs8iksUjoTkmC_15gungraun_runner6runner9callgrind10flamegraphNtB5_10Flamegraph7options
FN:445,_RNvMs3_NtNtNtCs8iksUjoTkmC_15gungraun_runner6runner9callgrind10flamegraphNtB5_10OutputPath10clear_diff
FN:527,_RNvMs3_NtNtNtCs8iksUjoTkmC_15gungraun_runner6runner9callgrind10flamegraphNtB5_10OutputPath12to_base_path
FN:510,_RNvMs3_NtNtNtCs8iksUjoTkmC_15gungraun_runner6runner9callgrind10flamegraphNtB5_10OutputPath12to_diff_path
FN:581,_RNvMs3_NtNtNtCs8iksUjoTkmC_15gungraun_runner6runner9callgrind10flamegraphNtB5_10OutputPath13real_paths_in
FN:570,_RNvMs3_NtNtNtCs8iksUjoTkmC_15gungraun_runner6runner9callgrind10flamegraphNtB5_10OutputPath14set_event_kind
FN:392,_RNvMs3_NtNtNtCs8iksUjoTkmC_15gungraun_runner6runner9callgrind10flamegraphNtB5_10OutputPath3new
FN:417,_RNvMs3_NtNtNtCs8iksUjoTkmC_15gungraun_runner6runner9callgrind10flamegraphNtB5_10OutputPath4init
FN:432,_RNvMs3_NtNtNtCs8iksUjoTkmC_15gungraun_runner6runner9callgrind10flamegraphNtB5_10OutputPath5clear
FN:490,_RNvMs3_NtNtNtCs8iksUjoTkmC_15gungraun_runner6runner9callgrind10flamegraphNtB5_10OutputPath5shift
FN:426,_RNvMs3_NtNtNtCs8iksUjoTkmC_15gungraun_runner6runner9callgrind10flamegraphNtB5_10OutputPath6create
FN:623,_RNvMs3_NtNtNtCs8iksUjoTkmC_15gungraun_runner6runner9callgrind10flamegraphNtB5_10OutputPath7to_path
FN:574,_RNvMs3_NtNtNtCs8iksUjoTkmC_15gungraun_runner6runner9callgrind10flamegraphNtB5_10OutputPath8dest_dir
FN:537,_RNvMs3_NtNtNtCs8iksUjoTkmC_15gungraun_runner6runner9callgrind10flamegraphNtB5_10OutputPath9extension
FN:610,_RNvMs3_NtNtNtCs8iksUjoTkmC_15gungraun_runner6runner9callgrind10flamegraphNtB5_10OutputPath9file_name
FN:676,_RNvNtNtNtCs8iksUjoTkmC_15gungraun_runner6runner9callgrind10flamegraph32total_flamegraph_map_from_parsed
FN:107,_RNvXNtNtNtCs8iksUjoTkmC_15gungraun_runner6runner9callgrind10flamegraphNtB2_27BaselineFlamegraphGeneratorNtB2_19FlamegraphGenerator6create
FN:191,_RNvXs0_NtNtNtCs8iksUjoTkmC_15gungraun_runner6runner9callgrind10flamegraphNtNtCsc0EkFhre2Gg_7inferno10flamegraph9DirectionINtNtCsgEmfK2I1SDS_4core7convert4FromNtNtBb_3api9DirectionE4from
FN:333,_RNvXs2_NtNtNtCs8iksUjoTkmC_15gungraun_runner6runner9callgrind10flamegraphNtB5_31LoadBaselineFlamegraphGeneratorNtB5_19FlamegraphGenerator6create
FN:629,_RNvXs4_NtNtNtCs8iksUjoTkmC_15gungraun_runner6runner9callgrind10flamegraphNtB5_31SaveBaselineFlamegraphGeneratorNtB5_19FlamegraphGenerator6create
FN:174,_RNvXs_NtNtNtCs8iksUjoTkmC_15gungraun_runner6runner9callgrind10flamegraphNtB4_6ConfigINtNtCsgEmfK2I1SDS_4core7convert4FromNtNtBa_3api16FlamegraphConfigE4from
FNDA:0,_RNCNvMs3_NtNtNtCs6wj2z9XdCGO_15gungraun_runner6runner9callgrind10flamegraphNtB7_10OutputPath10clear_diffs0_0Bd_
FNDA:0,_RNCINvMs1_NtNtNtCs6wj2z9XdCGO_15gungraun_runner6runner9callgrind10flamegraphNtB8_10Flamegraph5writeINtNtNtNtCsgEmfK2I1SDS_4core4iter8adapters3map3MapINtNtNtB1I_5slice4iter4IterNtNtCslNYArtu3iFV_5alloc6string6StringENvMB2Q_B2O_6as_strEE0Be_
FNDA:0,_RNCINvMs1_NtNtNtCs6wj2z9XdCGO_15gungraun_runner6runner9callgrind10flamegraphNtB8_10Flamegraph5writeINtNtNtNtCsgEmfK2I1SDS_4core4iter8adapters3map3MapINtNtNtB1I_5slice4iter4IterNtNtCslNYArtu3iFV_5alloc6string6StringENvMB2Q_B2O_6as_strEEs_0Be_
FNDA:0,_RNCINvMs1_NtNtNtCs6wj2z9XdCGO_15gungraun_runner6runner9callgrind10flamegraphNtB8_10Flamegraph5writeNtNtNtCsgEmfK2I1SDS_4core3str4iter5LinesE0Be_
FNDA:0,_RNCINvMs1_NtNtNtCs6wj2z9XdCGO_15gungraun_runner6runner9callgrind10flamegraphNtB8_10Flamegraph5writeNtNtNtCsgEmfK2I1SDS_4core3str4iter5LinesEs_0Be_
FNDA:0,_RNCNvMs3_NtNtNtCs6wj2z9XdCGO_15gungraun_runner6runner9callgrind10flamegraphNtB7_10OutputPath10clear_diff0Bd_
FNDA:0,_RNCNvMs3_NtNtNtCs6wj2z9XdCGO_15gungraun_runner6runner9callgrind10flamegraphNtB7_10OutputPath10clear_diffs1_0Bd_
FNDA:0,_RNCNvMs3_NtNtNtCs6wj2z9XdCGO_15gungraun_runner6runner9callgrind10flamegraphNtB7_10OutputPath10clear_diffs_0Bd_
FNDA:0,_RNCNvMs3_NtNtNtCs6wj2z9XdCGO_15gungraun_runner6runner9callgrind10flamegraphNtB7_10OutputPath13real_paths_in0Bd_
FNDA:0,_RNCNvMs3_NtNtNtCs6wj2z9XdCGO_15gungraun_runner6runner9callgrind10flamegraphNtB7_10OutputPath4init0Bd_
FNDA:0,_RNCNvMs3_NtNtNtCs6wj2z9XdCGO_15gungraun_runner6runner9callgrind10flamegraphNtB7_10OutputPath5shift0Bd_
FNDA:0,_RNCNvMs3_NtNtNtCs6wj2z9XdCGO_15gungraun_runner6runner9callgrind10flamegraphNtB7_10OutputPath6create0Bd_
FNDA:0,_RINvMs1_NtNtNtCs6wj2z9XdCGO_15gungraun_runner6runner9callgrind10flamegraphNtB6_10Flamegraph5parseRNtNtCsjrHSEGnQ3l9_3std4path4PathEBc_
FNDA:0,_RINvMs1_NtNtNtCs6wj2z9XdCGO_15gungraun_runner6runner9callgrind10flamegraphNtB6_10Flamegraph5writeINtNtNtNtCsgEmfK2I1SDS_4core4iter8adapters3map3MapINtNtNtB1G_5slice4iter4IterNtNtCslNYArtu3iFV_5alloc6string6StringENvMB2O_B2M_6as_strEEBc_
FNDA:0,_RINvMs1_NtNtNtCs6wj2z9XdCGO_15gungraun_runner6runner9callgrind10flamegraphNtB6_10Flamegraph5writeNtNtNtCsgEmfK2I1SDS_4core3str4iter5LinesEBc_
FNDA:0,_RINvMs3_NtNtNtCs6wj2z9XdCGO_15gungraun_runner6runner9callgrind10flamegraphNtB6_10OutputPath13set_modifiersReAB1G_j1_EBc_
FNDA:0,_RNCINvMs1_NtNtNtCs6wj2z9XdCGO_15gungraun_runner6runner9callgrind10flamegraphNtB8_10Flamegraph5parseRNtNtCsjrHSEGnQ3l9_3std4path4PathE0Be_
FNDA:0,_RNCNvMs1_NtNtNtCs6wj2z9XdCGO_15gungraun_runner6runner9callgrind10flamegraphNtB7_10Flamegraph20differential_options0Bd_
FNDA:0,_RNCNvXs2_NtNtNtCs6wj2z9XdCGO_15gungraun_runner6runner9callgrind10flamegraphNtB7_31LoadBaselineFlamegraphGeneratorNtB7_19FlamegraphGenerator6create0Bd_
FNDA:0,_RNCNvXs_NtNtNtCs6wj2z9XdCGO_15gungraun_runner6runner9callgrind10flamegraphNtB6_6ConfigINtNtCsgEmfK2I1SDS_4core7convert4FromNtNtBc_3api16FlamegraphConfigE4from0Bc_
FNDA:0,_RNvMs1_NtNtNtCs6wj2z9XdCGO_15gungraun_runner6runner9callgrind10flamegraphNtB5_10Flamegraph10is_regular
FNDA:0,_RNvMs1_NtNtNtCs6wj2z9XdCGO_15gungraun_runner6runner9callgrind10flamegraphNtB5_10Flamegraph15is_differential
FNDA:0,_RNvMs1_NtNtNtCs6wj2z9XdCGO_15gungraun_runner6runner9callgrind10flamegraphNtB5_10Flamegraph19create_differential
FNDA:0,_RNvMs1_NtNtNtCs6wj2z9XdCGO_15gungraun_runner6runner9callgrind10flamegraphNtB5_10Flamegraph20differential_options
FNDA:0,_RNvMs1_NtNtNtCs6wj2z9XdCGO_15gungraun_runner6runner9callgrind10flamegraphNtB5_10Flamegraph3new
FNDA:0,_RNvMs1_NtNtNtCs6wj2z9XdCGO_15gungraun_runner6runner9callgrind10flamegraphNtB5_10Flamegraph7options
FNDA:0,_RNvMs3_NtNtNtCs6wj2z9XdCGO_15gungraun_runner6runner9callgrind10flamegraphNtB5_10OutputPath10clear_diff
FNDA:0,_RNvMs3_NtNtNtCs6wj2z9XdCGO_15gungraun_runner6runner9callgrind10flamegraphNtB5_10OutputPath12to_base_path
FNDA:0,_RNvMs3_NtNtNtCs6wj2z9XdCGO_15gungraun_runner6runner9callgrind10flamegraphNtB5_10OutputPath12to_diff_path
FNDA:0,_RNvMs3_NtNtNtCs6wj2z9XdCGO_15gungraun_runner6runner9callgrind10flamegraphNtB5_10OutputPath13real_paths_in
FNDA:0,_RNvMs3_NtNtNtCs6wj2z9XdCGO_15gungraun_runner6runner9callgrind10flamegraphNtB5_10OutputPath14set_event_kind
FNDA:0,_RNvMs3_NtNtNtCs6wj2z9XdCGO_15gungraun_runner6runner9callgrind10flamegraphNtB5_10OutputPath3new
FNDA:0,_RNvMs3_NtNtNtCs6wj2z9XdCGO_15gungraun_runner6runner9callgrind10flamegraphNtB5_10OutputPath4init
FNDA:0,_RNvMs3_NtNtNtCs6wj2z9XdCGO_15gungraun_runner6runner9callgrind10flamegraphNtB5_10OutputPath5clear
FNDA:0,_RNvMs3_NtNtNtCs6wj2z9XdCGO_15gungraun_runner6runner9callgrind10flamegraphNtB5_10OutputPath5shift
FNDA:0,_RNvMs3_NtNtNtCs6wj2z9XdCGO_15gungraun_runner6runner9callgrind10flamegraphNtB5_10OutputPath6create
